
RoverX_testing.elf:     file format elf32-littlearm

Sections:
Idx Name          Size      VMA       LMA       File off  Algn
  0 .isr_vector   0000018c  08000000  08000000  00010000  2**0
                  CONTENTS, ALLOC, LOAD, READONLY, DATA
  1 .text         00006f18  08000190  08000190  00010190  2**4
                  CONTENTS, ALLOC, LOAD, READONLY, CODE
  2 .rodata       000006a4  080070a8  080070a8  000170a8  2**3
                  CONTENTS, ALLOC, LOAD, READONLY, DATA
  3 .ARM.extab    00000000  0800774c  0800774c  000201d4  2**0
                  CONTENTS
  4 .ARM          00000008  0800774c  0800774c  0001774c  2**2
                  CONTENTS, ALLOC, LOAD, READONLY, DATA
  5 .preinit_array 00000000  08007754  08007754  000201d4  2**0
                  CONTENTS, ALLOC, LOAD, DATA
  6 .init_array   00000004  08007754  08007754  00017754  2**2
                  CONTENTS, ALLOC, LOAD, DATA
  7 .fini_array   00000004  08007758  08007758  00017758  2**2
                  CONTENTS, ALLOC, LOAD, DATA
  8 .data         000001d4  20000000  0800775c  00020000  2**2
                  CONTENTS, ALLOC, LOAD, DATA
  9 .bss          00000378  200001d4  08007930  000201d4  2**2
                  ALLOC
 10 ._user_heap_stack 00000604  2000054c  08007930  0002054c  2**0
                  ALLOC
 11 .ARM.attributes 00000030  00000000  00000000  000201d4  2**0
                  CONTENTS, READONLY
 12 .comment      00000043  00000000  00000000  00020204  2**0
                  CONTENTS, READONLY
 13 .debug_frame  00001334  00000000  00000000  00020248  2**2
                  CONTENTS, READONLY, DEBUGGING, OCTETS

Disassembly of section .text:

08000190 <__do_global_dtors_aux>:
 8000190:	b510      	push	{r4, lr}
 8000192:	4c05      	ldr	r4, [pc, #20]	; (80001a8 <__do_global_dtors_aux+0x18>)
 8000194:	7823      	ldrb	r3, [r4, #0]
 8000196:	b933      	cbnz	r3, 80001a6 <__do_global_dtors_aux+0x16>
 8000198:	4b04      	ldr	r3, [pc, #16]	; (80001ac <__do_global_dtors_aux+0x1c>)
 800019a:	b113      	cbz	r3, 80001a2 <__do_global_dtors_aux+0x12>
 800019c:	4804      	ldr	r0, [pc, #16]	; (80001b0 <__do_global_dtors_aux+0x20>)
 800019e:	f3af 8000 	nop.w
 80001a2:	2301      	movs	r3, #1
 80001a4:	7023      	strb	r3, [r4, #0]
 80001a6:	bd10      	pop	{r4, pc}
 80001a8:	200001d4 	.word	0x200001d4
 80001ac:	00000000 	.word	0x00000000
 80001b0:	08007090 	.word	0x08007090

080001b4 <frame_dummy>:
 80001b4:	b508      	push	{r3, lr}
 80001b6:	4b03      	ldr	r3, [pc, #12]	; (80001c4 <frame_dummy+0x10>)
 80001b8:	b11b      	cbz	r3, 80001c2 <frame_dummy+0xe>
 80001ba:	4903      	ldr	r1, [pc, #12]	; (80001c8 <frame_dummy+0x14>)
 80001bc:	4803      	ldr	r0, [pc, #12]	; (80001cc <frame_dummy+0x18>)
 80001be:	f3af 8000 	nop.w
 80001c2:	bd08      	pop	{r3, pc}
 80001c4:	00000000 	.word	0x00000000
 80001c8:	200001d8 	.word	0x200001d8
 80001cc:	08007090 	.word	0x08007090

080001d0 <memchr>:
 80001d0:	f001 01ff 	and.w	r1, r1, #255	; 0xff
 80001d4:	2a10      	cmp	r2, #16
 80001d6:	db2b      	blt.n	8000230 <memchr+0x60>
 80001d8:	f010 0f07 	tst.w	r0, #7
 80001dc:	d008      	beq.n	80001f0 <memchr+0x20>
 80001de:	f810 3b01 	ldrb.w	r3, [r0], #1
 80001e2:	3a01      	subs	r2, #1
 80001e4:	428b      	cmp	r3, r1
 80001e6:	d02d      	beq.n	8000244 <memchr+0x74>
 80001e8:	f010 0f07 	tst.w	r0, #7
 80001ec:	b342      	cbz	r2, 8000240 <memchr+0x70>
 80001ee:	d1f6      	bne.n	80001de <memchr+0xe>
 80001f0:	b4f0      	push	{r4, r5, r6, r7}
 80001f2:	ea41 2101 	orr.w	r1, r1, r1, lsl #8
 80001f6:	ea41 4101 	orr.w	r1, r1, r1, lsl #16
 80001fa:	f022 0407 	bic.w	r4, r2, #7
 80001fe:	f07f 0700 	mvns.w	r7, #0
 8000202:	2300      	movs	r3, #0
 8000204:	e8f0 5602 	ldrd	r5, r6, [r0], #8
 8000208:	3c08      	subs	r4, #8
 800020a:	ea85 0501 	eor.w	r5, r5, r1
 800020e:	ea86 0601 	eor.w	r6, r6, r1
 8000212:	fa85 f547 	uadd8	r5, r5, r7
 8000216:	faa3 f587 	sel	r5, r3, r7
 800021a:	fa86 f647 	uadd8	r6, r6, r7
 800021e:	faa5 f687 	sel	r6, r5, r7
 8000222:	b98e      	cbnz	r6, 8000248 <memchr+0x78>
 8000224:	d1ee      	bne.n	8000204 <memchr+0x34>
 8000226:	bcf0      	pop	{r4, r5, r6, r7}
 8000228:	f001 01ff 	and.w	r1, r1, #255	; 0xff
 800022c:	f002 0207 	and.w	r2, r2, #7
 8000230:	b132      	cbz	r2, 8000240 <memchr+0x70>
 8000232:	f810 3b01 	ldrb.w	r3, [r0], #1
 8000236:	3a01      	subs	r2, #1
 8000238:	ea83 0301 	eor.w	r3, r3, r1
 800023c:	b113      	cbz	r3, 8000244 <memchr+0x74>
 800023e:	d1f8      	bne.n	8000232 <memchr+0x62>
 8000240:	2000      	movs	r0, #0
 8000242:	4770      	bx	lr
 8000244:	3801      	subs	r0, #1
 8000246:	4770      	bx	lr
 8000248:	2d00      	cmp	r5, #0
 800024a:	bf06      	itte	eq
 800024c:	4635      	moveq	r5, r6
 800024e:	3803      	subeq	r0, #3
 8000250:	3807      	subne	r0, #7
 8000252:	f015 0f01 	tst.w	r5, #1
 8000256:	d107      	bne.n	8000268 <memchr+0x98>
 8000258:	3001      	adds	r0, #1
 800025a:	f415 7f80 	tst.w	r5, #256	; 0x100
 800025e:	bf02      	ittt	eq
 8000260:	3001      	addeq	r0, #1
 8000262:	f415 3fc0 	tsteq.w	r5, #98304	; 0x18000
 8000266:	3001      	addeq	r0, #1
 8000268:	bcf0      	pop	{r4, r5, r6, r7}
 800026a:	3801      	subs	r0, #1
 800026c:	4770      	bx	lr
 800026e:	bf00      	nop

08000270 <strlen>:
 8000270:	4603      	mov	r3, r0
 8000272:	f813 2b01 	ldrb.w	r2, [r3], #1
 8000276:	2a00      	cmp	r2, #0
 8000278:	d1fb      	bne.n	8000272 <strlen+0x2>
 800027a:	1a18      	subs	r0, r3, r0
 800027c:	3801      	subs	r0, #1
 800027e:	4770      	bx	lr

08000280 <__aeabi_drsub>:
 8000280:	f081 4100 	eor.w	r1, r1, #2147483648	; 0x80000000
 8000284:	e002      	b.n	800028c <__adddf3>
 8000286:	bf00      	nop

08000288 <__aeabi_dsub>:
 8000288:	f083 4300 	eor.w	r3, r3, #2147483648	; 0x80000000

0800028c <__adddf3>:
 800028c:	b530      	push	{r4, r5, lr}
 800028e:	ea4f 0441 	mov.w	r4, r1, lsl #1
 8000292:	ea4f 0543 	mov.w	r5, r3, lsl #1
 8000296:	ea94 0f05 	teq	r4, r5
 800029a:	bf08      	it	eq
 800029c:	ea90 0f02 	teqeq	r0, r2
 80002a0:	bf1f      	itttt	ne
 80002a2:	ea54 0c00 	orrsne.w	ip, r4, r0
 80002a6:	ea55 0c02 	orrsne.w	ip, r5, r2
 80002aa:	ea7f 5c64 	mvnsne.w	ip, r4, asr #21
 80002ae:	ea7f 5c65 	mvnsne.w	ip, r5, asr #21
 80002b2:	f000 80e2 	beq.w	800047a <__adddf3+0x1ee>
 80002b6:	ea4f 5454 	mov.w	r4, r4, lsr #21
 80002ba:	ebd4 5555 	rsbs	r5, r4, r5, lsr #21
 80002be:	bfb8      	it	lt
 80002c0:	426d      	neglt	r5, r5
 80002c2:	dd0c      	ble.n	80002de <__adddf3+0x52>
 80002c4:	442c      	add	r4, r5
 80002c6:	ea80 0202 	eor.w	r2, r0, r2
 80002ca:	ea81 0303 	eor.w	r3, r1, r3
 80002ce:	ea82 0000 	eor.w	r0, r2, r0
 80002d2:	ea83 0101 	eor.w	r1, r3, r1
 80002d6:	ea80 0202 	eor.w	r2, r0, r2
 80002da:	ea81 0303 	eor.w	r3, r1, r3
 80002de:	2d36      	cmp	r5, #54	; 0x36
 80002e0:	bf88      	it	hi
 80002e2:	bd30      	pophi	{r4, r5, pc}
 80002e4:	f011 4f00 	tst.w	r1, #2147483648	; 0x80000000
 80002e8:	ea4f 3101 	mov.w	r1, r1, lsl #12
 80002ec:	f44f 1c80 	mov.w	ip, #1048576	; 0x100000
 80002f0:	ea4c 3111 	orr.w	r1, ip, r1, lsr #12
 80002f4:	d002      	beq.n	80002fc <__adddf3+0x70>
 80002f6:	4240      	negs	r0, r0
 80002f8:	eb61 0141 	sbc.w	r1, r1, r1, lsl #1
 80002fc:	f013 4f00 	tst.w	r3, #2147483648	; 0x80000000
 8000300:	ea4f 3303 	mov.w	r3, r3, lsl #12
 8000304:	ea4c 3313 	orr.w	r3, ip, r3, lsr #12
 8000308:	d002      	beq.n	8000310 <__adddf3+0x84>
 800030a:	4252      	negs	r2, r2
 800030c:	eb63 0343 	sbc.w	r3, r3, r3, lsl #1
 8000310:	ea94 0f05 	teq	r4, r5
 8000314:	f000 80a7 	beq.w	8000466 <__adddf3+0x1da>
 8000318:	f1a4 0401 	sub.w	r4, r4, #1
 800031c:	f1d5 0e20 	rsbs	lr, r5, #32
 8000320:	db0d      	blt.n	800033e <__adddf3+0xb2>
 8000322:	fa02 fc0e 	lsl.w	ip, r2, lr
 8000326:	fa22 f205 	lsr.w	r2, r2, r5
 800032a:	1880      	adds	r0, r0, r2
 800032c:	f141 0100 	adc.w	r1, r1, #0
 8000330:	fa03 f20e 	lsl.w	r2, r3, lr
 8000334:	1880      	adds	r0, r0, r2
 8000336:	fa43 f305 	asr.w	r3, r3, r5
 800033a:	4159      	adcs	r1, r3
 800033c:	e00e      	b.n	800035c <__adddf3+0xd0>
 800033e:	f1a5 0520 	sub.w	r5, r5, #32
 8000342:	f10e 0e20 	add.w	lr, lr, #32
 8000346:	2a01      	cmp	r2, #1
 8000348:	fa03 fc0e 	lsl.w	ip, r3, lr
 800034c:	bf28      	it	cs
 800034e:	f04c 0c02 	orrcs.w	ip, ip, #2
 8000352:	fa43 f305 	asr.w	r3, r3, r5
 8000356:	18c0      	adds	r0, r0, r3
 8000358:	eb51 71e3 	adcs.w	r1, r1, r3, asr #31
 800035c:	f001 4500 	and.w	r5, r1, #2147483648	; 0x80000000
 8000360:	d507      	bpl.n	8000372 <__adddf3+0xe6>
 8000362:	f04f 0e00 	mov.w	lr, #0
 8000366:	f1dc 0c00 	rsbs	ip, ip, #0
 800036a:	eb7e 0000 	sbcs.w	r0, lr, r0
 800036e:	eb6e 0101 	sbc.w	r1, lr, r1
 8000372:	f5b1 1f80 	cmp.w	r1, #1048576	; 0x100000
 8000376:	d31b      	bcc.n	80003b0 <__adddf3+0x124>
 8000378:	f5b1 1f00 	cmp.w	r1, #2097152	; 0x200000
 800037c:	d30c      	bcc.n	8000398 <__adddf3+0x10c>
 800037e:	0849      	lsrs	r1, r1, #1
 8000380:	ea5f 0030 	movs.w	r0, r0, rrx
 8000384:	ea4f 0c3c 	mov.w	ip, ip, rrx
 8000388:	f104 0401 	add.w	r4, r4, #1
 800038c:	ea4f 5244 	mov.w	r2, r4, lsl #21
 8000390:	f512 0f80 	cmn.w	r2, #4194304	; 0x400000
 8000394:	f080 809a 	bcs.w	80004cc <__adddf3+0x240>
 8000398:	f1bc 4f00 	cmp.w	ip, #2147483648	; 0x80000000
 800039c:	bf08      	it	eq
 800039e:	ea5f 0c50 	movseq.w	ip, r0, lsr #1
 80003a2:	f150 0000 	adcs.w	r0, r0, #0
 80003a6:	eb41 5104 	adc.w	r1, r1, r4, lsl #20
 80003aa:	ea41 0105 	orr.w	r1, r1, r5
 80003ae:	bd30      	pop	{r4, r5, pc}
 80003b0:	ea5f 0c4c 	movs.w	ip, ip, lsl #1
 80003b4:	4140      	adcs	r0, r0
 80003b6:	eb41 0101 	adc.w	r1, r1, r1
 80003ba:	3c01      	subs	r4, #1
 80003bc:	bf28      	it	cs
 80003be:	f5b1 1f80 	cmpcs.w	r1, #1048576	; 0x100000
 80003c2:	d2e9      	bcs.n	8000398 <__adddf3+0x10c>
 80003c4:	f091 0f00 	teq	r1, #0
 80003c8:	bf04      	itt	eq
 80003ca:	4601      	moveq	r1, r0
 80003cc:	2000      	moveq	r0, #0
 80003ce:	fab1 f381 	clz	r3, r1
 80003d2:	bf08      	it	eq
 80003d4:	3320      	addeq	r3, #32
 80003d6:	f1a3 030b 	sub.w	r3, r3, #11
 80003da:	f1b3 0220 	subs.w	r2, r3, #32
 80003de:	da0c      	bge.n	80003fa <__adddf3+0x16e>
 80003e0:	320c      	adds	r2, #12
 80003e2:	dd08      	ble.n	80003f6 <__adddf3+0x16a>
 80003e4:	f102 0c14 	add.w	ip, r2, #20
 80003e8:	f1c2 020c 	rsb	r2, r2, #12
 80003ec:	fa01 f00c 	lsl.w	r0, r1, ip
 80003f0:	fa21 f102 	lsr.w	r1, r1, r2
 80003f4:	e00c      	b.n	8000410 <__adddf3+0x184>
 80003f6:	f102 0214 	add.w	r2, r2, #20
 80003fa:	bfd8      	it	le
 80003fc:	f1c2 0c20 	rsble	ip, r2, #32
 8000400:	fa01 f102 	lsl.w	r1, r1, r2
 8000404:	fa20 fc0c 	lsr.w	ip, r0, ip
 8000408:	bfdc      	itt	le
 800040a:	ea41 010c 	orrle.w	r1, r1, ip
 800040e:	4090      	lslle	r0, r2
 8000410:	1ae4      	subs	r4, r4, r3
 8000412:	bfa2      	ittt	ge
 8000414:	eb01 5104 	addge.w	r1, r1, r4, lsl #20
 8000418:	4329      	orrge	r1, r5
 800041a:	bd30      	popge	{r4, r5, pc}
 800041c:	ea6f 0404 	mvn.w	r4, r4
 8000420:	3c1f      	subs	r4, #31
 8000422:	da1c      	bge.n	800045e <__adddf3+0x1d2>
 8000424:	340c      	adds	r4, #12
 8000426:	dc0e      	bgt.n	8000446 <__adddf3+0x1ba>
 8000428:	f104 0414 	add.w	r4, r4, #20
 800042c:	f1c4 0220 	rsb	r2, r4, #32
 8000430:	fa20 f004 	lsr.w	r0, r0, r4
 8000434:	fa01 f302 	lsl.w	r3, r1, r2
 8000438:	ea40 0003 	orr.w	r0, r0, r3
 800043c:	fa21 f304 	lsr.w	r3, r1, r4
 8000440:	ea45 0103 	orr.w	r1, r5, r3
 8000444:	bd30      	pop	{r4, r5, pc}
 8000446:	f1c4 040c 	rsb	r4, r4, #12
 800044a:	f1c4 0220 	rsb	r2, r4, #32
 800044e:	fa20 f002 	lsr.w	r0, r0, r2
 8000452:	fa01 f304 	lsl.w	r3, r1, r4
 8000456:	ea40 0003 	orr.w	r0, r0, r3
 800045a:	4629      	mov	r1, r5
 800045c:	bd30      	pop	{r4, r5, pc}
 800045e:	fa21 f004 	lsr.w	r0, r1, r4
 8000462:	4629      	mov	r1, r5
 8000464:	bd30      	pop	{r4, r5, pc}
 8000466:	f094 0f00 	teq	r4, #0
 800046a:	f483 1380 	eor.w	r3, r3, #1048576	; 0x100000
 800046e:	bf06      	itte	eq
 8000470:	f481 1180 	eoreq.w	r1, r1, #1048576	; 0x100000
 8000474:	3401      	addeq	r4, #1
 8000476:	3d01      	subne	r5, #1
 8000478:	e74e      	b.n	8000318 <__adddf3+0x8c>
 800047a:	ea7f 5c64 	mvns.w	ip, r4, asr #21
 800047e:	bf18      	it	ne
 8000480:	ea7f 5c65 	mvnsne.w	ip, r5, asr #21
 8000484:	d029      	beq.n	80004da <__adddf3+0x24e>
 8000486:	ea94 0f05 	teq	r4, r5
 800048a:	bf08      	it	eq
 800048c:	ea90 0f02 	teqeq	r0, r2
 8000490:	d005      	beq.n	800049e <__adddf3+0x212>
 8000492:	ea54 0c00 	orrs.w	ip, r4, r0
 8000496:	bf04      	itt	eq
 8000498:	4619      	moveq	r1, r3
 800049a:	4610      	moveq	r0, r2
 800049c:	bd30      	pop	{r4, r5, pc}
 800049e:	ea91 0f03 	teq	r1, r3
 80004a2:	bf1e      	ittt	ne
 80004a4:	2100      	movne	r1, #0
 80004a6:	2000      	movne	r0, #0
 80004a8:	bd30      	popne	{r4, r5, pc}
 80004aa:	ea5f 5c54 	movs.w	ip, r4, lsr #21
 80004ae:	d105      	bne.n	80004bc <__adddf3+0x230>
 80004b0:	0040      	lsls	r0, r0, #1
 80004b2:	4149      	adcs	r1, r1
 80004b4:	bf28      	it	cs
 80004b6:	f041 4100 	orrcs.w	r1, r1, #2147483648	; 0x80000000
 80004ba:	bd30      	pop	{r4, r5, pc}
 80004bc:	f514 0480 	adds.w	r4, r4, #4194304	; 0x400000
 80004c0:	bf3c      	itt	cc
 80004c2:	f501 1180 	addcc.w	r1, r1, #1048576	; 0x100000
 80004c6:	bd30      	popcc	{r4, r5, pc}
 80004c8:	f001 4500 	and.w	r5, r1, #2147483648	; 0x80000000
 80004cc:	f045 41fe 	orr.w	r1, r5, #2130706432	; 0x7f000000
 80004d0:	f441 0170 	orr.w	r1, r1, #15728640	; 0xf00000
 80004d4:	f04f 0000 	mov.w	r0, #0
 80004d8:	bd30      	pop	{r4, r5, pc}
 80004da:	ea7f 5c64 	mvns.w	ip, r4, asr #21
 80004de:	bf1a      	itte	ne
 80004e0:	4619      	movne	r1, r3
 80004e2:	4610      	movne	r0, r2
 80004e4:	ea7f 5c65 	mvnseq.w	ip, r5, asr #21
 80004e8:	bf1c      	itt	ne
 80004ea:	460b      	movne	r3, r1
 80004ec:	4602      	movne	r2, r0
 80004ee:	ea50 3401 	orrs.w	r4, r0, r1, lsl #12
 80004f2:	bf06      	itte	eq
 80004f4:	ea52 3503 	orrseq.w	r5, r2, r3, lsl #12
 80004f8:	ea91 0f03 	teqeq	r1, r3
 80004fc:	f441 2100 	orrne.w	r1, r1, #524288	; 0x80000
 8000500:	bd30      	pop	{r4, r5, pc}
 8000502:	bf00      	nop

08000504 <__aeabi_ui2d>:
 8000504:	f090 0f00 	teq	r0, #0
 8000508:	bf04      	itt	eq
 800050a:	2100      	moveq	r1, #0
 800050c:	4770      	bxeq	lr
 800050e:	b530      	push	{r4, r5, lr}
 8000510:	f44f 6480 	mov.w	r4, #1024	; 0x400
 8000514:	f104 0432 	add.w	r4, r4, #50	; 0x32
 8000518:	f04f 0500 	mov.w	r5, #0
 800051c:	f04f 0100 	mov.w	r1, #0
 8000520:	e750      	b.n	80003c4 <__adddf3+0x138>
 8000522:	bf00      	nop

08000524 <__aeabi_i2d>:
 8000524:	f090 0f00 	teq	r0, #0
 8000528:	bf04      	itt	eq
 800052a:	2100      	moveq	r1, #0
 800052c:	4770      	bxeq	lr
 800052e:	b530      	push	{r4, r5, lr}
 8000530:	f44f 6480 	mov.w	r4, #1024	; 0x400
 8000534:	f104 0432 	add.w	r4, r4, #50	; 0x32
 8000538:	f010 4500 	ands.w	r5, r0, #2147483648	; 0x80000000
 800053c:	bf48      	it	mi
 800053e:	4240      	negmi	r0, r0
 8000540:	f04f 0100 	mov.w	r1, #0
 8000544:	e73e      	b.n	80003c4 <__adddf3+0x138>
 8000546:	bf00      	nop

08000548 <__aeabi_f2d>:
 8000548:	0042      	lsls	r2, r0, #1
 800054a:	ea4f 01e2 	mov.w	r1, r2, asr #3
 800054e:	ea4f 0131 	mov.w	r1, r1, rrx
 8000552:	ea4f 7002 	mov.w	r0, r2, lsl #28
 8000556:	bf1f      	itttt	ne
 8000558:	f012 437f 	andsne.w	r3, r2, #4278190080	; 0xff000000
 800055c:	f093 4f7f 	teqne	r3, #4278190080	; 0xff000000
 8000560:	f081 5160 	eorne.w	r1, r1, #939524096	; 0x38000000
 8000564:	4770      	bxne	lr
 8000566:	f032 427f 	bics.w	r2, r2, #4278190080	; 0xff000000
 800056a:	bf08      	it	eq
 800056c:	4770      	bxeq	lr
 800056e:	f093 4f7f 	teq	r3, #4278190080	; 0xff000000
 8000572:	bf04      	itt	eq
 8000574:	f441 2100 	orreq.w	r1, r1, #524288	; 0x80000
 8000578:	4770      	bxeq	lr
 800057a:	b530      	push	{r4, r5, lr}
 800057c:	f44f 7460 	mov.w	r4, #896	; 0x380
 8000580:	f001 4500 	and.w	r5, r1, #2147483648	; 0x80000000
 8000584:	f021 4100 	bic.w	r1, r1, #2147483648	; 0x80000000
 8000588:	e71c      	b.n	80003c4 <__adddf3+0x138>
 800058a:	bf00      	nop

0800058c <__aeabi_ul2d>:
 800058c:	ea50 0201 	orrs.w	r2, r0, r1
 8000590:	bf08      	it	eq
 8000592:	4770      	bxeq	lr
 8000594:	b530      	push	{r4, r5, lr}
 8000596:	f04f 0500 	mov.w	r5, #0
 800059a:	e00a      	b.n	80005b2 <__aeabi_l2d+0x16>

0800059c <__aeabi_l2d>:
 800059c:	ea50 0201 	orrs.w	r2, r0, r1
 80005a0:	bf08      	it	eq
 80005a2:	4770      	bxeq	lr
 80005a4:	b530      	push	{r4, r5, lr}
 80005a6:	f011 4500 	ands.w	r5, r1, #2147483648	; 0x80000000
 80005aa:	d502      	bpl.n	80005b2 <__aeabi_l2d+0x16>
 80005ac:	4240      	negs	r0, r0
 80005ae:	eb61 0141 	sbc.w	r1, r1, r1, lsl #1
 80005b2:	f44f 6480 	mov.w	r4, #1024	; 0x400
 80005b6:	f104 0432 	add.w	r4, r4, #50	; 0x32
 80005ba:	ea5f 5c91 	movs.w	ip, r1, lsr #22
 80005be:	f43f aed8 	beq.w	8000372 <__adddf3+0xe6>
 80005c2:	f04f 0203 	mov.w	r2, #3
 80005c6:	ea5f 0cdc 	movs.w	ip, ip, lsr #3
 80005ca:	bf18      	it	ne
 80005cc:	3203      	addne	r2, #3
 80005ce:	ea5f 0cdc 	movs.w	ip, ip, lsr #3
 80005d2:	bf18      	it	ne
 80005d4:	3203      	addne	r2, #3
 80005d6:	eb02 02dc 	add.w	r2, r2, ip, lsr #3
 80005da:	f1c2 0320 	rsb	r3, r2, #32
 80005de:	fa00 fc03 	lsl.w	ip, r0, r3
 80005e2:	fa20 f002 	lsr.w	r0, r0, r2
 80005e6:	fa01 fe03 	lsl.w	lr, r1, r3
 80005ea:	ea40 000e 	orr.w	r0, r0, lr
 80005ee:	fa21 f102 	lsr.w	r1, r1, r2
 80005f2:	4414      	add	r4, r2
 80005f4:	e6bd      	b.n	8000372 <__adddf3+0xe6>
 80005f6:	bf00      	nop

080005f8 <__aeabi_dmul>:
 80005f8:	b570      	push	{r4, r5, r6, lr}
 80005fa:	f04f 0cff 	mov.w	ip, #255	; 0xff
 80005fe:	f44c 6ce0 	orr.w	ip, ip, #1792	; 0x700
 8000602:	ea1c 5411 	ands.w	r4, ip, r1, lsr #20
 8000606:	bf1d      	ittte	ne
 8000608:	ea1c 5513 	andsne.w	r5, ip, r3, lsr #20
 800060c:	ea94 0f0c 	teqne	r4, ip
 8000610:	ea95 0f0c 	teqne	r5, ip
 8000614:	f000 f8de 	bleq	80007d4 <__aeabi_dmul+0x1dc>
 8000618:	442c      	add	r4, r5
 800061a:	ea81 0603 	eor.w	r6, r1, r3
 800061e:	ea21 514c 	bic.w	r1, r1, ip, lsl #21
 8000622:	ea23 534c 	bic.w	r3, r3, ip, lsl #21
 8000626:	ea50 3501 	orrs.w	r5, r0, r1, lsl #12
 800062a:	bf18      	it	ne
 800062c:	ea52 3503 	orrsne.w	r5, r2, r3, lsl #12
 8000630:	f441 1180 	orr.w	r1, r1, #1048576	; 0x100000
 8000634:	f443 1380 	orr.w	r3, r3, #1048576	; 0x100000
 8000638:	d038      	beq.n	80006ac <__aeabi_dmul+0xb4>
 800063a:	fba0 ce02 	umull	ip, lr, r0, r2
 800063e:	f04f 0500 	mov.w	r5, #0
 8000642:	fbe1 e502 	umlal	lr, r5, r1, r2
 8000646:	f006 4200 	and.w	r2, r6, #2147483648	; 0x80000000
 800064a:	fbe0 e503 	umlal	lr, r5, r0, r3
 800064e:	f04f 0600 	mov.w	r6, #0
 8000652:	fbe1 5603 	umlal	r5, r6, r1, r3
 8000656:	f09c 0f00 	teq	ip, #0
 800065a:	bf18      	it	ne
 800065c:	f04e 0e01 	orrne.w	lr, lr, #1
 8000660:	f1a4 04ff 	sub.w	r4, r4, #255	; 0xff
 8000664:	f5b6 7f00 	cmp.w	r6, #512	; 0x200
 8000668:	f564 7440 	sbc.w	r4, r4, #768	; 0x300
 800066c:	d204      	bcs.n	8000678 <__aeabi_dmul+0x80>
 800066e:	ea5f 0e4e 	movs.w	lr, lr, lsl #1
 8000672:	416d      	adcs	r5, r5
 8000674:	eb46 0606 	adc.w	r6, r6, r6
 8000678:	ea42 21c6 	orr.w	r1, r2, r6, lsl #11
 800067c:	ea41 5155 	orr.w	r1, r1, r5, lsr #21
 8000680:	ea4f 20c5 	mov.w	r0, r5, lsl #11
 8000684:	ea40 505e 	orr.w	r0, r0, lr, lsr #21
 8000688:	ea4f 2ece 	mov.w	lr, lr, lsl #11
 800068c:	f1b4 0cfd 	subs.w	ip, r4, #253	; 0xfd
 8000690:	bf88      	it	hi
 8000692:	f5bc 6fe0 	cmphi.w	ip, #1792	; 0x700
 8000696:	d81e      	bhi.n	80006d6 <__aeabi_dmul+0xde>
 8000698:	f1be 4f00 	cmp.w	lr, #2147483648	; 0x80000000
 800069c:	bf08      	it	eq
 800069e:	ea5f 0e50 	movseq.w	lr, r0, lsr #1
 80006a2:	f150 0000 	adcs.w	r0, r0, #0
 80006a6:	eb41 5104 	adc.w	r1, r1, r4, lsl #20
 80006aa:	bd70      	pop	{r4, r5, r6, pc}
 80006ac:	f006 4600 	and.w	r6, r6, #2147483648	; 0x80000000
 80006b0:	ea46 0101 	orr.w	r1, r6, r1
 80006b4:	ea40 0002 	orr.w	r0, r0, r2
 80006b8:	ea81 0103 	eor.w	r1, r1, r3
 80006bc:	ebb4 045c 	subs.w	r4, r4, ip, lsr #1
 80006c0:	bfc2      	ittt	gt
 80006c2:	ebd4 050c 	rsbsgt	r5, r4, ip
 80006c6:	ea41 5104 	orrgt.w	r1, r1, r4, lsl #20
 80006ca:	bd70      	popgt	{r4, r5, r6, pc}
 80006cc:	f441 1180 	orr.w	r1, r1, #1048576	; 0x100000
 80006d0:	f04f 0e00 	mov.w	lr, #0
 80006d4:	3c01      	subs	r4, #1
 80006d6:	f300 80ab 	bgt.w	8000830 <__aeabi_dmul+0x238>
 80006da:	f114 0f36 	cmn.w	r4, #54	; 0x36
 80006de:	bfde      	ittt	le
 80006e0:	2000      	movle	r0, #0
 80006e2:	f001 4100 	andle.w	r1, r1, #2147483648	; 0x80000000
 80006e6:	bd70      	pople	{r4, r5, r6, pc}
 80006e8:	f1c4 0400 	rsb	r4, r4, #0
 80006ec:	3c20      	subs	r4, #32
 80006ee:	da35      	bge.n	800075c <__aeabi_dmul+0x164>
 80006f0:	340c      	adds	r4, #12
 80006f2:	dc1b      	bgt.n	800072c <__aeabi_dmul+0x134>
 80006f4:	f104 0414 	add.w	r4, r4, #20
 80006f8:	f1c4 0520 	rsb	r5, r4, #32
 80006fc:	fa00 f305 	lsl.w	r3, r0, r5
 8000700:	fa20 f004 	lsr.w	r0, r0, r4
 8000704:	fa01 f205 	lsl.w	r2, r1, r5
 8000708:	ea40 0002 	orr.w	r0, r0, r2
 800070c:	f001 4200 	and.w	r2, r1, #2147483648	; 0x80000000
 8000710:	f021 4100 	bic.w	r1, r1, #2147483648	; 0x80000000
 8000714:	eb10 70d3 	adds.w	r0, r0, r3, lsr #31
 8000718:	fa21 f604 	lsr.w	r6, r1, r4
 800071c:	eb42 0106 	adc.w	r1, r2, r6
 8000720:	ea5e 0e43 	orrs.w	lr, lr, r3, lsl #1
 8000724:	bf08      	it	eq
 8000726:	ea20 70d3 	biceq.w	r0, r0, r3, lsr #31
 800072a:	bd70      	pop	{r4, r5, r6, pc}
 800072c:	f1c4 040c 	rsb	r4, r4, #12
 8000730:	f1c4 0520 	rsb	r5, r4, #32
 8000734:	fa00 f304 	lsl.w	r3, r0, r4
 8000738:	fa20 f005 	lsr.w	r0, r0, r5
 800073c:	fa01 f204 	lsl.w	r2, r1, r4
 8000740:	ea40 0002 	orr.w	r0, r0, r2
 8000744:	f001 4100 	and.w	r1, r1, #2147483648	; 0x80000000
 8000748:	eb10 70d3 	adds.w	r0, r0, r3, lsr #31
 800074c:	f141 0100 	adc.w	r1, r1, #0
 8000750:	ea5e 0e43 	orrs.w	lr, lr, r3, lsl #1
 8000754:	bf08      	it	eq
 8000756:	ea20 70d3 	biceq.w	r0, r0, r3, lsr #31
 800075a:	bd70      	pop	{r4, r5, r6, pc}
 800075c:	f1c4 0520 	rsb	r5, r4, #32
 8000760:	fa00 f205 	lsl.w	r2, r0, r5
 8000764:	ea4e 0e02 	orr.w	lr, lr, r2
 8000768:	fa20 f304 	lsr.w	r3, r0, r4
 800076c:	fa01 f205 	lsl.w	r2, r1, r5
 8000770:	ea43 0302 	orr.w	r3, r3, r2
 8000774:	fa21 f004 	lsr.w	r0, r1, r4
 8000778:	f001 4100 	and.w	r1, r1, #2147483648	; 0x80000000
 800077c:	fa21 f204 	lsr.w	r2, r1, r4
 8000780:	ea20 0002 	bic.w	r0, r0, r2
 8000784:	eb00 70d3 	add.w	r0, r0, r3, lsr #31
 8000788:	ea5e 0e43 	orrs.w	lr, lr, r3, lsl #1
 800078c:	bf08      	it	eq
 800078e:	ea20 70d3 	biceq.w	r0, r0, r3, lsr #31
 8000792:	bd70      	pop	{r4, r5, r6, pc}
 8000794:	f094 0f00 	teq	r4, #0
 8000798:	d10f      	bne.n	80007ba <__aeabi_dmul+0x1c2>
 800079a:	f001 4600 	and.w	r6, r1, #2147483648	; 0x80000000
 800079e:	0040      	lsls	r0, r0, #1
 80007a0:	eb41 0101 	adc.w	r1, r1, r1
 80007a4:	f411 1f80 	tst.w	r1, #1048576	; 0x100000
 80007a8:	bf08      	it	eq
 80007aa:	3c01      	subeq	r4, #1
 80007ac:	d0f7      	beq.n	800079e <__aeabi_dmul+0x1a6>
 80007ae:	ea41 0106 	orr.w	r1, r1, r6
 80007b2:	f095 0f00 	teq	r5, #0
 80007b6:	bf18      	it	ne
 80007b8:	4770      	bxne	lr
 80007ba:	f003 4600 	and.w	r6, r3, #2147483648	; 0x80000000
 80007be:	0052      	lsls	r2, r2, #1
 80007c0:	eb43 0303 	adc.w	r3, r3, r3
 80007c4:	f413 1f80 	tst.w	r3, #1048576	; 0x100000
 80007c8:	bf08      	it	eq
 80007ca:	3d01      	subeq	r5, #1
 80007cc:	d0f7      	beq.n	80007be <__aeabi_dmul+0x1c6>
 80007ce:	ea43 0306 	orr.w	r3, r3, r6
 80007d2:	4770      	bx	lr
 80007d4:	ea94 0f0c 	teq	r4, ip
 80007d8:	ea0c 5513 	and.w	r5, ip, r3, lsr #20
 80007dc:	bf18      	it	ne
 80007de:	ea95 0f0c 	teqne	r5, ip
 80007e2:	d00c      	beq.n	80007fe <__aeabi_dmul+0x206>
 80007e4:	ea50 0641 	orrs.w	r6, r0, r1, lsl #1
 80007e8:	bf18      	it	ne
 80007ea:	ea52 0643 	orrsne.w	r6, r2, r3, lsl #1
 80007ee:	d1d1      	bne.n	8000794 <__aeabi_dmul+0x19c>
 80007f0:	ea81 0103 	eor.w	r1, r1, r3
 80007f4:	f001 4100 	and.w	r1, r1, #2147483648	; 0x80000000
 80007f8:	f04f 0000 	mov.w	r0, #0
 80007fc:	bd70      	pop	{r4, r5, r6, pc}
 80007fe:	ea50 0641 	orrs.w	r6, r0, r1, lsl #1
 8000802:	bf06      	itte	eq
 8000804:	4610      	moveq	r0, r2
 8000806:	4619      	moveq	r1, r3
 8000808:	ea52 0643 	orrsne.w	r6, r2, r3, lsl #1
 800080c:	d019      	beq.n	8000842 <__aeabi_dmul+0x24a>
 800080e:	ea94 0f0c 	teq	r4, ip
 8000812:	d102      	bne.n	800081a <__aeabi_dmul+0x222>
 8000814:	ea50 3601 	orrs.w	r6, r0, r1, lsl #12
 8000818:	d113      	bne.n	8000842 <__aeabi_dmul+0x24a>
 800081a:	ea95 0f0c 	teq	r5, ip
 800081e:	d105      	bne.n	800082c <__aeabi_dmul+0x234>
 8000820:	ea52 3603 	orrs.w	r6, r2, r3, lsl #12
 8000824:	bf1c      	itt	ne
 8000826:	4610      	movne	r0, r2
 8000828:	4619      	movne	r1, r3
 800082a:	d10a      	bne.n	8000842 <__aeabi_dmul+0x24a>
 800082c:	ea81 0103 	eor.w	r1, r1, r3
 8000830:	f001 4100 	and.w	r1, r1, #2147483648	; 0x80000000
 8000834:	f041 41fe 	orr.w	r1, r1, #2130706432	; 0x7f000000
 8000838:	f441 0170 	orr.w	r1, r1, #15728640	; 0xf00000
 800083c:	f04f 0000 	mov.w	r0, #0
 8000840:	bd70      	pop	{r4, r5, r6, pc}
 8000842:	f041 41fe 	orr.w	r1, r1, #2130706432	; 0x7f000000
 8000846:	f441 0178 	orr.w	r1, r1, #16252928	; 0xf80000
 800084a:	bd70      	pop	{r4, r5, r6, pc}

0800084c <__aeabi_ddiv>:
 800084c:	b570      	push	{r4, r5, r6, lr}
 800084e:	f04f 0cff 	mov.w	ip, #255	; 0xff
 8000852:	f44c 6ce0 	orr.w	ip, ip, #1792	; 0x700
 8000856:	ea1c 5411 	ands.w	r4, ip, r1, lsr #20
 800085a:	bf1d      	ittte	ne
 800085c:	ea1c 5513 	andsne.w	r5, ip, r3, lsr #20
 8000860:	ea94 0f0c 	teqne	r4, ip
 8000864:	ea95 0f0c 	teqne	r5, ip
 8000868:	f000 f8a7 	bleq	80009ba <__aeabi_ddiv+0x16e>
 800086c:	eba4 0405 	sub.w	r4, r4, r5
 8000870:	ea81 0e03 	eor.w	lr, r1, r3
 8000874:	ea52 3503 	orrs.w	r5, r2, r3, lsl #12
 8000878:	ea4f 3101 	mov.w	r1, r1, lsl #12
 800087c:	f000 8088 	beq.w	8000990 <__aeabi_ddiv+0x144>
 8000880:	ea4f 3303 	mov.w	r3, r3, lsl #12
 8000884:	f04f 5580 	mov.w	r5, #268435456	; 0x10000000
 8000888:	ea45 1313 	orr.w	r3, r5, r3, lsr #4
 800088c:	ea43 6312 	orr.w	r3, r3, r2, lsr #24
 8000890:	ea4f 2202 	mov.w	r2, r2, lsl #8
 8000894:	ea45 1511 	orr.w	r5, r5, r1, lsr #4
 8000898:	ea45 6510 	orr.w	r5, r5, r0, lsr #24
 800089c:	ea4f 2600 	mov.w	r6, r0, lsl #8
 80008a0:	f00e 4100 	and.w	r1, lr, #2147483648	; 0x80000000
 80008a4:	429d      	cmp	r5, r3
 80008a6:	bf08      	it	eq
 80008a8:	4296      	cmpeq	r6, r2
 80008aa:	f144 04fd 	adc.w	r4, r4, #253	; 0xfd
 80008ae:	f504 7440 	add.w	r4, r4, #768	; 0x300
 80008b2:	d202      	bcs.n	80008ba <__aeabi_ddiv+0x6e>
 80008b4:	085b      	lsrs	r3, r3, #1
 80008b6:	ea4f 0232 	mov.w	r2, r2, rrx
 80008ba:	1ab6      	subs	r6, r6, r2
 80008bc:	eb65 0503 	sbc.w	r5, r5, r3
 80008c0:	085b      	lsrs	r3, r3, #1
 80008c2:	ea4f 0232 	mov.w	r2, r2, rrx
 80008c6:	f44f 1080 	mov.w	r0, #1048576	; 0x100000
 80008ca:	f44f 2c00 	mov.w	ip, #524288	; 0x80000
 80008ce:	ebb6 0e02 	subs.w	lr, r6, r2
 80008d2:	eb75 0e03 	sbcs.w	lr, r5, r3
 80008d6:	bf22      	ittt	cs
 80008d8:	1ab6      	subcs	r6, r6, r2
 80008da:	4675      	movcs	r5, lr
 80008dc:	ea40 000c 	orrcs.w	r0, r0, ip
 80008e0:	085b      	lsrs	r3, r3, #1
 80008e2:	ea4f 0232 	mov.w	r2, r2, rrx
 80008e6:	ebb6 0e02 	subs.w	lr, r6, r2
 80008ea:	eb75 0e03 	sbcs.w	lr, r5, r3
 80008ee:	bf22      	ittt	cs
 80008f0:	1ab6      	subcs	r6, r6, r2
 80008f2:	4675      	movcs	r5, lr
 80008f4:	ea40 005c 	orrcs.w	r0, r0, ip, lsr #1
 80008f8:	085b      	lsrs	r3, r3, #1
 80008fa:	ea4f 0232 	mov.w	r2, r2, rrx
 80008fe:	ebb6 0e02 	subs.w	lr, r6, r2
 8000902:	eb75 0e03 	sbcs.w	lr, r5, r3
 8000906:	bf22      	ittt	cs
 8000908:	1ab6      	subcs	r6, r6, r2
 800090a:	4675      	movcs	r5, lr
 800090c:	ea40 009c 	orrcs.w	r0, r0, ip, lsr #2
 8000910:	085b      	lsrs	r3, r3, #1
 8000912:	ea4f 0232 	mov.w	r2, r2, rrx
 8000916:	ebb6 0e02 	subs.w	lr, r6, r2
 800091a:	eb75 0e03 	sbcs.w	lr, r5, r3
 800091e:	bf22      	ittt	cs
 8000920:	1ab6      	subcs	r6, r6, r2
 8000922:	4675      	movcs	r5, lr
 8000924:	ea40 00dc 	orrcs.w	r0, r0, ip, lsr #3
 8000928:	ea55 0e06 	orrs.w	lr, r5, r6
 800092c:	d018      	beq.n	8000960 <__aeabi_ddiv+0x114>
 800092e:	ea4f 1505 	mov.w	r5, r5, lsl #4
 8000932:	ea45 7516 	orr.w	r5, r5, r6, lsr #28
 8000936:	ea4f 1606 	mov.w	r6, r6, lsl #4
 800093a:	ea4f 03c3 	mov.w	r3, r3, lsl #3
 800093e:	ea43 7352 	orr.w	r3, r3, r2, lsr #29
 8000942:	ea4f 02c2 	mov.w	r2, r2, lsl #3
 8000946:	ea5f 1c1c 	movs.w	ip, ip, lsr #4
 800094a:	d1c0      	bne.n	80008ce <__aeabi_ddiv+0x82>
 800094c:	f411 1f80 	tst.w	r1, #1048576	; 0x100000
 8000950:	d10b      	bne.n	800096a <__aeabi_ddiv+0x11e>
 8000952:	ea41 0100 	orr.w	r1, r1, r0
 8000956:	f04f 0000 	mov.w	r0, #0
 800095a:	f04f 4c00 	mov.w	ip, #2147483648	; 0x80000000
 800095e:	e7b6      	b.n	80008ce <__aeabi_ddiv+0x82>
 8000960:	f411 1f80 	tst.w	r1, #1048576	; 0x100000
 8000964:	bf04      	itt	eq
 8000966:	4301      	orreq	r1, r0
 8000968:	2000      	moveq	r0, #0
 800096a:	f1b4 0cfd 	subs.w	ip, r4, #253	; 0xfd
 800096e:	bf88      	it	hi
 8000970:	f5bc 6fe0 	cmphi.w	ip, #1792	; 0x700
 8000974:	f63f aeaf 	bhi.w	80006d6 <__aeabi_dmul+0xde>
 8000978:	ebb5 0c03 	subs.w	ip, r5, r3
 800097c:	bf04      	itt	eq
 800097e:	ebb6 0c02 	subseq.w	ip, r6, r2
 8000982:	ea5f 0c50 	movseq.w	ip, r0, lsr #1
 8000986:	f150 0000 	adcs.w	r0, r0, #0
 800098a:	eb41 5104 	adc.w	r1, r1, r4, lsl #20
 800098e:	bd70      	pop	{r4, r5, r6, pc}
 8000990:	f00e 4e00 	and.w	lr, lr, #2147483648	; 0x80000000
 8000994:	ea4e 3111 	orr.w	r1, lr, r1, lsr #12
 8000998:	eb14 045c 	adds.w	r4, r4, ip, lsr #1
 800099c:	bfc2      	ittt	gt
 800099e:	ebd4 050c 	rsbsgt	r5, r4, ip
 80009a2:	ea41 5104 	orrgt.w	r1, r1, r4, lsl #20
 80009a6:	bd70      	popgt	{r4, r5, r6, pc}
 80009a8:	f441 1180 	orr.w	r1, r1, #1048576	; 0x100000
 80009ac:	f04f 0e00 	mov.w	lr, #0
 80009b0:	3c01      	subs	r4, #1
 80009b2:	e690      	b.n	80006d6 <__aeabi_dmul+0xde>
 80009b4:	ea45 0e06 	orr.w	lr, r5, r6
 80009b8:	e68d      	b.n	80006d6 <__aeabi_dmul+0xde>
 80009ba:	ea0c 5513 	and.w	r5, ip, r3, lsr #20
 80009be:	ea94 0f0c 	teq	r4, ip
 80009c2:	bf08      	it	eq
 80009c4:	ea95 0f0c 	teqeq	r5, ip
 80009c8:	f43f af3b 	beq.w	8000842 <__aeabi_dmul+0x24a>
 80009cc:	ea94 0f0c 	teq	r4, ip
 80009d0:	d10a      	bne.n	80009e8 <__aeabi_ddiv+0x19c>
 80009d2:	ea50 3401 	orrs.w	r4, r0, r1, lsl #12
 80009d6:	f47f af34 	bne.w	8000842 <__aeabi_dmul+0x24a>
 80009da:	ea95 0f0c 	teq	r5, ip
 80009de:	f47f af25 	bne.w	800082c <__aeabi_dmul+0x234>
 80009e2:	4610      	mov	r0, r2
 80009e4:	4619      	mov	r1, r3
 80009e6:	e72c      	b.n	8000842 <__aeabi_dmul+0x24a>
 80009e8:	ea95 0f0c 	teq	r5, ip
 80009ec:	d106      	bne.n	80009fc <__aeabi_ddiv+0x1b0>
 80009ee:	ea52 3503 	orrs.w	r5, r2, r3, lsl #12
 80009f2:	f43f aefd 	beq.w	80007f0 <__aeabi_dmul+0x1f8>
 80009f6:	4610      	mov	r0, r2
 80009f8:	4619      	mov	r1, r3
 80009fa:	e722      	b.n	8000842 <__aeabi_dmul+0x24a>
 80009fc:	ea50 0641 	orrs.w	r6, r0, r1, lsl #1
 8000a00:	bf18      	it	ne
 8000a02:	ea52 0643 	orrsne.w	r6, r2, r3, lsl #1
 8000a06:	f47f aec5 	bne.w	8000794 <__aeabi_dmul+0x19c>
 8000a0a:	ea50 0441 	orrs.w	r4, r0, r1, lsl #1
 8000a0e:	f47f af0d 	bne.w	800082c <__aeabi_dmul+0x234>
 8000a12:	ea52 0543 	orrs.w	r5, r2, r3, lsl #1
 8000a16:	f47f aeeb 	bne.w	80007f0 <__aeabi_dmul+0x1f8>
 8000a1a:	e712      	b.n	8000842 <__aeabi_dmul+0x24a>

08000a1c <__gedf2>:
 8000a1c:	f04f 3cff 	mov.w	ip, #4294967295	; 0xffffffff
 8000a20:	e006      	b.n	8000a30 <__cmpdf2+0x4>
 8000a22:	bf00      	nop

08000a24 <__ledf2>:
 8000a24:	f04f 0c01 	mov.w	ip, #1
 8000a28:	e002      	b.n	8000a30 <__cmpdf2+0x4>
 8000a2a:	bf00      	nop

08000a2c <__cmpdf2>:
 8000a2c:	f04f 0c01 	mov.w	ip, #1
 8000a30:	f84d cd04 	str.w	ip, [sp, #-4]!
 8000a34:	ea4f 0c41 	mov.w	ip, r1, lsl #1
 8000a38:	ea7f 5c6c 	mvns.w	ip, ip, asr #21
 8000a3c:	ea4f 0c43 	mov.w	ip, r3, lsl #1
 8000a40:	bf18      	it	ne
 8000a42:	ea7f 5c6c 	mvnsne.w	ip, ip, asr #21
 8000a46:	d01b      	beq.n	8000a80 <__cmpdf2+0x54>
 8000a48:	b001      	add	sp, #4
 8000a4a:	ea50 0c41 	orrs.w	ip, r0, r1, lsl #1
 8000a4e:	bf0c      	ite	eq
 8000a50:	ea52 0c43 	orrseq.w	ip, r2, r3, lsl #1
 8000a54:	ea91 0f03 	teqne	r1, r3
 8000a58:	bf02      	ittt	eq
 8000a5a:	ea90 0f02 	teqeq	r0, r2
 8000a5e:	2000      	moveq	r0, #0
 8000a60:	4770      	bxeq	lr
 8000a62:	f110 0f00 	cmn.w	r0, #0
 8000a66:	ea91 0f03 	teq	r1, r3
 8000a6a:	bf58      	it	pl
 8000a6c:	4299      	cmppl	r1, r3
 8000a6e:	bf08      	it	eq
 8000a70:	4290      	cmpeq	r0, r2
 8000a72:	bf2c      	ite	cs
 8000a74:	17d8      	asrcs	r0, r3, #31
 8000a76:	ea6f 70e3 	mvncc.w	r0, r3, asr #31
 8000a7a:	f040 0001 	orr.w	r0, r0, #1
 8000a7e:	4770      	bx	lr
 8000a80:	ea4f 0c41 	mov.w	ip, r1, lsl #1
 8000a84:	ea7f 5c6c 	mvns.w	ip, ip, asr #21
 8000a88:	d102      	bne.n	8000a90 <__cmpdf2+0x64>
 8000a8a:	ea50 3c01 	orrs.w	ip, r0, r1, lsl #12
 8000a8e:	d107      	bne.n	8000aa0 <__cmpdf2+0x74>
 8000a90:	ea4f 0c43 	mov.w	ip, r3, lsl #1
 8000a94:	ea7f 5c6c 	mvns.w	ip, ip, asr #21
 8000a98:	d1d6      	bne.n	8000a48 <__cmpdf2+0x1c>
 8000a9a:	ea52 3c03 	orrs.w	ip, r2, r3, lsl #12
 8000a9e:	d0d3      	beq.n	8000a48 <__cmpdf2+0x1c>
 8000aa0:	f85d 0b04 	ldr.w	r0, [sp], #4
 8000aa4:	4770      	bx	lr
 8000aa6:	bf00      	nop

08000aa8 <__aeabi_cdrcmple>:
 8000aa8:	4684      	mov	ip, r0
 8000aaa:	4610      	mov	r0, r2
 8000aac:	4662      	mov	r2, ip
 8000aae:	468c      	mov	ip, r1
 8000ab0:	4619      	mov	r1, r3
 8000ab2:	4663      	mov	r3, ip
 8000ab4:	e000      	b.n	8000ab8 <__aeabi_cdcmpeq>
 8000ab6:	bf00      	nop

08000ab8 <__aeabi_cdcmpeq>:
 8000ab8:	b501      	push	{r0, lr}
 8000aba:	f7ff ffb7 	bl	8000a2c <__cmpdf2>
 8000abe:	2800      	cmp	r0, #0
 8000ac0:	bf48      	it	mi
 8000ac2:	f110 0f00 	cmnmi.w	r0, #0
 8000ac6:	bd01      	pop	{r0, pc}

08000ac8 <__aeabi_dcmpeq>:
 8000ac8:	f84d ed08 	str.w	lr, [sp, #-8]!
 8000acc:	f7ff fff4 	bl	8000ab8 <__aeabi_cdcmpeq>
 8000ad0:	bf0c      	ite	eq
 8000ad2:	2001      	moveq	r0, #1
 8000ad4:	2000      	movne	r0, #0
 8000ad6:	f85d fb08 	ldr.w	pc, [sp], #8
 8000ada:	bf00      	nop

08000adc <__aeabi_dcmplt>:
 8000adc:	f84d ed08 	str.w	lr, [sp, #-8]!
 8000ae0:	f7ff ffea 	bl	8000ab8 <__aeabi_cdcmpeq>
 8000ae4:	bf34      	ite	cc
 8000ae6:	2001      	movcc	r0, #1
 8000ae8:	2000      	movcs	r0, #0
 8000aea:	f85d fb08 	ldr.w	pc, [sp], #8
 8000aee:	bf00      	nop

08000af0 <__aeabi_dcmple>:
 8000af0:	f84d ed08 	str.w	lr, [sp, #-8]!
 8000af4:	f7ff ffe0 	bl	8000ab8 <__aeabi_cdcmpeq>
 8000af8:	bf94      	ite	ls
 8000afa:	2001      	movls	r0, #1
 8000afc:	2000      	movhi	r0, #0
 8000afe:	f85d fb08 	ldr.w	pc, [sp], #8
 8000b02:	bf00      	nop

08000b04 <__aeabi_dcmpge>:
 8000b04:	f84d ed08 	str.w	lr, [sp, #-8]!
 8000b08:	f7ff ffce 	bl	8000aa8 <__aeabi_cdrcmple>
 8000b0c:	bf94      	ite	ls
 8000b0e:	2001      	movls	r0, #1
 8000b10:	2000      	movhi	r0, #0
 8000b12:	f85d fb08 	ldr.w	pc, [sp], #8
 8000b16:	bf00      	nop

08000b18 <__aeabi_dcmpgt>:
 8000b18:	f84d ed08 	str.w	lr, [sp, #-8]!
 8000b1c:	f7ff ffc4 	bl	8000aa8 <__aeabi_cdrcmple>
 8000b20:	bf34      	ite	cc
 8000b22:	2001      	movcc	r0, #1
 8000b24:	2000      	movcs	r0, #0
 8000b26:	f85d fb08 	ldr.w	pc, [sp], #8
 8000b2a:	bf00      	nop

08000b2c <__aeabi_dcmpun>:
 8000b2c:	ea4f 0c41 	mov.w	ip, r1, lsl #1
 8000b30:	ea7f 5c6c 	mvns.w	ip, ip, asr #21
 8000b34:	d102      	bne.n	8000b3c <__aeabi_dcmpun+0x10>
 8000b36:	ea50 3c01 	orrs.w	ip, r0, r1, lsl #12
 8000b3a:	d10a      	bne.n	8000b52 <__aeabi_dcmpun+0x26>
 8000b3c:	ea4f 0c43 	mov.w	ip, r3, lsl #1
 8000b40:	ea7f 5c6c 	mvns.w	ip, ip, asr #21
 8000b44:	d102      	bne.n	8000b4c <__aeabi_dcmpun+0x20>
 8000b46:	ea52 3c03 	orrs.w	ip, r2, r3, lsl #12
 8000b4a:	d102      	bne.n	8000b52 <__aeabi_dcmpun+0x26>
 8000b4c:	f04f 0000 	mov.w	r0, #0
 8000b50:	4770      	bx	lr
 8000b52:	f04f 0001 	mov.w	r0, #1
 8000b56:	4770      	bx	lr

08000b58 <__aeabi_d2iz>:
 8000b58:	ea4f 0241 	mov.w	r2, r1, lsl #1
 8000b5c:	f512 1200 	adds.w	r2, r2, #2097152	; 0x200000
 8000b60:	d215      	bcs.n	8000b8e <__aeabi_d2iz+0x36>
 8000b62:	d511      	bpl.n	8000b88 <__aeabi_d2iz+0x30>
 8000b64:	f46f 7378 	mvn.w	r3, #992	; 0x3e0
 8000b68:	ebb3 5262 	subs.w	r2, r3, r2, asr #21
 8000b6c:	d912      	bls.n	8000b94 <__aeabi_d2iz+0x3c>
 8000b6e:	ea4f 23c1 	mov.w	r3, r1, lsl #11
 8000b72:	f043 4300 	orr.w	r3, r3, #2147483648	; 0x80000000
 8000b76:	ea43 5350 	orr.w	r3, r3, r0, lsr #21
 8000b7a:	f011 4f00 	tst.w	r1, #2147483648	; 0x80000000
 8000b7e:	fa23 f002 	lsr.w	r0, r3, r2
 8000b82:	bf18      	it	ne
 8000b84:	4240      	negne	r0, r0
 8000b86:	4770      	bx	lr
 8000b88:	f04f 0000 	mov.w	r0, #0
 8000b8c:	4770      	bx	lr
 8000b8e:	ea50 3001 	orrs.w	r0, r0, r1, lsl #12
 8000b92:	d105      	bne.n	8000ba0 <__aeabi_d2iz+0x48>
 8000b94:	f011 4000 	ands.w	r0, r1, #2147483648	; 0x80000000
 8000b98:	bf08      	it	eq
 8000b9a:	f06f 4000 	mvneq.w	r0, #2147483648	; 0x80000000
 8000b9e:	4770      	bx	lr
 8000ba0:	f04f 0000 	mov.w	r0, #0
 8000ba4:	4770      	bx	lr
 8000ba6:	bf00      	nop

08000ba8 <__aeabi_uldivmod>:
 8000ba8:	b953      	cbnz	r3, 8000bc0 <__aeabi_uldivmod+0x18>
 8000baa:	b94a      	cbnz	r2, 8000bc0 <__aeabi_uldivmod+0x18>
 8000bac:	2900      	cmp	r1, #0
 8000bae:	bf08      	it	eq
 8000bb0:	2800      	cmpeq	r0, #0
 8000bb2:	bf1c      	itt	ne
 8000bb4:	f04f 31ff 	movne.w	r1, #4294967295	; 0xffffffff
 8000bb8:	f04f 30ff 	movne.w	r0, #4294967295	; 0xffffffff
 8000bbc:	f000 b970 	b.w	8000ea0 <__aeabi_idiv0>
 8000bc0:	f1ad 0c08 	sub.w	ip, sp, #8
 8000bc4:	e96d ce04 	strd	ip, lr, [sp, #-16]!
 8000bc8:	f000 f806 	bl	8000bd8 <__udivmoddi4>
 8000bcc:	f8dd e004 	ldr.w	lr, [sp, #4]
 8000bd0:	e9dd 2302 	ldrd	r2, r3, [sp, #8]
 8000bd4:	b004      	add	sp, #16
 8000bd6:	4770      	bx	lr

08000bd8 <__udivmoddi4>:
 8000bd8:	e92d 47f0 	stmdb	sp!, {r4, r5, r6, r7, r8, r9, sl, lr}
 8000bdc:	9e08      	ldr	r6, [sp, #32]
 8000bde:	460d      	mov	r5, r1
 8000be0:	4604      	mov	r4, r0
 8000be2:	460f      	mov	r7, r1
 8000be4:	2b00      	cmp	r3, #0
 8000be6:	d14a      	bne.n	8000c7e <__udivmoddi4+0xa6>
 8000be8:	428a      	cmp	r2, r1
 8000bea:	4694      	mov	ip, r2
 8000bec:	d965      	bls.n	8000cba <__udivmoddi4+0xe2>
 8000bee:	fab2 f382 	clz	r3, r2
 8000bf2:	b143      	cbz	r3, 8000c06 <__udivmoddi4+0x2e>
 8000bf4:	fa02 fc03 	lsl.w	ip, r2, r3
 8000bf8:	f1c3 0220 	rsb	r2, r3, #32
 8000bfc:	409f      	lsls	r7, r3
 8000bfe:	fa20 f202 	lsr.w	r2, r0, r2
 8000c02:	4317      	orrs	r7, r2
 8000c04:	409c      	lsls	r4, r3
 8000c06:	ea4f 4e1c 	mov.w	lr, ip, lsr #16
 8000c0a:	fa1f f58c 	uxth.w	r5, ip
 8000c0e:	fbb7 f1fe 	udiv	r1, r7, lr
 8000c12:	0c22      	lsrs	r2, r4, #16
 8000c14:	fb0e 7711 	mls	r7, lr, r1, r7
 8000c18:	ea42 4207 	orr.w	r2, r2, r7, lsl #16
 8000c1c:	fb01 f005 	mul.w	r0, r1, r5
 8000c20:	4290      	cmp	r0, r2
 8000c22:	d90a      	bls.n	8000c3a <__udivmoddi4+0x62>
 8000c24:	eb1c 0202 	adds.w	r2, ip, r2
 8000c28:	f101 37ff 	add.w	r7, r1, #4294967295	; 0xffffffff
 8000c2c:	f080 811c 	bcs.w	8000e68 <__udivmoddi4+0x290>
 8000c30:	4290      	cmp	r0, r2
 8000c32:	f240 8119 	bls.w	8000e68 <__udivmoddi4+0x290>
 8000c36:	3902      	subs	r1, #2
 8000c38:	4462      	add	r2, ip
 8000c3a:	1a12      	subs	r2, r2, r0
 8000c3c:	b2a4      	uxth	r4, r4
 8000c3e:	fbb2 f0fe 	udiv	r0, r2, lr
 8000c42:	fb0e 2210 	mls	r2, lr, r0, r2
 8000c46:	ea44 4402 	orr.w	r4, r4, r2, lsl #16
 8000c4a:	fb00 f505 	mul.w	r5, r0, r5
 8000c4e:	42a5      	cmp	r5, r4
 8000c50:	d90a      	bls.n	8000c68 <__udivmoddi4+0x90>
 8000c52:	eb1c 0404 	adds.w	r4, ip, r4
 8000c56:	f100 32ff 	add.w	r2, r0, #4294967295	; 0xffffffff
 8000c5a:	f080 8107 	bcs.w	8000e6c <__udivmoddi4+0x294>
 8000c5e:	42a5      	cmp	r5, r4
 8000c60:	f240 8104 	bls.w	8000e6c <__udivmoddi4+0x294>
 8000c64:	4464      	add	r4, ip
 8000c66:	3802      	subs	r0, #2
 8000c68:	ea40 4001 	orr.w	r0, r0, r1, lsl #16
 8000c6c:	1b64      	subs	r4, r4, r5
 8000c6e:	2100      	movs	r1, #0
 8000c70:	b11e      	cbz	r6, 8000c7a <__udivmoddi4+0xa2>
 8000c72:	40dc      	lsrs	r4, r3
 8000c74:	2300      	movs	r3, #0
 8000c76:	e9c6 4300 	strd	r4, r3, [r6]
 8000c7a:	e8bd 87f0 	ldmia.w	sp!, {r4, r5, r6, r7, r8, r9, sl, pc}
 8000c7e:	428b      	cmp	r3, r1
 8000c80:	d908      	bls.n	8000c94 <__udivmoddi4+0xbc>
 8000c82:	2e00      	cmp	r6, #0
 8000c84:	f000 80ed 	beq.w	8000e62 <__udivmoddi4+0x28a>
 8000c88:	2100      	movs	r1, #0
 8000c8a:	e9c6 0500 	strd	r0, r5, [r6]
 8000c8e:	4608      	mov	r0, r1
 8000c90:	e8bd 87f0 	ldmia.w	sp!, {r4, r5, r6, r7, r8, r9, sl, pc}
 8000c94:	fab3 f183 	clz	r1, r3
 8000c98:	2900      	cmp	r1, #0
 8000c9a:	d149      	bne.n	8000d30 <__udivmoddi4+0x158>
 8000c9c:	42ab      	cmp	r3, r5
 8000c9e:	d302      	bcc.n	8000ca6 <__udivmoddi4+0xce>
 8000ca0:	4282      	cmp	r2, r0
 8000ca2:	f200 80f8 	bhi.w	8000e96 <__udivmoddi4+0x2be>
 8000ca6:	1a84      	subs	r4, r0, r2
 8000ca8:	eb65 0203 	sbc.w	r2, r5, r3
 8000cac:	2001      	movs	r0, #1
 8000cae:	4617      	mov	r7, r2
 8000cb0:	2e00      	cmp	r6, #0
 8000cb2:	d0e2      	beq.n	8000c7a <__udivmoddi4+0xa2>
 8000cb4:	e9c6 4700 	strd	r4, r7, [r6]
 8000cb8:	e7df      	b.n	8000c7a <__udivmoddi4+0xa2>
 8000cba:	b902      	cbnz	r2, 8000cbe <__udivmoddi4+0xe6>
 8000cbc:	deff      	udf	#255	; 0xff
 8000cbe:	fab2 f382 	clz	r3, r2
 8000cc2:	2b00      	cmp	r3, #0
 8000cc4:	f040 8090 	bne.w	8000de8 <__udivmoddi4+0x210>
 8000cc8:	1a8a      	subs	r2, r1, r2
 8000cca:	ea4f 471c 	mov.w	r7, ip, lsr #16
 8000cce:	fa1f fe8c 	uxth.w	lr, ip
 8000cd2:	2101      	movs	r1, #1
 8000cd4:	fbb2 f5f7 	udiv	r5, r2, r7
 8000cd8:	fb07 2015 	mls	r0, r7, r5, r2
 8000cdc:	0c22      	lsrs	r2, r4, #16
 8000cde:	ea42 4200 	orr.w	r2, r2, r0, lsl #16
 8000ce2:	fb0e f005 	mul.w	r0, lr, r5
 8000ce6:	4290      	cmp	r0, r2
 8000ce8:	d908      	bls.n	8000cfc <__udivmoddi4+0x124>
 8000cea:	eb1c 0202 	adds.w	r2, ip, r2
 8000cee:	f105 38ff 	add.w	r8, r5, #4294967295	; 0xffffffff
 8000cf2:	d202      	bcs.n	8000cfa <__udivmoddi4+0x122>
 8000cf4:	4290      	cmp	r0, r2
 8000cf6:	f200 80cb 	bhi.w	8000e90 <__udivmoddi4+0x2b8>
 8000cfa:	4645      	mov	r5, r8
 8000cfc:	1a12      	subs	r2, r2, r0
 8000cfe:	b2a4      	uxth	r4, r4
 8000d00:	fbb2 f0f7 	udiv	r0, r2, r7
 8000d04:	fb07 2210 	mls	r2, r7, r0, r2
 8000d08:	ea44 4402 	orr.w	r4, r4, r2, lsl #16
 8000d0c:	fb0e fe00 	mul.w	lr, lr, r0
 8000d10:	45a6      	cmp	lr, r4
 8000d12:	d908      	bls.n	8000d26 <__udivmoddi4+0x14e>
 8000d14:	eb1c 0404 	adds.w	r4, ip, r4
 8000d18:	f100 32ff 	add.w	r2, r0, #4294967295	; 0xffffffff
 8000d1c:	d202      	bcs.n	8000d24 <__udivmoddi4+0x14c>
 8000d1e:	45a6      	cmp	lr, r4
 8000d20:	f200 80bb 	bhi.w	8000e9a <__udivmoddi4+0x2c2>
 8000d24:	4610      	mov	r0, r2
 8000d26:	eba4 040e 	sub.w	r4, r4, lr
 8000d2a:	ea40 4005 	orr.w	r0, r0, r5, lsl #16
 8000d2e:	e79f      	b.n	8000c70 <__udivmoddi4+0x98>
 8000d30:	f1c1 0720 	rsb	r7, r1, #32
 8000d34:	408b      	lsls	r3, r1
 8000d36:	fa22 fc07 	lsr.w	ip, r2, r7
 8000d3a:	ea4c 0c03 	orr.w	ip, ip, r3
 8000d3e:	fa05 f401 	lsl.w	r4, r5, r1
 8000d42:	fa20 f307 	lsr.w	r3, r0, r7
 8000d46:	40fd      	lsrs	r5, r7
 8000d48:	ea4f 491c 	mov.w	r9, ip, lsr #16
 8000d4c:	4323      	orrs	r3, r4
 8000d4e:	fbb5 f8f9 	udiv	r8, r5, r9
 8000d52:	fa1f fe8c 	uxth.w	lr, ip
 8000d56:	fb09 5518 	mls	r5, r9, r8, r5
 8000d5a:	0c1c      	lsrs	r4, r3, #16
 8000d5c:	ea44 4405 	orr.w	r4, r4, r5, lsl #16
 8000d60:	fb08 f50e 	mul.w	r5, r8, lr
 8000d64:	42a5      	cmp	r5, r4
 8000d66:	fa02 f201 	lsl.w	r2, r2, r1
 8000d6a:	fa00 f001 	lsl.w	r0, r0, r1
 8000d6e:	d90b      	bls.n	8000d88 <__udivmoddi4+0x1b0>
 8000d70:	eb1c 0404 	adds.w	r4, ip, r4
 8000d74:	f108 3aff 	add.w	sl, r8, #4294967295	; 0xffffffff
 8000d78:	f080 8088 	bcs.w	8000e8c <__udivmoddi4+0x2b4>
 8000d7c:	42a5      	cmp	r5, r4
 8000d7e:	f240 8085 	bls.w	8000e8c <__udivmoddi4+0x2b4>
 8000d82:	f1a8 0802 	sub.w	r8, r8, #2
 8000d86:	4464      	add	r4, ip
 8000d88:	1b64      	subs	r4, r4, r5
 8000d8a:	b29d      	uxth	r5, r3
 8000d8c:	fbb4 f3f9 	udiv	r3, r4, r9
 8000d90:	fb09 4413 	mls	r4, r9, r3, r4
 8000d94:	ea45 4404 	orr.w	r4, r5, r4, lsl #16
 8000d98:	fb03 fe0e 	mul.w	lr, r3, lr
 8000d9c:	45a6      	cmp	lr, r4
 8000d9e:	d908      	bls.n	8000db2 <__udivmoddi4+0x1da>
 8000da0:	eb1c 0404 	adds.w	r4, ip, r4
 8000da4:	f103 35ff 	add.w	r5, r3, #4294967295	; 0xffffffff
 8000da8:	d26c      	bcs.n	8000e84 <__udivmoddi4+0x2ac>
 8000daa:	45a6      	cmp	lr, r4
 8000dac:	d96a      	bls.n	8000e84 <__udivmoddi4+0x2ac>
 8000dae:	3b02      	subs	r3, #2
 8000db0:	4464      	add	r4, ip
 8000db2:	ea43 4308 	orr.w	r3, r3, r8, lsl #16
 8000db6:	fba3 9502 	umull	r9, r5, r3, r2
 8000dba:	eba4 040e 	sub.w	r4, r4, lr
 8000dbe:	42ac      	cmp	r4, r5
 8000dc0:	46c8      	mov	r8, r9
 8000dc2:	46ae      	mov	lr, r5
 8000dc4:	d356      	bcc.n	8000e74 <__udivmoddi4+0x29c>
 8000dc6:	d053      	beq.n	8000e70 <__udivmoddi4+0x298>
 8000dc8:	b156      	cbz	r6, 8000de0 <__udivmoddi4+0x208>
 8000dca:	ebb0 0208 	subs.w	r2, r0, r8
 8000dce:	eb64 040e 	sbc.w	r4, r4, lr
 8000dd2:	fa04 f707 	lsl.w	r7, r4, r7
 8000dd6:	40ca      	lsrs	r2, r1
 8000dd8:	40cc      	lsrs	r4, r1
 8000dda:	4317      	orrs	r7, r2
 8000ddc:	e9c6 7400 	strd	r7, r4, [r6]
 8000de0:	4618      	mov	r0, r3
 8000de2:	2100      	movs	r1, #0
 8000de4:	e8bd 87f0 	ldmia.w	sp!, {r4, r5, r6, r7, r8, r9, sl, pc}
 8000de8:	f1c3 0120 	rsb	r1, r3, #32
 8000dec:	fa02 fc03 	lsl.w	ip, r2, r3
 8000df0:	fa20 f201 	lsr.w	r2, r0, r1
 8000df4:	fa25 f101 	lsr.w	r1, r5, r1
 8000df8:	409d      	lsls	r5, r3
 8000dfa:	432a      	orrs	r2, r5
 8000dfc:	ea4f 471c 	mov.w	r7, ip, lsr #16
 8000e00:	fa1f fe8c 	uxth.w	lr, ip
 8000e04:	fbb1 f0f7 	udiv	r0, r1, r7
 8000e08:	fb07 1510 	mls	r5, r7, r0, r1
 8000e0c:	0c11      	lsrs	r1, r2, #16
 8000e0e:	ea41 4105 	orr.w	r1, r1, r5, lsl #16
 8000e12:	fb00 f50e 	mul.w	r5, r0, lr
 8000e16:	428d      	cmp	r5, r1
 8000e18:	fa04 f403 	lsl.w	r4, r4, r3
 8000e1c:	d908      	bls.n	8000e30 <__udivmoddi4+0x258>
 8000e1e:	eb1c 0101 	adds.w	r1, ip, r1
 8000e22:	f100 38ff 	add.w	r8, r0, #4294967295	; 0xffffffff
 8000e26:	d22f      	bcs.n	8000e88 <__udivmoddi4+0x2b0>
 8000e28:	428d      	cmp	r5, r1
 8000e2a:	d92d      	bls.n	8000e88 <__udivmoddi4+0x2b0>
 8000e2c:	3802      	subs	r0, #2
 8000e2e:	4461      	add	r1, ip
 8000e30:	1b49      	subs	r1, r1, r5
 8000e32:	b292      	uxth	r2, r2
 8000e34:	fbb1 f5f7 	udiv	r5, r1, r7
 8000e38:	fb07 1115 	mls	r1, r7, r5, r1
 8000e3c:	ea42 4201 	orr.w	r2, r2, r1, lsl #16
 8000e40:	fb05 f10e 	mul.w	r1, r5, lr
 8000e44:	4291      	cmp	r1, r2
 8000e46:	d908      	bls.n	8000e5a <__udivmoddi4+0x282>
 8000e48:	eb1c 0202 	adds.w	r2, ip, r2
 8000e4c:	f105 38ff 	add.w	r8, r5, #4294967295	; 0xffffffff
 8000e50:	d216      	bcs.n	8000e80 <__udivmoddi4+0x2a8>
 8000e52:	4291      	cmp	r1, r2
 8000e54:	d914      	bls.n	8000e80 <__udivmoddi4+0x2a8>
 8000e56:	3d02      	subs	r5, #2
 8000e58:	4462      	add	r2, ip
 8000e5a:	1a52      	subs	r2, r2, r1
 8000e5c:	ea45 4100 	orr.w	r1, r5, r0, lsl #16
 8000e60:	e738      	b.n	8000cd4 <__udivmoddi4+0xfc>
 8000e62:	4631      	mov	r1, r6
 8000e64:	4630      	mov	r0, r6
 8000e66:	e708      	b.n	8000c7a <__udivmoddi4+0xa2>
 8000e68:	4639      	mov	r1, r7
 8000e6a:	e6e6      	b.n	8000c3a <__udivmoddi4+0x62>
 8000e6c:	4610      	mov	r0, r2
 8000e6e:	e6fb      	b.n	8000c68 <__udivmoddi4+0x90>
 8000e70:	4548      	cmp	r0, r9
 8000e72:	d2a9      	bcs.n	8000dc8 <__udivmoddi4+0x1f0>
 8000e74:	ebb9 0802 	subs.w	r8, r9, r2
 8000e78:	eb65 0e0c 	sbc.w	lr, r5, ip
 8000e7c:	3b01      	subs	r3, #1
 8000e7e:	e7a3      	b.n	8000dc8 <__udivmoddi4+0x1f0>
 8000e80:	4645      	mov	r5, r8
 8000e82:	e7ea      	b.n	8000e5a <__udivmoddi4+0x282>
 8000e84:	462b      	mov	r3, r5
 8000e86:	e794      	b.n	8000db2 <__udivmoddi4+0x1da>
 8000e88:	4640      	mov	r0, r8
 8000e8a:	e7d1      	b.n	8000e30 <__udivmoddi4+0x258>
 8000e8c:	46d0      	mov	r8, sl
 8000e8e:	e77b      	b.n	8000d88 <__udivmoddi4+0x1b0>
 8000e90:	3d02      	subs	r5, #2
 8000e92:	4462      	add	r2, ip
 8000e94:	e732      	b.n	8000cfc <__udivmoddi4+0x124>
 8000e96:	4608      	mov	r0, r1
 8000e98:	e70a      	b.n	8000cb0 <__udivmoddi4+0xd8>
 8000e9a:	4464      	add	r4, ip
 8000e9c:	3802      	subs	r0, #2
 8000e9e:	e742      	b.n	8000d26 <__udivmoddi4+0x14e>

08000ea0 <__aeabi_idiv0>:
 8000ea0:	4770      	bx	lr
 8000ea2:	bf00      	nop

08000ea4 <ADXL345_Init>:
 8000ea4:	e92d 41f0 	stmdb	sp!, {r4, r5, r6, r7, r8, lr}
 8000ea8:	4d16      	ldr	r5, [pc, #88]	; (8000f04 <ADXL345_Init+0x60>)
 8000eaa:	b086      	sub	sp, #24
 8000eac:	2401      	movs	r4, #1
 8000eae:	f44f 777a 	mov.w	r7, #1000	; 0x3e8
 8000eb2:	f10d 0617 	add.w	r6, sp, #23
 8000eb6:	f04f 0808 	mov.w	r8, #8
 8000eba:	4623      	mov	r3, r4
 8000ebc:	e9cd 4701 	strd	r4, r7, [sp, #4]
 8000ec0:	9600      	str	r6, [sp, #0]
 8000ec2:	222d      	movs	r2, #45	; 0x2d
 8000ec4:	21a6      	movs	r1, #166	; 0xa6
 8000ec6:	4628      	mov	r0, r5
 8000ec8:	f88d 8017 	strb.w	r8, [sp, #23]
 8000ecc:	f001 fc78 	bl	80027c0 <HAL_I2C_Mem_Write>
 8000ed0:	4623      	mov	r3, r4
 8000ed2:	e9cd 4701 	strd	r4, r7, [sp, #4]
 8000ed6:	9600      	str	r6, [sp, #0]
 8000ed8:	2231      	movs	r2, #49	; 0x31
 8000eda:	21a6      	movs	r1, #166	; 0xa6
 8000edc:	4628      	mov	r0, r5
 8000ede:	f88d 8017 	strb.w	r8, [sp, #23]
 8000ee2:	f001 fc6d 	bl	80027c0 <HAL_I2C_Mem_Write>
 8000ee6:	2303      	movs	r3, #3
 8000ee8:	f88d 3017 	strb.w	r3, [sp, #23]
 8000eec:	e9cd 4701 	strd	r4, r7, [sp, #4]
 8000ef0:	9600      	str	r6, [sp, #0]
 8000ef2:	4623      	mov	r3, r4
 8000ef4:	222c      	movs	r2, #44	; 0x2c
 8000ef6:	21a6      	movs	r1, #166	; 0xa6
 8000ef8:	4628      	mov	r0, r5
 8000efa:	f001 fc61 	bl	80027c0 <HAL_I2C_Mem_Write>
 8000efe:	b006      	add	sp, #24
 8000f00:	e8bd 81f0 	ldmia.w	sp!, {r4, r5, r6, r7, r8, pc}
 8000f04:	2000020c 	.word	0x2000020c

08000f08 <ADXL345_WakeUp>:
 8000f08:	b570      	push	{r4, r5, r6, lr}
 8000f0a:	b086      	sub	sp, #24
 8000f0c:	2300      	movs	r3, #0
 8000f0e:	2401      	movs	r4, #1
 8000f10:	f44f 767a 	mov.w	r6, #1000	; 0x3e8
 8000f14:	f10d 0517 	add.w	r5, sp, #23
 8000f18:	f88d 3017 	strb.w	r3, [sp, #23]
 8000f1c:	e9cd 4601 	strd	r4, r6, [sp, #4]
 8000f20:	4814      	ldr	r0, [pc, #80]	; (8000f74 <ADXL345_WakeUp+0x6c>)
 8000f22:	9500      	str	r5, [sp, #0]
 8000f24:	4623      	mov	r3, r4
 8000f26:	222d      	movs	r2, #45	; 0x2d
 8000f28:	21a6      	movs	r1, #166	; 0xa6
 8000f2a:	f001 fc49 	bl	80027c0 <HAL_I2C_Mem_Write>
 8000f2e:	b140      	cbz	r0, 8000f42 <ADXL345_WakeUp+0x3a>
 8000f30:	4911      	ldr	r1, [pc, #68]	; (8000f78 <ADXL345_WakeUp+0x70>)
 8000f32:	f04f 33ff 	mov.w	r3, #4294967295	; 0xffffffff
 8000f36:	2222      	movs	r2, #34	; 0x22
 8000f38:	4810      	ldr	r0, [pc, #64]	; (8000f7c <ADXL345_WakeUp+0x74>)
 8000f3a:	f003 f8b1 	bl	80040a0 <HAL_UART_Transmit>
 8000f3e:	b006      	add	sp, #24
 8000f40:	bd70      	pop	{r4, r5, r6, pc}
 8000f42:	200a      	movs	r0, #10
 8000f44:	f000 ff5e 	bl	8001e04 <HAL_Delay>
 8000f48:	2308      	movs	r3, #8
 8000f4a:	f88d 3017 	strb.w	r3, [sp, #23]
 8000f4e:	e9cd 4601 	strd	r4, r6, [sp, #4]
 8000f52:	4623      	mov	r3, r4
 8000f54:	4807      	ldr	r0, [pc, #28]	; (8000f74 <ADXL345_WakeUp+0x6c>)
 8000f56:	9500      	str	r5, [sp, #0]
 8000f58:	222d      	movs	r2, #45	; 0x2d
 8000f5a:	21a6      	movs	r1, #166	; 0xa6
 8000f5c:	f001 fc30 	bl	80027c0 <HAL_I2C_Mem_Write>
 8000f60:	f04f 33ff 	mov.w	r3, #4294967295	; 0xffffffff
 8000f64:	b110      	cbz	r0, 8000f6c <ADXL345_WakeUp+0x64>
 8000f66:	4906      	ldr	r1, [pc, #24]	; (8000f80 <ADXL345_WakeUp+0x78>)
 8000f68:	222a      	movs	r2, #42	; 0x2a
 8000f6a:	e7e5      	b.n	8000f38 <ADXL345_WakeUp+0x30>
 8000f6c:	4905      	ldr	r1, [pc, #20]	; (8000f84 <ADXL345_WakeUp+0x7c>)
 8000f6e:	2225      	movs	r2, #37	; 0x25
 8000f70:	e7e2      	b.n	8000f38 <ADXL345_WakeUp+0x30>
 8000f72:	bf00      	nop
 8000f74:	2000020c 	.word	0x2000020c
 8000f78:	080070a8 	.word	0x080070a8
 8000f7c:	20000360 	.word	0x20000360
 8000f80:	080070cb 	.word	0x080070cb
 8000f84:	080070f5 	.word	0x080070f5

08000f88 <ADXL345_Measure>:
 8000f88:	b530      	push	{r4, r5, lr}
 8000f8a:	b097      	sub	sp, #92	; 0x5c
 8000f8c:	2332      	movs	r3, #50	; 0x32
 8000f8e:	2501      	movs	r5, #1
 8000f90:	f88d 3010 	strb.w	r3, [sp, #16]
 8000f94:	f44f 747a 	mov.w	r4, #1000	; 0x3e8
 8000f98:	f10d 0313 	add.w	r3, sp, #19
 8000f9c:	9300      	str	r3, [sp, #0]
 8000f9e:	e9cd 5401 	strd	r5, r4, [sp, #4]
 8000fa2:	482c      	ldr	r0, [pc, #176]	; (8001054 <ADXL345_Measure+0xcc>)
 8000fa4:	462b      	mov	r3, r5
 8000fa6:	2200      	movs	r2, #0
 8000fa8:	21a6      	movs	r1, #166	; 0xa6
 8000faa:	f001 fce3 	bl	8002974 <HAL_I2C_Mem_Read>
 8000fae:	b9b8      	cbnz	r0, 8000fe0 <ADXL345_Measure+0x58>
 8000fb0:	f89d 3013 	ldrb.w	r3, [sp, #19]
 8000fb4:	2be5      	cmp	r3, #229	; 0xe5
 8000fb6:	d113      	bne.n	8000fe0 <ADXL345_Measure+0x58>
 8000fb8:	4927      	ldr	r1, [pc, #156]	; (8001058 <ADXL345_Measure+0xd0>)
 8000fba:	4828      	ldr	r0, [pc, #160]	; (800105c <ADXL345_Measure+0xd4>)
 8000fbc:	f04f 33ff 	mov.w	r3, #4294967295	; 0xffffffff
 8000fc0:	2214      	movs	r2, #20
 8000fc2:	f003 f86d 	bl	80040a0 <HAL_UART_Transmit>
 8000fc6:	4823      	ldr	r0, [pc, #140]	; (8001054 <ADXL345_Measure+0xcc>)
 8000fc8:	9400      	str	r4, [sp, #0]
 8000fca:	462b      	mov	r3, r5
 8000fcc:	aa04      	add	r2, sp, #16
 8000fce:	21a6      	movs	r1, #166	; 0xa6
 8000fd0:	f001 fab0 	bl	8002534 <HAL_I2C_Master_Transmit>
 8000fd4:	b168      	cbz	r0, 8000ff2 <ADXL345_Measure+0x6a>
 8000fd6:	4922      	ldr	r1, [pc, #136]	; (8001060 <ADXL345_Measure+0xd8>)
 8000fd8:	f04f 33ff 	mov.w	r3, #4294967295	; 0xffffffff
 8000fdc:	2212      	movs	r2, #18
 8000fde:	e003      	b.n	8000fe8 <ADXL345_Measure+0x60>
 8000fe0:	4920      	ldr	r1, [pc, #128]	; (8001064 <ADXL345_Measure+0xdc>)
 8000fe2:	f04f 33ff 	mov.w	r3, #4294967295	; 0xffffffff
 8000fe6:	2218      	movs	r2, #24
 8000fe8:	481c      	ldr	r0, [pc, #112]	; (800105c <ADXL345_Measure+0xd4>)
 8000fea:	f003 f859 	bl	80040a0 <HAL_UART_Transmit>
 8000fee:	b017      	add	sp, #92	; 0x5c
 8000ff0:	bd30      	pop	{r4, r5, pc}
 8000ff2:	200a      	movs	r0, #10
 8000ff4:	f000 ff06 	bl	8001e04 <HAL_Delay>
 8000ff8:	4816      	ldr	r0, [pc, #88]	; (8001054 <ADXL345_Measure+0xcc>)
 8000ffa:	9400      	str	r4, [sp, #0]
 8000ffc:	2302      	movs	r3, #2
 8000ffe:	aa05      	add	r2, sp, #20
 8001000:	21a6      	movs	r1, #166	; 0xa6
 8001002:	f001 fb43 	bl	800268c <HAL_I2C_Master_Receive>
 8001006:	b120      	cbz	r0, 8001012 <ADXL345_Measure+0x8a>
 8001008:	4917      	ldr	r1, [pc, #92]	; (8001068 <ADXL345_Measure+0xe0>)
 800100a:	f04f 33ff 	mov.w	r3, #4294967295	; 0xffffffff
 800100e:	2212      	movs	r2, #18
 8001010:	e7ea      	b.n	8000fe8 <ADXL345_Measure+0x60>
 8001012:	f9bd 3014 	ldrsh.w	r3, [sp, #20]
 8001016:	ed9f 7a15 	vldr	s14, [pc, #84]	; 800106c <ADXL345_Measure+0xe4>
 800101a:	ee07 3a90 	vmov	s15, r3
 800101e:	eef8 7ae7 	vcvt.f32.s32	s15, s15
 8001022:	4b13      	ldr	r3, [pc, #76]	; (8001070 <ADXL345_Measure+0xe8>)
 8001024:	ee67 7a87 	vmul.f32	s15, s15, s14
 8001028:	edc3 7a00 	vstr	s15, [r3]
 800102c:	ee17 0a90 	vmov	r0, s15
 8001030:	f7ff fa8a 	bl	8000548 <__aeabi_f2d>
 8001034:	4a0f      	ldr	r2, [pc, #60]	; (8001074 <ADXL345_Measure+0xec>)
 8001036:	e9cd 0100 	strd	r0, r1, [sp]
 800103a:	2140      	movs	r1, #64	; 0x40
 800103c:	a806      	add	r0, sp, #24
 800103e:	f003 fe9f 	bl	8004d80 <sniprintf>
 8001042:	a806      	add	r0, sp, #24
 8001044:	f7ff f914 	bl	8000270 <strlen>
 8001048:	f04f 33ff 	mov.w	r3, #4294967295	; 0xffffffff
 800104c:	b282      	uxth	r2, r0
 800104e:	a906      	add	r1, sp, #24
 8001050:	e7ca      	b.n	8000fe8 <ADXL345_Measure+0x60>
 8001052:	bf00      	nop
 8001054:	2000020c 	.word	0x2000020c
 8001058:	0800711a 	.word	0x0800711a
 800105c:	20000360 	.word	0x20000360
 8001060:	08007146 	.word	0x08007146
 8001064:	0800712e 	.word	0x0800712e
 8001068:	08007158 	.word	0x08007158
 800106c:	3b83126f 	.word	0x3b83126f
 8001070:	200003f4 	.word	0x200003f4
 8001074:	0800716a 	.word	0x0800716a

08001078 <slave_send_data_to_BLE>:
 8001078:	b513      	push	{r0, r1, r4, lr}
 800107a:	4604      	mov	r4, r0
 800107c:	f7ff f8f8 	bl	8000270 <strlen>
 8001080:	f44f 73fa 	mov.w	r3, #500	; 0x1f4
 8001084:	9300      	str	r3, [sp, #0]
 8001086:	2110      	movs	r1, #16
 8001088:	b283      	uxth	r3, r0
 800108a:	4622      	mov	r2, r4
 800108c:	4808      	ldr	r0, [pc, #32]	; (80010b0 <slave_send_data_to_BLE+0x38>)
 800108e:	f001 fa51 	bl	8002534 <HAL_I2C_Master_Transmit>
 8001092:	4601      	mov	r1, r0
 8001094:	b930      	cbnz	r0, 80010a4 <slave_send_data_to_BLE+0x2c>
 8001096:	4807      	ldr	r0, [pc, #28]	; (80010b4 <slave_send_data_to_BLE+0x3c>)
 8001098:	4621      	mov	r1, r4
 800109a:	f003 fe03 	bl	8004ca4 <iprintf>
 800109e:	2001      	movs	r0, #1
 80010a0:	b002      	add	sp, #8
 80010a2:	bd10      	pop	{r4, pc}
 80010a4:	4804      	ldr	r0, [pc, #16]	; (80010b8 <slave_send_data_to_BLE+0x40>)
 80010a6:	f003 fdfd 	bl	8004ca4 <iprintf>
 80010aa:	2000      	movs	r0, #0
 80010ac:	e7f8      	b.n	80010a0 <slave_send_data_to_BLE+0x28>
 80010ae:	bf00      	nop
 80010b0:	2000020c 	.word	0x2000020c
 80010b4:	08007175 	.word	0x08007175
 80010b8:	0800718c 	.word	0x0800718c

080010bc <LTR_329_setup>:
 80010bc:	b510      	push	{r4, lr}
 80010be:	b092      	sub	sp, #72	; 0x48
 80010c0:	2100      	movs	r1, #0
 80010c2:	2401      	movs	r4, #1
 80010c4:	222c      	movs	r2, #44	; 0x2c
 80010c6:	a807      	add	r0, sp, #28
 80010c8:	9106      	str	r1, [sp, #24]
 80010ca:	f003 ff65 	bl	8004f98 <memset>
 80010ce:	2305      	movs	r3, #5
 80010d0:	4a36      	ldr	r2, [pc, #216]	; (80011ac <LTR_329_setup+0xf0>)
 80010d2:	9400      	str	r4, [sp, #0]
 80010d4:	2130      	movs	r1, #48	; 0x30
 80010d6:	a806      	add	r0, sp, #24
 80010d8:	f88d 3016 	strb.w	r3, [sp, #22]
 80010dc:	f003 fe50 	bl	8004d80 <sniprintf>
 80010e0:	a806      	add	r0, sp, #24
 80010e2:	f7ff f8c5 	bl	8000270 <strlen>
 80010e6:	2364      	movs	r3, #100	; 0x64
 80010e8:	b282      	uxth	r2, r0
 80010ea:	a906      	add	r1, sp, #24
 80010ec:	4830      	ldr	r0, [pc, #192]	; (80011b0 <LTR_329_setup+0xf4>)
 80010ee:	f002 ffd7 	bl	80040a0 <HAL_UART_Transmit>
 80010f2:	f44f 737a 	mov.w	r3, #1000	; 0x3e8
 80010f6:	e9cd 4301 	strd	r4, r3, [sp, #4]
 80010fa:	f10d 0316 	add.w	r3, sp, #22
 80010fe:	9300      	str	r3, [sp, #0]
 8001100:	482c      	ldr	r0, [pc, #176]	; (80011b4 <LTR_329_setup+0xf8>)
 8001102:	4623      	mov	r3, r4
 8001104:	2280      	movs	r2, #128	; 0x80
 8001106:	2152      	movs	r1, #82	; 0x52
 8001108:	f001 fb5a 	bl	80027c0 <HAL_I2C_Mem_Write>
 800110c:	b160      	cbz	r0, 8001128 <LTR_329_setup+0x6c>
 800110e:	492a      	ldr	r1, [pc, #168]	; (80011b8 <LTR_329_setup+0xfc>)
 8001110:	a806      	add	r0, sp, #24
 8001112:	f003 ffd0 	bl	80050b6 <strcpy>
 8001116:	a806      	add	r0, sp, #24
 8001118:	f7ff f8aa 	bl	8000270 <strlen>
 800111c:	2364      	movs	r3, #100	; 0x64
 800111e:	b282      	uxth	r2, r0
 8001120:	a906      	add	r1, sp, #24
 8001122:	4823      	ldr	r0, [pc, #140]	; (80011b0 <LTR_329_setup+0xf4>)
 8001124:	f002 ffbc 	bl	80040a0 <HAL_UART_Transmit>
 8001128:	2302      	movs	r3, #2
 800112a:	4a24      	ldr	r2, [pc, #144]	; (80011bc <LTR_329_setup+0x100>)
 800112c:	f88d 3017 	strb.w	r3, [sp, #23]
 8001130:	2130      	movs	r1, #48	; 0x30
 8001132:	a806      	add	r0, sp, #24
 8001134:	f003 fe24 	bl	8004d80 <sniprintf>
 8001138:	a806      	add	r0, sp, #24
 800113a:	f7ff f899 	bl	8000270 <strlen>
 800113e:	2364      	movs	r3, #100	; 0x64
 8001140:	b282      	uxth	r2, r0
 8001142:	a906      	add	r1, sp, #24
 8001144:	481a      	ldr	r0, [pc, #104]	; (80011b0 <LTR_329_setup+0xf4>)
 8001146:	f002 ffab 	bl	80040a0 <HAL_UART_Transmit>
 800114a:	2301      	movs	r3, #1
 800114c:	f44f 727a 	mov.w	r2, #1000	; 0x3e8
 8001150:	e9cd 3201 	strd	r3, r2, [sp, #4]
 8001154:	f10d 0217 	add.w	r2, sp, #23
 8001158:	9200      	str	r2, [sp, #0]
 800115a:	4816      	ldr	r0, [pc, #88]	; (80011b4 <LTR_329_setup+0xf8>)
 800115c:	2285      	movs	r2, #133	; 0x85
 800115e:	2152      	movs	r1, #82	; 0x52
 8001160:	f001 fb2e 	bl	80027c0 <HAL_I2C_Mem_Write>
 8001164:	4604      	mov	r4, r0
 8001166:	200a      	movs	r0, #10
 8001168:	f000 fe4c 	bl	8001e04 <HAL_Delay>
 800116c:	b1dc      	cbz	r4, 80011a6 <LTR_329_setup+0xea>
 800116e:	4914      	ldr	r1, [pc, #80]	; (80011c0 <LTR_329_setup+0x104>)
 8001170:	a806      	add	r0, sp, #24
 8001172:	f003 ffa0 	bl	80050b6 <strcpy>
 8001176:	a806      	add	r0, sp, #24
 8001178:	f7ff f87a 	bl	8000270 <strlen>
 800117c:	2364      	movs	r3, #100	; 0x64
 800117e:	b282      	uxth	r2, r0
 8001180:	a906      	add	r1, sp, #24
 8001182:	480b      	ldr	r0, [pc, #44]	; (80011b0 <LTR_329_setup+0xf4>)
 8001184:	f002 ff8c 	bl	80040a0 <HAL_UART_Transmit>
 8001188:	490e      	ldr	r1, [pc, #56]	; (80011c4 <LTR_329_setup+0x108>)
 800118a:	a806      	add	r0, sp, #24
 800118c:	f003 ff93 	bl	80050b6 <strcpy>
 8001190:	a806      	add	r0, sp, #24
 8001192:	f7ff f86d 	bl	8000270 <strlen>
 8001196:	2364      	movs	r3, #100	; 0x64
 8001198:	b282      	uxth	r2, r0
 800119a:	a906      	add	r1, sp, #24
 800119c:	4804      	ldr	r0, [pc, #16]	; (80011b0 <LTR_329_setup+0xf4>)
 800119e:	f002 ff7f 	bl	80040a0 <HAL_UART_Transmit>
 80011a2:	b012      	add	sp, #72	; 0x48
 80011a4:	bd10      	pop	{r4, pc}
 80011a6:	4908      	ldr	r1, [pc, #32]	; (80011c8 <LTR_329_setup+0x10c>)
 80011a8:	e7e2      	b.n	8001170 <LTR_329_setup+0xb4>
 80011aa:	bf00      	nop
 80011ac:	080071ac 	.word	0x080071ac
 80011b0:	20000360 	.word	0x20000360
 80011b4:	2000020c 	.word	0x2000020c
 80011b8:	080071c8 	.word	0x080071c8
 80011bc:	080071e7 	.word	0x080071e7
 80011c0:	080071fc 	.word	0x080071fc
 80011c4:	0800723c 	.word	0x0800723c
 80011c8:	0800721f 	.word	0x0800721f

080011cc <LTR_329_measure>:
 80011cc:	e92d 43f0 	stmdb	sp!, {r4, r5, r6, r7, r8, r9, lr}
 80011d0:	b093      	sub	sp, #76	; 0x4c
 80011d2:	2100      	movs	r1, #0
 80011d4:	222c      	movs	r2, #44	; 0x2c
 80011d6:	a807      	add	r0, sp, #28
 80011d8:	9106      	str	r1, [sp, #24]
 80011da:	ad05      	add	r5, sp, #20
 80011dc:	f003 fedc 	bl	8004f98 <memset>
 80011e0:	2304      	movs	r3, #4
 80011e2:	f44f 727a 	mov.w	r2, #1000	; 0x3e8
 80011e6:	e9cd 3201 	strd	r3, r2, [sp, #4]
 80011ea:	4834      	ldr	r0, [pc, #208]	; (80012bc <LTR_329_measure+0xf0>)
 80011ec:	9500      	str	r5, [sp, #0]
 80011ee:	2301      	movs	r3, #1
 80011f0:	2288      	movs	r2, #136	; 0x88
 80011f2:	2152      	movs	r1, #82	; 0x52
 80011f4:	f001 fbbe 	bl	8002974 <HAL_I2C_Mem_Read>
 80011f8:	4604      	mov	r4, r0
 80011fa:	2005      	movs	r0, #5
 80011fc:	f000 fe02 	bl	8001e04 <HAL_Delay>
 8001200:	b1e4      	cbz	r4, 800123c <LTR_329_measure+0x70>
 8001202:	492f      	ldr	r1, [pc, #188]	; (80012c0 <LTR_329_measure+0xf4>)
 8001204:	a806      	add	r0, sp, #24
 8001206:	f003 ff56 	bl	80050b6 <strcpy>
 800120a:	a806      	add	r0, sp, #24
 800120c:	f7ff f830 	bl	8000270 <strlen>
 8001210:	2364      	movs	r3, #100	; 0x64
 8001212:	b282      	uxth	r2, r0
 8001214:	a906      	add	r1, sp, #24
 8001216:	482b      	ldr	r0, [pc, #172]	; (80012c4 <LTR_329_measure+0xf8>)
 8001218:	f002 ff42 	bl	80040a0 <HAL_UART_Transmit>
 800121c:	492a      	ldr	r1, [pc, #168]	; (80012c8 <LTR_329_measure+0xfc>)
 800121e:	a806      	add	r0, sp, #24
 8001220:	f003 ff49 	bl	80050b6 <strcpy>
 8001224:	a806      	add	r0, sp, #24
 8001226:	f7ff f823 	bl	8000270 <strlen>
 800122a:	2364      	movs	r3, #100	; 0x64
 800122c:	b282      	uxth	r2, r0
 800122e:	a906      	add	r1, sp, #24
 8001230:	4824      	ldr	r0, [pc, #144]	; (80012c4 <LTR_329_measure+0xf8>)
 8001232:	f002 ff35 	bl	80040a0 <HAL_UART_Transmit>
 8001236:	b013      	add	sp, #76	; 0x4c
 8001238:	e8bd 83f0 	ldmia.w	sp!, {r4, r5, r6, r7, r8, r9, pc}
 800123c:	f89d 2015 	ldrb.w	r2, [sp, #21]
 8001240:	f89d 3014 	ldrb.w	r3, [sp, #20]
 8001244:	4e21      	ldr	r6, [pc, #132]	; (80012cc <LTR_329_measure+0x100>)
 8001246:	4f22      	ldr	r7, [pc, #136]	; (80012d0 <LTR_329_measure+0x104>)
 8001248:	f8df 9090 	ldr.w	r9, [pc, #144]	; 80012dc <LTR_329_measure+0x110>
 800124c:	f8df 8074 	ldr.w	r8, [pc, #116]	; 80012c4 <LTR_329_measure+0xf8>
 8001250:	eb03 2302 	add.w	r3, r3, r2, lsl #8
 8001254:	8033      	strh	r3, [r6, #0]
 8001256:	f89d 2017 	ldrb.w	r2, [sp, #23]
 800125a:	f89d 3016 	ldrb.w	r3, [sp, #22]
 800125e:	eb03 2302 	add.w	r3, r3, r2, lsl #8
 8001262:	803b      	strh	r3, [r7, #0]
 8001264:	f815 3b01 	ldrb.w	r3, [r5], #1
 8001268:	9300      	str	r3, [sp, #0]
 800126a:	464a      	mov	r2, r9
 800126c:	4623      	mov	r3, r4
 800126e:	2130      	movs	r1, #48	; 0x30
 8001270:	a806      	add	r0, sp, #24
 8001272:	f003 fd85 	bl	8004d80 <sniprintf>
 8001276:	a806      	add	r0, sp, #24
 8001278:	f7fe fffa 	bl	8000270 <strlen>
 800127c:	3401      	adds	r4, #1
 800127e:	b282      	uxth	r2, r0
 8001280:	2364      	movs	r3, #100	; 0x64
 8001282:	a906      	add	r1, sp, #24
 8001284:	4640      	mov	r0, r8
 8001286:	f002 ff0b 	bl	80040a0 <HAL_UART_Transmit>
 800128a:	2c04      	cmp	r4, #4
 800128c:	d1ea      	bne.n	8001264 <LTR_329_measure+0x98>
 800128e:	8833      	ldrh	r3, [r6, #0]
 8001290:	4a10      	ldr	r2, [pc, #64]	; (80012d4 <LTR_329_measure+0x108>)
 8001292:	2130      	movs	r1, #48	; 0x30
 8001294:	a806      	add	r0, sp, #24
 8001296:	f003 fd73 	bl	8004d80 <sniprintf>
 800129a:	a806      	add	r0, sp, #24
 800129c:	f7fe ffe8 	bl	8000270 <strlen>
 80012a0:	a906      	add	r1, sp, #24
 80012a2:	b282      	uxth	r2, r0
 80012a4:	2364      	movs	r3, #100	; 0x64
 80012a6:	4807      	ldr	r0, [pc, #28]	; (80012c4 <LTR_329_measure+0xf8>)
 80012a8:	f002 fefa 	bl	80040a0 <HAL_UART_Transmit>
 80012ac:	883b      	ldrh	r3, [r7, #0]
 80012ae:	4a0a      	ldr	r2, [pc, #40]	; (80012d8 <LTR_329_measure+0x10c>)
 80012b0:	2130      	movs	r1, #48	; 0x30
 80012b2:	a806      	add	r0, sp, #24
 80012b4:	f003 fd64 	bl	8004d80 <sniprintf>
 80012b8:	e7a7      	b.n	800120a <LTR_329_measure+0x3e>
 80012ba:	bf00      	nop
 80012bc:	2000020c 	.word	0x2000020c
 80012c0:	08007247 	.word	0x08007247
 80012c4:	20000360 	.word	0x20000360
 80012c8:	0800723c 	.word	0x0800723c
 80012cc:	200001f0 	.word	0x200001f0
 80012d0:	200001f2 	.word	0x200001f2
 80012d4:	08007273 	.word	0x08007273
 80012d8:	0800728a 	.word	0x0800728a
 80012dc:	0800725f 	.word	0x0800725f

080012e0 <MX_I2C1_Init>:
 80012e0:	b510      	push	{r4, lr}
 80012e2:	4a11      	ldr	r2, [pc, #68]	; (8001328 <MX_I2C1_Init+0x48>)
 80012e4:	4c11      	ldr	r4, [pc, #68]	; (800132c <MX_I2C1_Init+0x4c>)
 80012e6:	4b12      	ldr	r3, [pc, #72]	; (8001330 <MX_I2C1_Init+0x50>)
 80012e8:	4620      	mov	r0, r4
 80012ea:	e9c4 2300 	strd	r2, r3, [r4]
 80012ee:	2300      	movs	r3, #0
 80012f0:	2201      	movs	r2, #1
 80012f2:	e9c4 3202 	strd	r3, r2, [r4, #8]
 80012f6:	e9c4 3304 	strd	r3, r3, [r4, #16]
 80012fa:	e9c4 3306 	strd	r3, r3, [r4, #24]
 80012fe:	6223      	str	r3, [r4, #32]
 8001300:	f001 f8aa 	bl	8002458 <HAL_I2C_Init>
 8001304:	4601      	mov	r1, r0
 8001306:	b108      	cbz	r0, 800130c <MX_I2C1_Init+0x2c>
 8001308:	b672      	cpsid	i
 800130a:	e7fe      	b.n	800130a <MX_I2C1_Init+0x2a>
 800130c:	4620      	mov	r0, r4
 800130e:	f001 fc0f 	bl	8002b30 <HAL_I2CEx_ConfigAnalogFilter>
 8001312:	4601      	mov	r1, r0
 8001314:	b108      	cbz	r0, 800131a <MX_I2C1_Init+0x3a>
 8001316:	b672      	cpsid	i
 8001318:	e7fe      	b.n	8001318 <MX_I2C1_Init+0x38>
 800131a:	4620      	mov	r0, r4
 800131c:	f001 fc2e 	bl	8002b7c <HAL_I2CEx_ConfigDigitalFilter>
 8001320:	b108      	cbz	r0, 8001326 <MX_I2C1_Init+0x46>
 8001322:	b672      	cpsid	i
 8001324:	e7fe      	b.n	8001324 <MX_I2C1_Init+0x44>
 8001326:	bd10      	pop	{r4, pc}
 8001328:	40005400 	.word	0x40005400
 800132c:	2000020c 	.word	0x2000020c
 8001330:	00707cbb 	.word	0x00707cbb

08001334 <_write>:
 8001334:	b510      	push	{r4, lr}
 8001336:	f44f 63fa 	mov.w	r3, #2000	; 0x7d0
 800133a:	4614      	mov	r4, r2
 800133c:	4802      	ldr	r0, [pc, #8]	; (8001348 <_write+0x14>)
 800133e:	b292      	uxth	r2, r2
 8001340:	f002 feae 	bl	80040a0 <HAL_UART_Transmit>
 8001344:	4620      	mov	r0, r4
 8001346:	bd10      	pop	{r4, pc}
 8001348:	20000360 	.word	0x20000360

0800134c <SystemClock_Config>:
 800134c:	b530      	push	{r4, r5, lr}
 800134e:	b097      	sub	sp, #92	; 0x5c
 8001350:	2244      	movs	r2, #68	; 0x44
 8001352:	2100      	movs	r1, #0
 8001354:	a805      	add	r0, sp, #20
 8001356:	2514      	movs	r5, #20
 8001358:	f003 fe1e 	bl	8004f98 <memset>
 800135c:	462a      	mov	r2, r5
 800135e:	2100      	movs	r1, #0
 8001360:	4668      	mov	r0, sp
 8001362:	f003 fe19 	bl	8004f98 <memset>
 8001366:	f44f 7000 	mov.w	r0, #512	; 0x200
 800136a:	f001 fc4f 	bl	8002c0c <HAL_PWREx_ControlVoltageScaling>
 800136e:	4604      	mov	r4, r0
 8001370:	b108      	cbz	r0, 8001376 <SystemClock_Config+0x2a>
 8001372:	b672      	cpsid	i
 8001374:	e7fe      	b.n	8001374 <SystemClock_Config+0x28>
 8001376:	f001 fc27 	bl	8002bc8 <HAL_PWR_EnableBkUpAccess>
 800137a:	4a13      	ldr	r2, [pc, #76]	; (80013c8 <SystemClock_Config+0x7c>)
 800137c:	f8d2 3090 	ldr.w	r3, [r2, #144]	; 0x90
 8001380:	f023 0318 	bic.w	r3, r3, #24
 8001384:	f8c2 3090 	str.w	r3, [r2, #144]	; 0x90
 8001388:	a805      	add	r0, sp, #20
 800138a:	9505      	str	r5, [sp, #20]
 800138c:	23a0      	movs	r3, #160	; 0xa0
 800138e:	2501      	movs	r5, #1
 8001390:	e9cd 540c 	strd	r5, r4, [sp, #48]	; 0x30
 8001394:	9507      	str	r5, [sp, #28]
 8001396:	930e      	str	r3, [sp, #56]	; 0x38
 8001398:	9410      	str	r4, [sp, #64]	; 0x40
 800139a:	f001 fcfd 	bl	8002d98 <HAL_RCC_OscConfig>
 800139e:	b108      	cbz	r0, 80013a4 <SystemClock_Config+0x58>
 80013a0:	b672      	cpsid	i
 80013a2:	e7fe      	b.n	80013a2 <SystemClock_Config+0x56>
 80013a4:	230f      	movs	r3, #15
 80013a6:	e9cd 3000 	strd	r3, r0, [sp]
 80013aa:	e9cd 0002 	strd	r0, r0, [sp, #8]
 80013ae:	9004      	str	r0, [sp, #16]
 80013b0:	4629      	mov	r1, r5
 80013b2:	4668      	mov	r0, sp
 80013b4:	f001 ffc6 	bl	8003344 <HAL_RCC_ClockConfig>
 80013b8:	b108      	cbz	r0, 80013be <SystemClock_Config+0x72>
 80013ba:	b672      	cpsid	i
 80013bc:	e7fe      	b.n	80013bc <SystemClock_Config+0x70>
 80013be:	f002 f985 	bl	80036cc <HAL_RCCEx_EnableMSIPLLMode>
 80013c2:	b017      	add	sp, #92	; 0x5c
 80013c4:	bd30      	pop	{r4, r5, pc}
 80013c6:	bf00      	nop
 80013c8:	40021000 	.word	0x40021000

080013cc <global_init_Done>:
 80013cc:	b57f      	push	{r0, r1, r2, r3, r4, r5, r6, lr}
 80013ce:	4908      	ldr	r1, [pc, #32]	; (80013f0 <global_init_Done+0x24>)
 80013d0:	4668      	mov	r0, sp
 80013d2:	f003 fe70 	bl	80050b6 <strcpy>
 80013d6:	4668      	mov	r0, sp
 80013d8:	f7fe ff4a 	bl	8000270 <strlen>
 80013dc:	2364      	movs	r3, #100	; 0x64
 80013de:	b282      	uxth	r2, r0
 80013e0:	4669      	mov	r1, sp
 80013e2:	4804      	ldr	r0, [pc, #16]	; (80013f4 <global_init_Done+0x28>)
 80013e4:	f002 fe5c 	bl	80040a0 <HAL_UART_Transmit>
 80013e8:	b007      	add	sp, #28
 80013ea:	f85d fb04 	ldr.w	pc, [sp], #4
 80013ee:	bf00      	nop
 80013f0:	0800729d 	.word	0x0800729d
 80013f4:	20000360 	.word	0x20000360

080013f8 <custom_init_Done>:
 80013f8:	b57f      	push	{r0, r1, r2, r3, r4, r5, r6, lr}
 80013fa:	4908      	ldr	r1, [pc, #32]	; (800141c <custom_init_Done+0x24>)
 80013fc:	4668      	mov	r0, sp
 80013fe:	f003 fe5a 	bl	80050b6 <strcpy>
 8001402:	4668      	mov	r0, sp
 8001404:	f7fe ff34 	bl	8000270 <strlen>
 8001408:	2364      	movs	r3, #100	; 0x64
 800140a:	b282      	uxth	r2, r0
 800140c:	4669      	mov	r1, sp
 800140e:	4804      	ldr	r0, [pc, #16]	; (8001420 <custom_init_Done+0x28>)
 8001410:	f002 fe46 	bl	80040a0 <HAL_UART_Transmit>
 8001414:	b007      	add	sp, #28
 8001416:	f85d fb04 	ldr.w	pc, [sp], #4
 800141a:	bf00      	nop
 800141c:	080072b1 	.word	0x080072b1
 8001420:	20000360 	.word	0x20000360

08001424 <SHT40_measure>:
 8001424:	e92d 43f0 	stmdb	sp!, {r4, r5, r6, r7, r8, r9, lr}
 8001428:	221c      	movs	r2, #28
 800142a:	b08f      	sub	sp, #60	; 0x3c
 800142c:	23fd      	movs	r3, #253	; 0xfd
 800142e:	2100      	movs	r1, #0
 8001430:	eb0d 0002 	add.w	r0, sp, r2
 8001434:	f44f 757a 	mov.w	r5, #1000	; 0x3e8
 8001438:	f88d 300c 	strb.w	r3, [sp, #12]
 800143c:	9106      	str	r1, [sp, #24]
 800143e:	f003 fdab 	bl	8004f98 <memset>
 8001442:	484f      	ldr	r0, [pc, #316]	; (8001580 <SHT40_measure+0x15c>)
 8001444:	9500      	str	r5, [sp, #0]
 8001446:	2301      	movs	r3, #1
 8001448:	aa03      	add	r2, sp, #12
 800144a:	2188      	movs	r1, #136	; 0x88
 800144c:	f001 f872 	bl	8002534 <HAL_I2C_Master_Transmit>
 8001450:	4604      	mov	r4, r0
 8001452:	200a      	movs	r0, #10
 8001454:	f000 fcd6 	bl	8001e04 <HAL_Delay>
 8001458:	b17c      	cbz	r4, 800147a <SHT40_measure+0x56>
 800145a:	494a      	ldr	r1, [pc, #296]	; (8001584 <SHT40_measure+0x160>)
 800145c:	a806      	add	r0, sp, #24
 800145e:	f003 fe2a 	bl	80050b6 <strcpy>
 8001462:	a806      	add	r0, sp, #24
 8001464:	f7fe ff04 	bl	8000270 <strlen>
 8001468:	2364      	movs	r3, #100	; 0x64
 800146a:	b282      	uxth	r2, r0
 800146c:	a906      	add	r1, sp, #24
 800146e:	4846      	ldr	r0, [pc, #280]	; (8001588 <SHT40_measure+0x164>)
 8001470:	f002 fe16 	bl	80040a0 <HAL_UART_Transmit>
 8001474:	b00f      	add	sp, #60	; 0x3c
 8001476:	e8bd 83f0 	ldmia.w	sp!, {r4, r5, r6, r7, r8, r9, pc}
 800147a:	200a      	movs	r0, #10
 800147c:	f000 fcc2 	bl	8001e04 <HAL_Delay>
 8001480:	483f      	ldr	r0, [pc, #252]	; (8001580 <SHT40_measure+0x15c>)
 8001482:	9500      	str	r5, [sp, #0]
 8001484:	2306      	movs	r3, #6
 8001486:	aa04      	add	r2, sp, #16
 8001488:	2188      	movs	r1, #136	; 0x88
 800148a:	f001 f8ff 	bl	800268c <HAL_I2C_Master_Receive>
 800148e:	b170      	cbz	r0, 80014ae <SHT40_measure+0x8a>
 8001490:	493e      	ldr	r1, [pc, #248]	; (800158c <SHT40_measure+0x168>)
 8001492:	a806      	add	r0, sp, #24
 8001494:	f003 fe0f 	bl	80050b6 <strcpy>
 8001498:	a806      	add	r0, sp, #24
 800149a:	f7fe fee9 	bl	8000270 <strlen>
 800149e:	a906      	add	r1, sp, #24
 80014a0:	b282      	uxth	r2, r0
 80014a2:	2364      	movs	r3, #100	; 0x64
 80014a4:	4838      	ldr	r0, [pc, #224]	; (8001588 <SHT40_measure+0x164>)
 80014a6:	f002 fdfb 	bl	80040a0 <HAL_UART_Transmit>
 80014aa:	4939      	ldr	r1, [pc, #228]	; (8001590 <SHT40_measure+0x16c>)
 80014ac:	e7d6      	b.n	800145c <SHT40_measure+0x38>
 80014ae:	f89d 2013 	ldrb.w	r2, [sp, #19]
 80014b2:	f89d 3014 	ldrb.w	r3, [sp, #20]
 80014b6:	eddf 6a37 	vldr	s13, [pc, #220]	; 8001594 <SHT40_measure+0x170>
 80014ba:	ed9f 6a37 	vldr	s12, [pc, #220]	; 8001598 <SHT40_measure+0x174>
 80014be:	4f37      	ldr	r7, [pc, #220]	; (800159c <SHT40_measure+0x178>)
 80014c0:	4e37      	ldr	r6, [pc, #220]	; (80015a0 <SHT40_measure+0x17c>)
 80014c2:	f8df 90f0 	ldr.w	r9, [pc, #240]	; 80015b4 <SHT40_measure+0x190>
 80014c6:	f8df 80c0 	ldr.w	r8, [pc, #192]	; 8001588 <SHT40_measure+0x164>
 80014ca:	eb03 2302 	add.w	r3, r3, r2, lsl #8
 80014ce:	ee07 3a90 	vmov	s15, r3
 80014d2:	f89d 2010 	ldrb.w	r2, [sp, #16]
 80014d6:	f89d 3011 	ldrb.w	r3, [sp, #17]
 80014da:	eb03 2302 	add.w	r3, r3, r2, lsl #8
 80014de:	ee07 3a10 	vmov	s14, r3
 80014e2:	eeb8 7ac7 	vcvt.f32.s32	s14, s14
 80014e6:	eef8 7ae7 	vcvt.f32.s32	s15, s15
 80014ea:	ee27 7a26 	vmul.f32	s14, s14, s13
 80014ee:	ad04      	add	r5, sp, #16
 80014f0:	eec7 6a06 	vdiv.f32	s13, s14, s12
 80014f4:	4604      	mov	r4, r0
 80014f6:	ed9f 7a2b 	vldr	s14, [pc, #172]	; 80015a4 <SHT40_measure+0x180>
 80014fa:	ee36 7ac7 	vsub.f32	s14, s13, s14
 80014fe:	ed87 7a00 	vstr	s14, [r7]
 8001502:	ed9f 7a29 	vldr	s14, [pc, #164]	; 80015a8 <SHT40_measure+0x184>
 8001506:	ee67 7a87 	vmul.f32	s15, s15, s14
 800150a:	ee87 7a86 	vdiv.f32	s14, s15, s12
 800150e:	eef1 7a08 	vmov.f32	s15, #24	; 0x40c00000  6.0
 8001512:	ee77 7a67 	vsub.f32	s15, s14, s15
 8001516:	edc6 7a00 	vstr	s15, [r6]
 800151a:	f815 3b01 	ldrb.w	r3, [r5], #1
 800151e:	9300      	str	r3, [sp, #0]
 8001520:	464a      	mov	r2, r9
 8001522:	4623      	mov	r3, r4
 8001524:	2120      	movs	r1, #32
 8001526:	a806      	add	r0, sp, #24
 8001528:	f003 fc2a 	bl	8004d80 <sniprintf>
 800152c:	a806      	add	r0, sp, #24
 800152e:	f7fe fe9f 	bl	8000270 <strlen>
 8001532:	3401      	adds	r4, #1
 8001534:	b282      	uxth	r2, r0
 8001536:	2364      	movs	r3, #100	; 0x64
 8001538:	a906      	add	r1, sp, #24
 800153a:	4640      	mov	r0, r8
 800153c:	f002 fdb0 	bl	80040a0 <HAL_UART_Transmit>
 8001540:	2c06      	cmp	r4, #6
 8001542:	d1ea      	bne.n	800151a <SHT40_measure+0xf6>
 8001544:	6838      	ldr	r0, [r7, #0]
 8001546:	f7fe ffff 	bl	8000548 <__aeabi_f2d>
 800154a:	4a18      	ldr	r2, [pc, #96]	; (80015ac <SHT40_measure+0x188>)
 800154c:	e9cd 0100 	strd	r0, r1, [sp]
 8001550:	2120      	movs	r1, #32
 8001552:	a806      	add	r0, sp, #24
 8001554:	f003 fc14 	bl	8004d80 <sniprintf>
 8001558:	a806      	add	r0, sp, #24
 800155a:	f7fe fe89 	bl	8000270 <strlen>
 800155e:	2364      	movs	r3, #100	; 0x64
 8001560:	b282      	uxth	r2, r0
 8001562:	a906      	add	r1, sp, #24
 8001564:	4808      	ldr	r0, [pc, #32]	; (8001588 <SHT40_measure+0x164>)
 8001566:	f002 fd9b 	bl	80040a0 <HAL_UART_Transmit>
 800156a:	6830      	ldr	r0, [r6, #0]
 800156c:	f7fe ffec 	bl	8000548 <__aeabi_f2d>
 8001570:	4a0f      	ldr	r2, [pc, #60]	; (80015b0 <SHT40_measure+0x18c>)
 8001572:	e9cd 0100 	strd	r0, r1, [sp]
 8001576:	2120      	movs	r1, #32
 8001578:	a806      	add	r0, sp, #24
 800157a:	f003 fc01 	bl	8004d80 <sniprintf>
 800157e:	e78b      	b.n	8001498 <SHT40_measure+0x74>
 8001580:	2000020c 	.word	0x2000020c
 8001584:	080072c5 	.word	0x080072c5
 8001588:	20000360 	.word	0x20000360
 800158c:	080072d6 	.word	0x080072d6
 8001590:	0800723c 	.word	0x0800723c
 8001594:	432f0000 	.word	0x432f0000
 8001598:	477fff00 	.word	0x477fff00
 800159c:	200003ec 	.word	0x200003ec
 80015a0:	200003e8 	.word	0x200003e8
 80015a4:	42340000 	.word	0x42340000
 80015a8:	42fa0000 	.word	0x42fa0000
 80015ac:	080072e7 	.word	0x080072e7
 80015b0:	080072f8 	.word	0x080072f8
 80015b4:	0800725f 	.word	0x0800725f

080015b8 <format_data>:
 80015b8:	b5f0      	push	{r4, r5, r6, r7, lr}
 80015ba:	0054      	lsls	r4, r2, #1
 80015bc:	f004 040e 	and.w	r4, r4, #14
 80015c0:	f003 0301 	and.w	r3, r3, #1
 80015c4:	431c      	orrs	r4, r3
 80015c6:	0109      	lsls	r1, r1, #4
 80015c8:	ea44 1440 	orr.w	r4, r4, r0, lsl #5
 80015cc:	b08b      	sub	sp, #44	; 0x2c
 80015ce:	f001 0110 	and.w	r1, r1, #16
 80015d2:	430c      	orrs	r4, r1
 80015d4:	0750      	lsls	r0, r2, #29
 80015d6:	f88d 4008 	strb.w	r4, [sp, #8]
 80015da:	d551      	bpl.n	8001680 <format_data+0xc8>
 80015dc:	4b31      	ldr	r3, [pc, #196]	; (80016a4 <format_data+0xec>)
 80015de:	eddf 6a32 	vldr	s13, [pc, #200]	; 80016a8 <format_data+0xf0>
 80015e2:	edd3 7a00 	vldr	s15, [r3]
 80015e6:	4b31      	ldr	r3, [pc, #196]	; (80016ac <format_data+0xf4>)
 80015e8:	ed93 7a00 	vldr	s14, [r3]
 80015ec:	ee27 7a26 	vmul.f32	s14, s14, s13
 80015f0:	ee67 7aa6 	vmul.f32	s15, s15, s13
 80015f4:	eebd 7ac7 	vcvt.s32.f32	s14, s14
 80015f8:	eefd 7ae7 	vcvt.s32.f32	s15, s15
 80015fc:	ee17 3a10 	vmov	r3, s14
 8001600:	f8ad 3009 	strh.w	r3, [sp, #9]
 8001604:	ee17 3a90 	vmov	r3, s15
 8001608:	2405      	movs	r4, #5
 800160a:	f8ad 300b 	strh.w	r3, [sp, #11]
 800160e:	0791      	lsls	r1, r2, #30
 8001610:	d50b      	bpl.n	800162a <format_data+0x72>
 8001612:	4b27      	ldr	r3, [pc, #156]	; (80016b0 <format_data+0xf8>)
 8001614:	8819      	ldrh	r1, [r3, #0]
 8001616:	4b27      	ldr	r3, [pc, #156]	; (80016b4 <format_data+0xfc>)
 8001618:	8818      	ldrh	r0, [r3, #0]
 800161a:	f104 0328 	add.w	r3, r4, #40	; 0x28
 800161e:	446b      	add	r3, sp
 8001620:	3404      	adds	r4, #4
 8001622:	f823 0c20 	strh.w	r0, [r3, #-32]
 8001626:	f823 1c1e 	strh.w	r1, [r3, #-30]
 800162a:	07d3      	lsls	r3, r2, #31
 800162c:	d513      	bpl.n	8001656 <format_data+0x9e>
 800162e:	4b22      	ldr	r3, [pc, #136]	; (80016b8 <format_data+0x100>)
 8001630:	ed9f 7a1d 	vldr	s14, [pc, #116]	; 80016a8 <format_data+0xf0>
 8001634:	edd3 7a00 	vldr	s15, [r3]
 8001638:	ee67 7a87 	vmul.f32	s15, s15, s14
 800163c:	f104 0228 	add.w	r2, r4, #40	; 0x28
 8001640:	eefd 7ae7 	vcvt.s32.f32	s15, s15
 8001644:	446a      	add	r2, sp
 8001646:	ee17 3a90 	vmov	r3, s15
 800164a:	2b00      	cmp	r3, #0
 800164c:	bfb8      	it	lt
 800164e:	425b      	neglt	r3, r3
 8001650:	f822 3c20 	strh.w	r3, [r2, #-32]
 8001654:	3402      	adds	r4, #2
 8001656:	4919      	ldr	r1, [pc, #100]	; (80016bc <format_data+0x104>)
 8001658:	4819      	ldr	r0, [pc, #100]	; (80016c0 <format_data+0x108>)
 800165a:	4e1a      	ldr	r6, [pc, #104]	; (80016c4 <format_data+0x10c>)
 800165c:	4f18      	ldr	r7, [pc, #96]	; (80016c0 <format_data+0x108>)
 800165e:	f003 fd2a 	bl	80050b6 <strcpy>
 8001662:	2500      	movs	r5, #0
 8001664:	b22b      	sxth	r3, r5
 8001666:	42a3      	cmp	r3, r4
 8001668:	f105 0501 	add.w	r5, r5, #1
 800166c:	db0a      	blt.n	8001684 <format_data+0xcc>
 800166e:	4816      	ldr	r0, [pc, #88]	; (80016c8 <format_data+0x110>)
 8001670:	f003 fb7e 	bl	8004d70 <puts>
 8001674:	4912      	ldr	r1, [pc, #72]	; (80016c0 <format_data+0x108>)
 8001676:	4815      	ldr	r0, [pc, #84]	; (80016cc <format_data+0x114>)
 8001678:	f003 fb14 	bl	8004ca4 <iprintf>
 800167c:	b00b      	add	sp, #44	; 0x2c
 800167e:	bdf0      	pop	{r4, r5, r6, r7, pc}
 8001680:	2401      	movs	r4, #1
 8001682:	e7c4      	b.n	800160e <format_data+0x56>
 8001684:	3328      	adds	r3, #40	; 0x28
 8001686:	446b      	add	r3, sp
 8001688:	2104      	movs	r1, #4
 800168a:	eb0d 0001 	add.w	r0, sp, r1
 800168e:	f813 3c20 	ldrb.w	r3, [r3, #-32]
 8001692:	4632      	mov	r2, r6
 8001694:	f003 fb74 	bl	8004d80 <sniprintf>
 8001698:	a901      	add	r1, sp, #4
 800169a:	4638      	mov	r0, r7
 800169c:	f003 fc84 	bl	8004fa8 <strcat>
 80016a0:	e7e0      	b.n	8001664 <format_data+0xac>
 80016a2:	bf00      	nop
 80016a4:	200003e8 	.word	0x200003e8
 80016a8:	42c80000 	.word	0x42c80000
 80016ac:	200003ec 	.word	0x200003ec
 80016b0:	200001f2 	.word	0x200001f2
 80016b4:	200001f0 	.word	0x200001f0
 80016b8:	200003f4 	.word	0x200003f4
 80016bc:	080072f7 	.word	0x080072f7
 80016c0:	200001f4 	.word	0x200001f4
 80016c4:	08007309 	.word	0x08007309
 80016c8:	0800730e 	.word	0x0800730e
 80016cc:	0800731f 	.word	0x0800731f

080016d0 <main>:
 80016d0:	b5f0      	push	{r4, r5, r6, r7, lr}
 80016d2:	b08d      	sub	sp, #52	; 0x34
 80016d4:	f000 fb74 	bl	8001dc0 <HAL_Init>
 80016d8:	f7ff fe38 	bl	800134c <SystemClock_Config>
 80016dc:	2214      	movs	r2, #20
 80016de:	2100      	movs	r1, #0
 80016e0:	a807      	add	r0, sp, #28
 80016e2:	f003 fc59 	bl	8004f98 <memset>
 80016e6:	4b96      	ldr	r3, [pc, #600]	; (8001940 <main+0x270>)
 80016e8:	6cda      	ldr	r2, [r3, #76]	; 0x4c
 80016ea:	f042 0204 	orr.w	r2, r2, #4
 80016ee:	64da      	str	r2, [r3, #76]	; 0x4c
 80016f0:	6cda      	ldr	r2, [r3, #76]	; 0x4c
 80016f2:	f002 0204 	and.w	r2, r2, #4
 80016f6:	9201      	str	r2, [sp, #4]
 80016f8:	9a01      	ldr	r2, [sp, #4]
 80016fa:	6cda      	ldr	r2, [r3, #76]	; 0x4c
 80016fc:	f042 0201 	orr.w	r2, r2, #1
 8001700:	64da      	str	r2, [r3, #76]	; 0x4c
 8001702:	6cda      	ldr	r2, [r3, #76]	; 0x4c
 8001704:	f002 0201 	and.w	r2, r2, #1
 8001708:	9202      	str	r2, [sp, #8]
 800170a:	9a02      	ldr	r2, [sp, #8]
 800170c:	6cda      	ldr	r2, [r3, #76]	; 0x4c
 800170e:	f042 0202 	orr.w	r2, r2, #2
 8001712:	64da      	str	r2, [r3, #76]	; 0x4c
 8001714:	6cdb      	ldr	r3, [r3, #76]	; 0x4c
 8001716:	f003 0302 	and.w	r3, r3, #2
 800171a:	9303      	str	r3, [sp, #12]
 800171c:	2200      	movs	r2, #0
 800171e:	2180      	movs	r1, #128	; 0x80
 8001720:	f04f 4090 	mov.w	r0, #1207959552	; 0x48000000
 8001724:	9b03      	ldr	r3, [sp, #12]
 8001726:	f000 fd0b 	bl	8002140 <HAL_GPIO_WritePin>
 800172a:	2200      	movs	r2, #0
 800172c:	4885      	ldr	r0, [pc, #532]	; (8001944 <main+0x274>)
 800172e:	2118      	movs	r1, #24
 8001730:	f000 fd06 	bl	8002140 <HAL_GPIO_WritePin>
 8001734:	2400      	movs	r4, #0
 8001736:	f04f 0e60 	mov.w	lr, #96	; 0x60
 800173a:	2303      	movs	r3, #3
 800173c:	a907      	add	r1, sp, #28
 800173e:	f04f 4090 	mov.w	r0, #1207959552	; 0x48000000
 8001742:	e9cd e307 	strd	lr, r3, [sp, #28]
 8001746:	2501      	movs	r5, #1
 8001748:	9409      	str	r4, [sp, #36]	; 0x24
 800174a:	f000 fbc7 	bl	8001edc <HAL_GPIO_Init>
 800174e:	2380      	movs	r3, #128	; 0x80
 8001750:	a907      	add	r1, sp, #28
 8001752:	f04f 4090 	mov.w	r0, #1207959552	; 0x48000000
 8001756:	e9cd 3507 	strd	r3, r5, [sp, #28]
 800175a:	e9cd 4409 	strd	r4, r4, [sp, #36]	; 0x24
 800175e:	f000 fbbd 	bl	8001edc <HAL_GPIO_Init>
 8001762:	2308      	movs	r3, #8
 8001764:	4877      	ldr	r0, [pc, #476]	; (8001944 <main+0x274>)
 8001766:	a907      	add	r1, sp, #28
 8001768:	e9cd 3507 	strd	r3, r5, [sp, #28]
 800176c:	e9cd 4409 	strd	r4, r4, [sp, #36]	; 0x24
 8001770:	2610      	movs	r6, #16
 8001772:	f000 fbb3 	bl	8001edc <HAL_GPIO_Init>
 8001776:	4873      	ldr	r0, [pc, #460]	; (8001944 <main+0x274>)
 8001778:	a907      	add	r1, sp, #28
 800177a:	e9cd 4509 	strd	r4, r5, [sp, #36]	; 0x24
 800177e:	e9cd 6507 	strd	r6, r5, [sp, #28]
 8001782:	f000 fbab 	bl	8001edc <HAL_GPIO_Init>
 8001786:	4870      	ldr	r0, [pc, #448]	; (8001948 <main+0x278>)
 8001788:	4a70      	ldr	r2, [pc, #448]	; (800194c <main+0x27c>)
 800178a:	6104      	str	r4, [r0, #16]
 800178c:	f44f 5316 	mov.w	r3, #9600	; 0x2580
 8001790:	270c      	movs	r7, #12
 8001792:	e9c0 4402 	strd	r4, r4, [r0, #8]
 8001796:	e9c0 7405 	strd	r7, r4, [r0, #20]
 800179a:	e9c0 4407 	strd	r4, r4, [r0, #28]
 800179e:	6244      	str	r4, [r0, #36]	; 0x24
 80017a0:	e9c0 2300 	strd	r2, r3, [r0]
 80017a4:	f002 fd28 	bl	80041f8 <HAL_UART_Init>
 80017a8:	4604      	mov	r4, r0
 80017aa:	b108      	cbz	r0, 80017b0 <main+0xe0>
 80017ac:	b672      	cpsid	i
 80017ae:	e7fe      	b.n	80017ae <main+0xde>
 80017b0:	f7ff fd96 	bl	80012e0 <MX_I2C1_Init>
 80017b4:	4866      	ldr	r0, [pc, #408]	; (8001950 <main+0x280>)
 80017b6:	f8df c1c4 	ldr.w	ip, [pc, #452]	; 800197c <main+0x2ac>
 80017ba:	f44f 4296 	mov.w	r2, #19200	; 0x4b00
 80017be:	e9c0 4402 	strd	r4, r4, [r0, #8]
 80017c2:	e9c0 4704 	strd	r4, r7, [r0, #16]
 80017c6:	e9c0 4406 	strd	r4, r4, [r0, #24]
 80017ca:	e9c0 4408 	strd	r4, r4, [r0, #32]
 80017ce:	e9c0 c200 	strd	ip, r2, [r0]
 80017d2:	f002 fd11 	bl	80041f8 <HAL_UART_Init>
 80017d6:	4604      	mov	r4, r0
 80017d8:	b108      	cbz	r0, 80017de <main+0x10e>
 80017da:	b672      	cpsid	i
 80017dc:	e7fe      	b.n	80017dc <main+0x10c>
 80017de:	4601      	mov	r1, r0
 80017e0:	4632      	mov	r2, r6
 80017e2:	a807      	add	r0, sp, #28
 80017e4:	f003 fbd8 	bl	8004f98 <memset>
 80017e8:	4f5a      	ldr	r7, [pc, #360]	; (8001954 <main+0x284>)
 80017ea:	485b      	ldr	r0, [pc, #364]	; (8001958 <main+0x288>)
 80017ec:	9406      	str	r4, [sp, #24]
 80017ee:	f643 5308 	movw	r3, #15624	; 0x3d08
 80017f2:	e9c7 0300 	strd	r0, r3, [r7]
 80017f6:	f64f 73ff 	movw	r3, #65535	; 0xffff
 80017fa:	4638      	mov	r0, r7
 80017fc:	e9cd 4404 	strd	r4, r4, [sp, #16]
 8001800:	e9c7 3403 	strd	r3, r4, [r7, #12]
 8001804:	e9c7 4405 	strd	r4, r4, [r7, #20]
 8001808:	60bc      	str	r4, [r7, #8]
 800180a:	f002 f96d 	bl	8003ae8 <HAL_TIM_Base_Init>
 800180e:	b108      	cbz	r0, 8001814 <main+0x144>
 8001810:	b672      	cpsid	i
 8001812:	e7fe      	b.n	8001812 <main+0x142>
 8001814:	f44f 5380 	mov.w	r3, #4096	; 0x1000
 8001818:	a907      	add	r1, sp, #28
 800181a:	4638      	mov	r0, r7
 800181c:	9307      	str	r3, [sp, #28]
 800181e:	f002 f99d 	bl	8003b5c <HAL_TIM_ConfigClockSource>
 8001822:	b108      	cbz	r0, 8001828 <main+0x158>
 8001824:	b672      	cpsid	i
 8001826:	e7fe      	b.n	8001826 <main+0x156>
 8001828:	e9cd 0004 	strd	r0, r0, [sp, #16]
 800182c:	9006      	str	r0, [sp, #24]
 800182e:	a904      	add	r1, sp, #16
 8001830:	4638      	mov	r0, r7
 8001832:	f002 fa2d 	bl	8003c90 <HAL_TIMEx_MasterConfigSynchronization>
 8001836:	b108      	cbz	r0, 800183c <main+0x16c>
 8001838:	b672      	cpsid	i
 800183a:	e7fe      	b.n	800183a <main+0x16a>
 800183c:	4c47      	ldr	r4, [pc, #284]	; (800195c <main+0x28c>)
 800183e:	4b48      	ldr	r3, [pc, #288]	; (8001960 <main+0x290>)
 8001840:	6023      	str	r3, [r4, #0]
 8001842:	217f      	movs	r1, #127	; 0x7f
 8001844:	23ff      	movs	r3, #255	; 0xff
 8001846:	e9c4 1303 	strd	r1, r3, [r4, #12]
 800184a:	f04f 4380 	mov.w	r3, #1073741824	; 0x40000000
 800184e:	e9c4 0005 	strd	r0, r0, [r4, #20]
 8001852:	e9c4 3008 	strd	r3, r0, [r4, #32]
 8001856:	60a0      	str	r0, [r4, #8]
 8001858:	61e0      	str	r0, [r4, #28]
 800185a:	4620      	mov	r0, r4
 800185c:	f001 ff9c 	bl	8003798 <HAL_RTC_Init>
 8001860:	4602      	mov	r2, r0
 8001862:	b108      	cbz	r0, 8001868 <main+0x198>
 8001864:	b672      	cpsid	i
 8001866:	e7fe      	b.n	8001866 <main+0x196>
 8001868:	4620      	mov	r0, r4
 800186a:	f44f 4170 	mov.w	r1, #61440	; 0xf000
 800186e:	f001 ffe9 	bl	8003844 <HAL_RTCEx_SetWakeUpTimer>
 8001872:	4604      	mov	r4, r0
 8001874:	b108      	cbz	r0, 800187a <main+0x1aa>
 8001876:	b672      	cpsid	i
 8001878:	e7fe      	b.n	8001878 <main+0x1a8>
 800187a:	f7ff fda7 	bl	80013cc <global_init_Done>
 800187e:	462a      	mov	r2, r5
 8001880:	4631      	mov	r1, r6
 8001882:	4830      	ldr	r0, [pc, #192]	; (8001944 <main+0x274>)
 8001884:	f000 fc5c 	bl	8002140 <HAL_GPIO_WritePin>
 8001888:	200a      	movs	r0, #10
 800188a:	f000 fabb 	bl	8001e04 <HAL_Delay>
 800188e:	4622      	mov	r2, r4
 8001890:	4631      	mov	r1, r6
 8001892:	482c      	ldr	r0, [pc, #176]	; (8001944 <main+0x274>)
 8001894:	f000 fc54 	bl	8002140 <HAL_GPIO_WritePin>
 8001898:	200a      	movs	r0, #10
 800189a:	f000 fab3 	bl	8001e04 <HAL_Delay>
 800189e:	462a      	mov	r2, r5
 80018a0:	4631      	mov	r1, r6
 80018a2:	4828      	ldr	r0, [pc, #160]	; (8001944 <main+0x274>)
 80018a4:	f000 fc4c 	bl	8002140 <HAL_GPIO_WritePin>
 80018a8:	200a      	movs	r0, #10
 80018aa:	f000 faab 	bl	8001e04 <HAL_Delay>
 80018ae:	f000 f9d3 	bl	8001c58 <reset_i2c>
 80018b2:	4b2c      	ldr	r3, [pc, #176]	; (8001964 <main+0x294>)
 80018b4:	691a      	ldr	r2, [r3, #16]
 80018b6:	05d2      	lsls	r2, r2, #23
 80018b8:	d53c      	bpl.n	8001934 <main+0x264>
 80018ba:	f44f 7280 	mov.w	r2, #256	; 0x100
 80018be:	619a      	str	r2, [r3, #24]
 80018c0:	2204      	movs	r2, #4
 80018c2:	619a      	str	r2, [r3, #24]
 80018c4:	4828      	ldr	r0, [pc, #160]	; (8001968 <main+0x298>)
 80018c6:	f000 fe1c 	bl	8002502 <HAL_I2C_DeInit>
 80018ca:	200a      	movs	r0, #10
 80018cc:	f000 fa9a 	bl	8001e04 <HAL_Delay>
 80018d0:	f7ff fd06 	bl	80012e0 <MX_I2C1_Init>
 80018d4:	4825      	ldr	r0, [pc, #148]	; (800196c <main+0x29c>)
 80018d6:	4c26      	ldr	r4, [pc, #152]	; (8001970 <main+0x2a0>)
 80018d8:	f003 fa4a 	bl	8004d70 <puts>
 80018dc:	f7ff fd8c 	bl	80013f8 <custom_init_Done>
 80018e0:	481c      	ldr	r0, [pc, #112]	; (8001954 <main+0x284>)
 80018e2:	f002 f899 	bl	8003a18 <HAL_TIM_Base_Start>
 80018e6:	f000 fa87 	bl	8001df8 <HAL_GetTick>
 80018ea:	4b22      	ldr	r3, [pc, #136]	; (8001974 <main+0x2a4>)
 80018ec:	6018      	str	r0, [r3, #0]
 80018ee:	4819      	ldr	r0, [pc, #100]	; (8001954 <main+0x284>)
 80018f0:	f002 f892 	bl	8003a18 <HAL_TIM_Base_Start>
 80018f4:	f000 fa80 	bl	8001df8 <HAL_GetTick>
 80018f8:	f7ff fbe0 	bl	80010bc <LTR_329_setup>
 80018fc:	f7ff fb04 	bl	8000f08 <ADXL345_WakeUp>
 8001900:	f7ff fad0 	bl	8000ea4 <ADXL345_Init>
 8001904:	f000 f83e 	bl	8001984 <drive_rover>
 8001908:	f7ff fd8c 	bl	8001424 <SHT40_measure>
 800190c:	f7ff fc5e 	bl	80011cc <LTR_329_measure>
 8001910:	f7ff fb3a 	bl	8000f88 <ADXL345_Measure>
 8001914:	2300      	movs	r3, #0
 8001916:	2207      	movs	r2, #7
 8001918:	2101      	movs	r1, #1
 800191a:	4618      	mov	r0, r3
 800191c:	f7ff fe4c 	bl	80015b8 <format_data>
 8001920:	4620      	mov	r0, r4
 8001922:	f7ff fba9 	bl	8001078 <slave_send_data_to_BLE>
 8001926:	b138      	cbz	r0, 8001938 <main+0x268>
 8001928:	200a      	movs	r0, #10
 800192a:	f000 fa6b 	bl	8001e04 <HAL_Delay>
 800192e:	f000 f96d 	bl	8001c0c <enterStandbyMode>
 8001932:	e7fe      	b.n	8001932 <main+0x262>
 8001934:	4810      	ldr	r0, [pc, #64]	; (8001978 <main+0x2a8>)
 8001936:	e7ce      	b.n	80018d6 <main+0x206>
 8001938:	2005      	movs	r0, #5
 800193a:	f000 fa63 	bl	8001e04 <HAL_Delay>
 800193e:	e7ef      	b.n	8001920 <main+0x250>
 8001940:	40021000 	.word	0x40021000
 8001944:	48000400 	.word	0x48000400
 8001948:	20000360 	.word	0x20000360
 800194c:	40004400 	.word	0x40004400
 8001950:	200002d8 	.word	0x200002d8
 8001954:	2000028c 	.word	0x2000028c
 8001958:	40012c00 	.word	0x40012c00
 800195c:	20000260 	.word	0x20000260
 8001960:	40002800 	.word	0x40002800
 8001964:	40007000 	.word	0x40007000
 8001968:	2000020c 	.word	0x2000020c
 800196c:	08007325 	.word	0x08007325
 8001970:	200001f4 	.word	0x200001f4
 8001974:	200003f0 	.word	0x200003f0
 8001978:	08007342 	.word	0x08007342
 800197c:	40013800 	.word	0x40013800

08001980 <Error_Handler>:
 8001980:	b672      	cpsid	i
 8001982:	e7fe      	b.n	8001982 <Error_Handler+0x2>

08001984 <drive_rover>:
 8001984:	b51f      	push	{r0, r1, r2, r3, r4, lr}
 8001986:	4909      	ldr	r1, [pc, #36]	; (80019ac <drive_rover+0x28>)
 8001988:	4668      	mov	r0, sp
 800198a:	f003 fb94 	bl	80050b6 <strcpy>
 800198e:	4668      	mov	r0, sp
 8001990:	f7fe fc6e 	bl	8000270 <strlen>
 8001994:	2364      	movs	r3, #100	; 0x64
 8001996:	b282      	uxth	r2, r0
 8001998:	4669      	mov	r1, sp
 800199a:	4805      	ldr	r0, [pc, #20]	; (80019b0 <drive_rover+0x2c>)
 800199c:	f002 fb80 	bl	80040a0 <HAL_UART_Transmit>
 80019a0:	4804      	ldr	r0, [pc, #16]	; (80019b4 <drive_rover+0x30>)
 80019a2:	f003 f9e5 	bl	8004d70 <puts>
 80019a6:	b005      	add	sp, #20
 80019a8:	f85d fb04 	ldr.w	pc, [sp], #4
 80019ac:	08007352 	.word	0x08007352
 80019b0:	200002d8 	.word	0x200002d8
 80019b4:	08007362 	.word	0x08007362

080019b8 <HAL_MspInit>:
 80019b8:	4b0a      	ldr	r3, [pc, #40]	; (80019e4 <HAL_MspInit+0x2c>)
 80019ba:	6e1a      	ldr	r2, [r3, #96]	; 0x60
 80019bc:	f042 0201 	orr.w	r2, r2, #1
 80019c0:	661a      	str	r2, [r3, #96]	; 0x60
 80019c2:	6e1a      	ldr	r2, [r3, #96]	; 0x60
 80019c4:	b082      	sub	sp, #8
 80019c6:	f002 0201 	and.w	r2, r2, #1
 80019ca:	9200      	str	r2, [sp, #0]
 80019cc:	9a00      	ldr	r2, [sp, #0]
 80019ce:	6d9a      	ldr	r2, [r3, #88]	; 0x58
 80019d0:	f042 5280 	orr.w	r2, r2, #268435456	; 0x10000000
 80019d4:	659a      	str	r2, [r3, #88]	; 0x58
 80019d6:	6d9b      	ldr	r3, [r3, #88]	; 0x58
 80019d8:	f003 5380 	and.w	r3, r3, #268435456	; 0x10000000
 80019dc:	9301      	str	r3, [sp, #4]
 80019de:	9b01      	ldr	r3, [sp, #4]
 80019e0:	b002      	add	sp, #8
 80019e2:	4770      	bx	lr
 80019e4:	40021000 	.word	0x40021000

080019e8 <HAL_I2C_MspInit>:
 80019e8:	b5f0      	push	{r4, r5, r6, r7, lr}
 80019ea:	b095      	sub	sp, #84	; 0x54
 80019ec:	4604      	mov	r4, r0
 80019ee:	2214      	movs	r2, #20
 80019f0:	2100      	movs	r1, #0
 80019f2:	a802      	add	r0, sp, #8
 80019f4:	f003 fad0 	bl	8004f98 <memset>
 80019f8:	2234      	movs	r2, #52	; 0x34
 80019fa:	2100      	movs	r1, #0
 80019fc:	a807      	add	r0, sp, #28
 80019fe:	f003 facb 	bl	8004f98 <memset>
 8001a02:	6822      	ldr	r2, [r4, #0]
 8001a04:	4b1c      	ldr	r3, [pc, #112]	; (8001a78 <HAL_I2C_MspInit+0x90>)
 8001a06:	429a      	cmp	r2, r3
 8001a08:	d133      	bne.n	8001a72 <HAL_I2C_MspInit+0x8a>
 8001a0a:	2340      	movs	r3, #64	; 0x40
 8001a0c:	a807      	add	r0, sp, #28
 8001a0e:	9307      	str	r3, [sp, #28]
 8001a10:	f001 fd66 	bl	80034e0 <HAL_RCCEx_PeriphCLKConfig>
 8001a14:	b108      	cbz	r0, 8001a1a <HAL_I2C_MspInit+0x32>
 8001a16:	f7ff ffb3 	bl	8001980 <Error_Handler>
 8001a1a:	4c18      	ldr	r4, [pc, #96]	; (8001a7c <HAL_I2C_MspInit+0x94>)
 8001a1c:	4818      	ldr	r0, [pc, #96]	; (8001a80 <HAL_I2C_MspInit+0x98>)
 8001a1e:	6ce3      	ldr	r3, [r4, #76]	; 0x4c
 8001a20:	f043 0302 	orr.w	r3, r3, #2
 8001a24:	64e3      	str	r3, [r4, #76]	; 0x4c
 8001a26:	6ce3      	ldr	r3, [r4, #76]	; 0x4c
 8001a28:	f003 0302 	and.w	r3, r3, #2
 8001a2c:	9300      	str	r3, [sp, #0]
 8001a2e:	9b00      	ldr	r3, [sp, #0]
 8001a30:	2712      	movs	r7, #18
 8001a32:	2340      	movs	r3, #64	; 0x40
 8001a34:	e9cd 3702 	strd	r3, r7, [sp, #8]
 8001a38:	2603      	movs	r6, #3
 8001a3a:	2301      	movs	r3, #1
 8001a3c:	2504      	movs	r5, #4
 8001a3e:	a902      	add	r1, sp, #8
 8001a40:	e9cd 3604 	strd	r3, r6, [sp, #16]
 8001a44:	9506      	str	r5, [sp, #24]
 8001a46:	f000 fa49 	bl	8001edc <HAL_GPIO_Init>
 8001a4a:	2380      	movs	r3, #128	; 0x80
 8001a4c:	e9cd 3702 	strd	r3, r7, [sp, #8]
 8001a50:	480b      	ldr	r0, [pc, #44]	; (8001a80 <HAL_I2C_MspInit+0x98>)
 8001a52:	9506      	str	r5, [sp, #24]
 8001a54:	2300      	movs	r3, #0
 8001a56:	a902      	add	r1, sp, #8
 8001a58:	e9cd 3604 	strd	r3, r6, [sp, #16]
 8001a5c:	f000 fa3e 	bl	8001edc <HAL_GPIO_Init>
 8001a60:	6da3      	ldr	r3, [r4, #88]	; 0x58
 8001a62:	f443 1300 	orr.w	r3, r3, #2097152	; 0x200000
 8001a66:	65a3      	str	r3, [r4, #88]	; 0x58
 8001a68:	6da3      	ldr	r3, [r4, #88]	; 0x58
 8001a6a:	f403 1300 	and.w	r3, r3, #2097152	; 0x200000
 8001a6e:	9301      	str	r3, [sp, #4]
 8001a70:	9b01      	ldr	r3, [sp, #4]
 8001a72:	b015      	add	sp, #84	; 0x54
 8001a74:	bdf0      	pop	{r4, r5, r6, r7, pc}
 8001a76:	bf00      	nop
 8001a78:	40005400 	.word	0x40005400
 8001a7c:	40021000 	.word	0x40021000
 8001a80:	48000400 	.word	0x48000400

08001a84 <HAL_I2C_MspDeInit>:
 8001a84:	b508      	push	{r3, lr}
 8001a86:	6802      	ldr	r2, [r0, #0]
 8001a88:	4b09      	ldr	r3, [pc, #36]	; (8001ab0 <HAL_I2C_MspDeInit+0x2c>)
 8001a8a:	429a      	cmp	r2, r3
 8001a8c:	d10e      	bne.n	8001aac <HAL_I2C_MspDeInit+0x28>
 8001a8e:	4a09      	ldr	r2, [pc, #36]	; (8001ab4 <HAL_I2C_MspDeInit+0x30>)
 8001a90:	4809      	ldr	r0, [pc, #36]	; (8001ab8 <HAL_I2C_MspDeInit+0x34>)
 8001a92:	6d93      	ldr	r3, [r2, #88]	; 0x58
 8001a94:	f423 1300 	bic.w	r3, r3, #2097152	; 0x200000
 8001a98:	6593      	str	r3, [r2, #88]	; 0x58
 8001a9a:	2140      	movs	r1, #64	; 0x40
 8001a9c:	f000 fadc 	bl	8002058 <HAL_GPIO_DeInit>
 8001aa0:	e8bd 4008 	ldmia.w	sp!, {r3, lr}
 8001aa4:	4804      	ldr	r0, [pc, #16]	; (8001ab8 <HAL_I2C_MspDeInit+0x34>)
 8001aa6:	2180      	movs	r1, #128	; 0x80
 8001aa8:	f000 bad6 	b.w	8002058 <HAL_GPIO_DeInit>
 8001aac:	bd08      	pop	{r3, pc}
 8001aae:	bf00      	nop
 8001ab0:	40005400 	.word	0x40005400
 8001ab4:	40021000 	.word	0x40021000
 8001ab8:	48000400 	.word	0x48000400

08001abc <HAL_RTC_MspInit>:
 8001abc:	b510      	push	{r4, lr}
 8001abe:	4604      	mov	r4, r0
 8001ac0:	b08e      	sub	sp, #56	; 0x38
 8001ac2:	2234      	movs	r2, #52	; 0x34
 8001ac4:	2100      	movs	r1, #0
 8001ac6:	a801      	add	r0, sp, #4
 8001ac8:	f003 fa66 	bl	8004f98 <memset>
 8001acc:	6822      	ldr	r2, [r4, #0]
 8001ace:	4b0c      	ldr	r3, [pc, #48]	; (8001b00 <HAL_RTC_MspInit+0x44>)
 8001ad0:	429a      	cmp	r2, r3
 8001ad2:	d112      	bne.n	8001afa <HAL_RTC_MspInit+0x3e>
 8001ad4:	f44f 3300 	mov.w	r3, #131072	; 0x20000
 8001ad8:	9301      	str	r3, [sp, #4]
 8001ada:	a801      	add	r0, sp, #4
 8001adc:	f44f 7380 	mov.w	r3, #256	; 0x100
 8001ae0:	930d      	str	r3, [sp, #52]	; 0x34
 8001ae2:	f001 fcfd 	bl	80034e0 <HAL_RCCEx_PeriphCLKConfig>
 8001ae6:	b108      	cbz	r0, 8001aec <HAL_RTC_MspInit+0x30>
 8001ae8:	f7ff ff4a 	bl	8001980 <Error_Handler>
 8001aec:	4a05      	ldr	r2, [pc, #20]	; (8001b04 <HAL_RTC_MspInit+0x48>)
 8001aee:	f8d2 3090 	ldr.w	r3, [r2, #144]	; 0x90
 8001af2:	f443 4300 	orr.w	r3, r3, #32768	; 0x8000
 8001af6:	f8c2 3090 	str.w	r3, [r2, #144]	; 0x90
 8001afa:	b00e      	add	sp, #56	; 0x38
 8001afc:	bd10      	pop	{r4, pc}
 8001afe:	bf00      	nop
 8001b00:	40002800 	.word	0x40002800
 8001b04:	40021000 	.word	0x40021000

08001b08 <HAL_TIM_Base_MspInit>:
 8001b08:	6802      	ldr	r2, [r0, #0]
 8001b0a:	4b08      	ldr	r3, [pc, #32]	; (8001b2c <HAL_TIM_Base_MspInit+0x24>)
 8001b0c:	429a      	cmp	r2, r3
 8001b0e:	b082      	sub	sp, #8
 8001b10:	d10a      	bne.n	8001b28 <HAL_TIM_Base_MspInit+0x20>
 8001b12:	f503 4364 	add.w	r3, r3, #58368	; 0xe400
 8001b16:	6e1a      	ldr	r2, [r3, #96]	; 0x60
 8001b18:	f442 6200 	orr.w	r2, r2, #2048	; 0x800
 8001b1c:	661a      	str	r2, [r3, #96]	; 0x60
 8001b1e:	6e1b      	ldr	r3, [r3, #96]	; 0x60
 8001b20:	f403 6300 	and.w	r3, r3, #2048	; 0x800
 8001b24:	9301      	str	r3, [sp, #4]
 8001b26:	9b01      	ldr	r3, [sp, #4]
 8001b28:	b002      	add	sp, #8
 8001b2a:	4770      	bx	lr
 8001b2c:	40012c00 	.word	0x40012c00

08001b30 <HAL_UART_MspInit>:
 8001b30:	b510      	push	{r4, lr}
 8001b32:	b096      	sub	sp, #88	; 0x58
 8001b34:	4604      	mov	r4, r0
 8001b36:	2214      	movs	r2, #20
 8001b38:	2100      	movs	r1, #0
 8001b3a:	a804      	add	r0, sp, #16
 8001b3c:	f003 fa2c 	bl	8004f98 <memset>
 8001b40:	2234      	movs	r2, #52	; 0x34
 8001b42:	2100      	movs	r1, #0
 8001b44:	a809      	add	r0, sp, #36	; 0x24
 8001b46:	f003 fa27 	bl	8004f98 <memset>
 8001b4a:	6823      	ldr	r3, [r4, #0]
 8001b4c:	4a27      	ldr	r2, [pc, #156]	; (8001bec <HAL_UART_MspInit+0xbc>)
 8001b4e:	4293      	cmp	r3, r2
 8001b50:	d12c      	bne.n	8001bac <HAL_UART_MspInit+0x7c>
 8001b52:	2301      	movs	r3, #1
 8001b54:	a809      	add	r0, sp, #36	; 0x24
 8001b56:	9309      	str	r3, [sp, #36]	; 0x24
 8001b58:	f001 fcc2 	bl	80034e0 <HAL_RCCEx_PeriphCLKConfig>
 8001b5c:	b108      	cbz	r0, 8001b62 <HAL_UART_MspInit+0x32>
 8001b5e:	f7ff ff0f 	bl	8001980 <Error_Handler>
 8001b62:	4b23      	ldr	r3, [pc, #140]	; (8001bf0 <HAL_UART_MspInit+0xc0>)
 8001b64:	6e1a      	ldr	r2, [r3, #96]	; 0x60
 8001b66:	f442 4280 	orr.w	r2, r2, #16384	; 0x4000
 8001b6a:	661a      	str	r2, [r3, #96]	; 0x60
 8001b6c:	6e1a      	ldr	r2, [r3, #96]	; 0x60
 8001b6e:	f402 4280 	and.w	r2, r2, #16384	; 0x4000
 8001b72:	9200      	str	r2, [sp, #0]
 8001b74:	9a00      	ldr	r2, [sp, #0]
 8001b76:	6cda      	ldr	r2, [r3, #76]	; 0x4c
 8001b78:	f042 0201 	orr.w	r2, r2, #1
 8001b7c:	64da      	str	r2, [r3, #76]	; 0x4c
 8001b7e:	6cdb      	ldr	r3, [r3, #76]	; 0x4c
 8001b80:	f003 0301 	and.w	r3, r3, #1
 8001b84:	9301      	str	r3, [sp, #4]
 8001b86:	9b01      	ldr	r3, [sp, #4]
 8001b88:	f44f 63c0 	mov.w	r3, #1536	; 0x600
 8001b8c:	9304      	str	r3, [sp, #16]
 8001b8e:	2202      	movs	r2, #2
 8001b90:	2300      	movs	r3, #0
 8001b92:	2103      	movs	r1, #3
 8001b94:	e9cd 2305 	strd	r2, r3, [sp, #20]
 8001b98:	2307      	movs	r3, #7
 8001b9a:	e9cd 1307 	strd	r1, r3, [sp, #28]
 8001b9e:	f04f 4090 	mov.w	r0, #1207959552	; 0x48000000
 8001ba2:	a904      	add	r1, sp, #16
 8001ba4:	f000 f99a 	bl	8001edc <HAL_GPIO_Init>
 8001ba8:	b016      	add	sp, #88	; 0x58
 8001baa:	bd10      	pop	{r4, pc}
 8001bac:	4a11      	ldr	r2, [pc, #68]	; (8001bf4 <HAL_UART_MspInit+0xc4>)
 8001bae:	4293      	cmp	r3, r2
 8001bb0:	d1fa      	bne.n	8001ba8 <HAL_UART_MspInit+0x78>
 8001bb2:	2302      	movs	r3, #2
 8001bb4:	a809      	add	r0, sp, #36	; 0x24
 8001bb6:	9309      	str	r3, [sp, #36]	; 0x24
 8001bb8:	f001 fc92 	bl	80034e0 <HAL_RCCEx_PeriphCLKConfig>
 8001bbc:	b108      	cbz	r0, 8001bc2 <HAL_UART_MspInit+0x92>
 8001bbe:	f7ff fedf 	bl	8001980 <Error_Handler>
 8001bc2:	4b0b      	ldr	r3, [pc, #44]	; (8001bf0 <HAL_UART_MspInit+0xc0>)
 8001bc4:	6d9a      	ldr	r2, [r3, #88]	; 0x58
 8001bc6:	f442 3200 	orr.w	r2, r2, #131072	; 0x20000
 8001bca:	659a      	str	r2, [r3, #88]	; 0x58
 8001bcc:	6d9a      	ldr	r2, [r3, #88]	; 0x58
 8001bce:	f402 3200 	and.w	r2, r2, #131072	; 0x20000
 8001bd2:	9202      	str	r2, [sp, #8]
 8001bd4:	9a02      	ldr	r2, [sp, #8]
 8001bd6:	6cda      	ldr	r2, [r3, #76]	; 0x4c
 8001bd8:	f042 0201 	orr.w	r2, r2, #1
 8001bdc:	64da      	str	r2, [r3, #76]	; 0x4c
 8001bde:	6cdb      	ldr	r3, [r3, #76]	; 0x4c
 8001be0:	f003 0301 	and.w	r3, r3, #1
 8001be4:	9303      	str	r3, [sp, #12]
 8001be6:	9b03      	ldr	r3, [sp, #12]
 8001be8:	230c      	movs	r3, #12
 8001bea:	e7cf      	b.n	8001b8c <HAL_UART_MspInit+0x5c>
 8001bec:	40013800 	.word	0x40013800
 8001bf0:	40021000 	.word	0x40021000
 8001bf4:	40004400 	.word	0x40004400

08001bf8 <NMI_Handler>:
 8001bf8:	e7fe      	b.n	8001bf8 <NMI_Handler>

08001bfa <HardFault_Handler>:
 8001bfa:	e7fe      	b.n	8001bfa <HardFault_Handler>

08001bfc <MemManage_Handler>:
 8001bfc:	e7fe      	b.n	8001bfc <MemManage_Handler>

08001bfe <BusFault_Handler>:
 8001bfe:	e7fe      	b.n	8001bfe <BusFault_Handler>

08001c00 <UsageFault_Handler>:
 8001c00:	e7fe      	b.n	8001c00 <UsageFault_Handler>

08001c02 <SVC_Handler>:
 8001c02:	4770      	bx	lr

08001c04 <DebugMon_Handler>:
 8001c04:	4770      	bx	lr

08001c06 <PendSV_Handler>:
 8001c06:	4770      	bx	lr

08001c08 <SysTick_Handler>:
 8001c08:	f000 b8ea 	b.w	8001de0 <HAL_IncTick>

08001c0c <enterStandbyMode>:
 8001c0c:	b508      	push	{r3, lr}
 8001c0e:	480e      	ldr	r0, [pc, #56]	; (8001c48 <enterStandbyMode+0x3c>)
 8001c10:	f000 fc77 	bl	8002502 <HAL_I2C_DeInit>
 8001c14:	480d      	ldr	r0, [pc, #52]	; (8001c4c <enterStandbyMode+0x40>)
 8001c16:	f001 fec3 	bl	80039a0 <HAL_RTCEx_DeactivateWakeUpTimer>
 8001c1a:	2300      	movs	r3, #0
 8001c1c:	480b      	ldr	r0, [pc, #44]	; (8001c4c <enterStandbyMode+0x40>)
 8001c1e:	461a      	mov	r2, r3
 8001c20:	f44f 4170 	mov.w	r1, #61440	; 0xf000
 8001c24:	f001 fe58 	bl	80038d8 <HAL_RTCEx_SetWakeUpTimer_IT>
 8001c28:	b108      	cbz	r0, 8001c2e <enterStandbyMode+0x22>
 8001c2a:	f7ff fea9 	bl	8001980 <Error_Handler>
 8001c2e:	4b08      	ldr	r3, [pc, #32]	; (8001c50 <enterStandbyMode+0x44>)
 8001c30:	4808      	ldr	r0, [pc, #32]	; (8001c54 <enterStandbyMode+0x48>)
 8001c32:	f44f 7280 	mov.w	r2, #256	; 0x100
 8001c36:	619a      	str	r2, [r3, #24]
 8001c38:	2204      	movs	r2, #4
 8001c3a:	619a      	str	r2, [r3, #24]
 8001c3c:	f003 f898 	bl	8004d70 <puts>
 8001c40:	e8bd 4008 	ldmia.w	sp!, {r3, lr}
 8001c44:	f000 bfc8 	b.w	8002bd8 <HAL_PWR_EnterSTANDBYMode>
 8001c48:	2000020c 	.word	0x2000020c
 8001c4c:	20000260 	.word	0x20000260
 8001c50:	40007000 	.word	0x40007000
 8001c54:	08007373 	.word	0x08007373

08001c58 <reset_i2c>:
 8001c58:	b510      	push	{r4, lr}
 8001c5a:	4c06      	ldr	r4, [pc, #24]	; (8001c74 <reset_i2c+0x1c>)
 8001c5c:	4620      	mov	r0, r4
 8001c5e:	f000 fc50 	bl	8002502 <HAL_I2C_DeInit>
 8001c62:	200a      	movs	r0, #10
 8001c64:	f000 f8ce 	bl	8001e04 <HAL_Delay>
 8001c68:	4620      	mov	r0, r4
 8001c6a:	e8bd 4010 	ldmia.w	sp!, {r4, lr}
 8001c6e:	f000 bbf3 	b.w	8002458 <HAL_I2C_Init>
 8001c72:	bf00      	nop
 8001c74:	2000020c 	.word	0x2000020c

08001c78 <_getpid>:
 8001c78:	2001      	movs	r0, #1
 8001c7a:	4770      	bx	lr

08001c7c <_kill>:
 8001c7c:	b508      	push	{r3, lr}
 8001c7e:	f003 f9ed 	bl	800505c <__errno>
 8001c82:	2316      	movs	r3, #22
 8001c84:	6003      	str	r3, [r0, #0]
 8001c86:	f04f 30ff 	mov.w	r0, #4294967295	; 0xffffffff
 8001c8a:	bd08      	pop	{r3, pc}

08001c8c <_exit>:
 8001c8c:	b508      	push	{r3, lr}
 8001c8e:	f003 f9e5 	bl	800505c <__errno>
 8001c92:	2316      	movs	r3, #22
 8001c94:	6003      	str	r3, [r0, #0]
 8001c96:	e7fe      	b.n	8001c96 <_exit+0xa>

08001c98 <_read>:
 8001c98:	b570      	push	{r4, r5, r6, lr}
 8001c9a:	460d      	mov	r5, r1
 8001c9c:	4614      	mov	r4, r2
 8001c9e:	460e      	mov	r6, r1
 8001ca0:	1b73      	subs	r3, r6, r5
 8001ca2:	429c      	cmp	r4, r3
 8001ca4:	dc01      	bgt.n	8001caa <_read+0x12>
 8001ca6:	4620      	mov	r0, r4
 8001ca8:	bd70      	pop	{r4, r5, r6, pc}
 8001caa:	f3af 8000 	nop.w
 8001cae:	f806 0b01 	strb.w	r0, [r6], #1
 8001cb2:	e7f5      	b.n	8001ca0 <_read+0x8>

08001cb4 <_close>:
 8001cb4:	f04f 30ff 	mov.w	r0, #4294967295	; 0xffffffff
 8001cb8:	4770      	bx	lr

08001cba <_fstat>:
 8001cba:	f44f 5300 	mov.w	r3, #8192	; 0x2000
 8001cbe:	604b      	str	r3, [r1, #4]
 8001cc0:	2000      	movs	r0, #0
 8001cc2:	4770      	bx	lr

08001cc4 <_isatty>:
 8001cc4:	2001      	movs	r0, #1
 8001cc6:	4770      	bx	lr

08001cc8 <_lseek>:
 8001cc8:	2000      	movs	r0, #0
 8001cca:	4770      	bx	lr

08001ccc <_sbrk>:
 8001ccc:	4a0b      	ldr	r2, [pc, #44]	; (8001cfc <_sbrk+0x30>)
 8001cce:	6811      	ldr	r1, [r2, #0]
 8001cd0:	b510      	push	{r4, lr}
 8001cd2:	4603      	mov	r3, r0
 8001cd4:	b909      	cbnz	r1, 8001cda <_sbrk+0xe>
 8001cd6:	490a      	ldr	r1, [pc, #40]	; (8001d00 <_sbrk+0x34>)
 8001cd8:	6011      	str	r1, [r2, #0]
 8001cda:	6810      	ldr	r0, [r2, #0]
 8001cdc:	4909      	ldr	r1, [pc, #36]	; (8001d04 <_sbrk+0x38>)
 8001cde:	4c0a      	ldr	r4, [pc, #40]	; (8001d08 <_sbrk+0x3c>)
 8001ce0:	4403      	add	r3, r0
 8001ce2:	1b09      	subs	r1, r1, r4
 8001ce4:	428b      	cmp	r3, r1
 8001ce6:	d906      	bls.n	8001cf6 <_sbrk+0x2a>
 8001ce8:	f003 f9b8 	bl	800505c <__errno>
 8001cec:	230c      	movs	r3, #12
 8001cee:	6003      	str	r3, [r0, #0]
 8001cf0:	f04f 30ff 	mov.w	r0, #4294967295	; 0xffffffff
 8001cf4:	bd10      	pop	{r4, pc}
 8001cf6:	6013      	str	r3, [r2, #0]
 8001cf8:	e7fc      	b.n	8001cf4 <_sbrk+0x28>
 8001cfa:	bf00      	nop
 8001cfc:	200003f8 	.word	0x200003f8
 8001d00:	20000550 	.word	0x20000550
 8001d04:	2000a000 	.word	0x2000a000
 8001d08:	00000400 	.word	0x00000400

08001d0c <SystemInit>:
 8001d0c:	4a03      	ldr	r2, [pc, #12]	; (8001d1c <SystemInit+0x10>)
 8001d0e:	f8d2 3088 	ldr.w	r3, [r2, #136]	; 0x88
 8001d12:	f443 0370 	orr.w	r3, r3, #15728640	; 0xf00000
 8001d16:	f8c2 3088 	str.w	r3, [r2, #136]	; 0x88
 8001d1a:	4770      	bx	lr
 8001d1c:	e000ed00 	.word	0xe000ed00

08001d20 <Reset_Handler>:
 8001d20:	f8df d034 	ldr.w	sp, [pc, #52]	; 8001d58 <LoopForever+0x2>
 8001d24:	f7ff fff2 	bl	8001d0c <SystemInit>
 8001d28:	480c      	ldr	r0, [pc, #48]	; (8001d5c <LoopForever+0x6>)
 8001d2a:	490d      	ldr	r1, [pc, #52]	; (8001d60 <LoopForever+0xa>)
 8001d2c:	4a0d      	ldr	r2, [pc, #52]	; (8001d64 <LoopForever+0xe>)
 8001d2e:	2300      	movs	r3, #0
 8001d30:	e002      	b.n	8001d38 <LoopCopyDataInit>

08001d32 <CopyDataInit>:
 8001d32:	58d4      	ldr	r4, [r2, r3]
 8001d34:	50c4      	str	r4, [r0, r3]
 8001d36:	3304      	adds	r3, #4

08001d38 <LoopCopyDataInit>:
 8001d38:	18c4      	adds	r4, r0, r3
 8001d3a:	428c      	cmp	r4, r1
 8001d3c:	d3f9      	bcc.n	8001d32 <CopyDataInit>
 8001d3e:	4a0a      	ldr	r2, [pc, #40]	; (8001d68 <LoopForever+0x12>)
 8001d40:	4c0a      	ldr	r4, [pc, #40]	; (8001d6c <LoopForever+0x16>)
 8001d42:	2300      	movs	r3, #0
 8001d44:	e001      	b.n	8001d4a <LoopFillZerobss>

08001d46 <FillZerobss>:
 8001d46:	6013      	str	r3, [r2, #0]
 8001d48:	3204      	adds	r2, #4

08001d4a <LoopFillZerobss>:
 8001d4a:	42a2      	cmp	r2, r4
 8001d4c:	d3fb      	bcc.n	8001d46 <FillZerobss>
 8001d4e:	f003 f98b 	bl	8005068 <__libc_init_array>
 8001d52:	f7ff fcbd 	bl	80016d0 <main>

08001d56 <LoopForever>:
 8001d56:	e7fe      	b.n	8001d56 <LoopForever>
 8001d58:	2000a000 	.word	0x2000a000
 8001d5c:	20000000 	.word	0x20000000
 8001d60:	200001d4 	.word	0x200001d4
 8001d64:	0800775c 	.word	0x0800775c
 8001d68:	200001d4 	.word	0x200001d4
 8001d6c:	2000054c 	.word	0x2000054c

08001d70 <ADC1_2_IRQHandler>:
 8001d70:	e7fe      	b.n	8001d70 <ADC1_2_IRQHandler>
	...

08001d74 <HAL_InitTick>:
 8001d74:	b538      	push	{r3, r4, r5, lr}
 8001d76:	4b0f      	ldr	r3, [pc, #60]	; (8001db4 <HAL_InitTick+0x40>)
 8001d78:	781a      	ldrb	r2, [r3, #0]
 8001d7a:	4605      	mov	r5, r0
 8001d7c:	b90a      	cbnz	r2, 8001d82 <HAL_InitTick+0xe>
 8001d7e:	2001      	movs	r0, #1
 8001d80:	bd38      	pop	{r3, r4, r5, pc}
 8001d82:	f44f 737a 	mov.w	r3, #1000	; 0x3e8
 8001d86:	fbb3 f3f2 	udiv	r3, r3, r2
 8001d8a:	4a0b      	ldr	r2, [pc, #44]	; (8001db8 <HAL_InitTick+0x44>)
 8001d8c:	6810      	ldr	r0, [r2, #0]
 8001d8e:	fbb0 f0f3 	udiv	r0, r0, r3
 8001d92:	f000 f88f 	bl	8001eb4 <HAL_SYSTICK_Config>
 8001d96:	4604      	mov	r4, r0
 8001d98:	2800      	cmp	r0, #0
 8001d9a:	d1f0      	bne.n	8001d7e <HAL_InitTick+0xa>
 8001d9c:	2d0f      	cmp	r5, #15
 8001d9e:	d8ee      	bhi.n	8001d7e <HAL_InitTick+0xa>
 8001da0:	4602      	mov	r2, r0
 8001da2:	4629      	mov	r1, r5
 8001da4:	f04f 30ff 	mov.w	r0, #4294967295	; 0xffffffff
 8001da8:	f000 f852 	bl	8001e50 <HAL_NVIC_SetPriority>
 8001dac:	4b03      	ldr	r3, [pc, #12]	; (8001dbc <HAL_InitTick+0x48>)
 8001dae:	4620      	mov	r0, r4
 8001db0:	601d      	str	r5, [r3, #0]
 8001db2:	e7e5      	b.n	8001d80 <HAL_InitTick+0xc>
 8001db4:	20000004 	.word	0x20000004
 8001db8:	20000000 	.word	0x20000000
 8001dbc:	20000008 	.word	0x20000008

08001dc0 <HAL_Init>:
 8001dc0:	b510      	push	{r4, lr}
 8001dc2:	2003      	movs	r0, #3
 8001dc4:	f000 f832 	bl	8001e2c <HAL_NVIC_SetPriorityGrouping>
 8001dc8:	2000      	movs	r0, #0
 8001dca:	f7ff ffd3 	bl	8001d74 <HAL_InitTick>
 8001dce:	4604      	mov	r4, r0
 8001dd0:	b918      	cbnz	r0, 8001dda <HAL_Init+0x1a>
 8001dd2:	f7ff fdf1 	bl	80019b8 <HAL_MspInit>
 8001dd6:	4620      	mov	r0, r4
 8001dd8:	bd10      	pop	{r4, pc}
 8001dda:	2401      	movs	r4, #1
 8001ddc:	e7fb      	b.n	8001dd6 <HAL_Init+0x16>
	...

08001de0 <HAL_IncTick>:
 8001de0:	4a03      	ldr	r2, [pc, #12]	; (8001df0 <HAL_IncTick+0x10>)
 8001de2:	4b04      	ldr	r3, [pc, #16]	; (8001df4 <HAL_IncTick+0x14>)
 8001de4:	6811      	ldr	r1, [r2, #0]
 8001de6:	781b      	ldrb	r3, [r3, #0]
 8001de8:	440b      	add	r3, r1
 8001dea:	6013      	str	r3, [r2, #0]
 8001dec:	4770      	bx	lr
 8001dee:	bf00      	nop
 8001df0:	200003fc 	.word	0x200003fc
 8001df4:	20000004 	.word	0x20000004

08001df8 <HAL_GetTick>:
 8001df8:	4b01      	ldr	r3, [pc, #4]	; (8001e00 <HAL_GetTick+0x8>)
 8001dfa:	6818      	ldr	r0, [r3, #0]
 8001dfc:	4770      	bx	lr
 8001dfe:	bf00      	nop
 8001e00:	200003fc 	.word	0x200003fc

08001e04 <HAL_Delay>:
 8001e04:	b538      	push	{r3, r4, r5, lr}
 8001e06:	4604      	mov	r4, r0
 8001e08:	f7ff fff6 	bl	8001df8 <HAL_GetTick>
 8001e0c:	1c63      	adds	r3, r4, #1
 8001e0e:	bf1c      	itt	ne
 8001e10:	4b05      	ldrne	r3, [pc, #20]	; (8001e28 <HAL_Delay+0x24>)
 8001e12:	781b      	ldrbne	r3, [r3, #0]
 8001e14:	4605      	mov	r5, r0
 8001e16:	bf18      	it	ne
 8001e18:	18e4      	addne	r4, r4, r3
 8001e1a:	f7ff ffed 	bl	8001df8 <HAL_GetTick>
 8001e1e:	1b43      	subs	r3, r0, r5
 8001e20:	42a3      	cmp	r3, r4
 8001e22:	d3fa      	bcc.n	8001e1a <HAL_Delay+0x16>
 8001e24:	bd38      	pop	{r3, r4, r5, pc}
 8001e26:	bf00      	nop
 8001e28:	20000004 	.word	0x20000004

08001e2c <HAL_NVIC_SetPriorityGrouping>:
 8001e2c:	4907      	ldr	r1, [pc, #28]	; (8001e4c <HAL_NVIC_SetPriorityGrouping+0x20>)
 8001e2e:	68ca      	ldr	r2, [r1, #12]
 8001e30:	f422 62e0 	bic.w	r2, r2, #1792	; 0x700
 8001e34:	0203      	lsls	r3, r0, #8
 8001e36:	0412      	lsls	r2, r2, #16
 8001e38:	f403 63e0 	and.w	r3, r3, #1792	; 0x700
 8001e3c:	0c12      	lsrs	r2, r2, #16
 8001e3e:	4313      	orrs	r3, r2
 8001e40:	f043 63bf 	orr.w	r3, r3, #100139008	; 0x5f80000
 8001e44:	f443 3300 	orr.w	r3, r3, #131072	; 0x20000
 8001e48:	60cb      	str	r3, [r1, #12]
 8001e4a:	4770      	bx	lr
 8001e4c:	e000ed00 	.word	0xe000ed00

08001e50 <HAL_NVIC_SetPriority>:
 8001e50:	4b16      	ldr	r3, [pc, #88]	; (8001eac <HAL_NVIC_SetPriority+0x5c>)
 8001e52:	b530      	push	{r4, r5, lr}
 8001e54:	68dc      	ldr	r4, [r3, #12]
 8001e56:	f3c4 2402 	ubfx	r4, r4, #8, #3
 8001e5a:	f1c4 0307 	rsb	r3, r4, #7
 8001e5e:	1d25      	adds	r5, r4, #4
 8001e60:	2b04      	cmp	r3, #4
 8001e62:	bf28      	it	cs
 8001e64:	2304      	movcs	r3, #4
 8001e66:	2d06      	cmp	r5, #6
 8001e68:	f04f 35ff 	mov.w	r5, #4294967295	; 0xffffffff
 8001e6c:	bf8c      	ite	hi
 8001e6e:	3c03      	subhi	r4, #3
 8001e70:	2400      	movls	r4, #0
 8001e72:	fa05 f303 	lsl.w	r3, r5, r3
 8001e76:	ea21 0303 	bic.w	r3, r1, r3
 8001e7a:	40a5      	lsls	r5, r4
 8001e7c:	ea22 0205 	bic.w	r2, r2, r5
 8001e80:	40a3      	lsls	r3, r4
 8001e82:	2800      	cmp	r0, #0
 8001e84:	ea43 0302 	orr.w	r3, r3, r2
 8001e88:	bfac      	ite	ge
 8001e8a:	f100 4060 	addge.w	r0, r0, #3758096384	; 0xe0000000
 8001e8e:	4a08      	ldrlt	r2, [pc, #32]	; (8001eb0 <HAL_NVIC_SetPriority+0x60>)
 8001e90:	ea4f 1303 	mov.w	r3, r3, lsl #4
 8001e94:	bfb8      	it	lt
 8001e96:	f000 000f 	andlt.w	r0, r0, #15
 8001e9a:	b2db      	uxtb	r3, r3
 8001e9c:	bfaa      	itet	ge
 8001e9e:	f500 4061 	addge.w	r0, r0, #57600	; 0xe100
 8001ea2:	5413      	strblt	r3, [r2, r0]
 8001ea4:	f880 3300 	strbge.w	r3, [r0, #768]	; 0x300
 8001ea8:	bd30      	pop	{r4, r5, pc}
 8001eaa:	bf00      	nop
 8001eac:	e000ed00 	.word	0xe000ed00
 8001eb0:	e000ed14 	.word	0xe000ed14

08001eb4 <HAL_SYSTICK_Config>:
 8001eb4:	3801      	subs	r0, #1
 8001eb6:	f1b0 7f80 	cmp.w	r0, #16777216	; 0x1000000
 8001eba:	d20b      	bcs.n	8001ed4 <HAL_SYSTICK_Config+0x20>
 8001ebc:	f04f 23e0 	mov.w	r3, #3758153728	; 0xe000e000
 8001ec0:	4a05      	ldr	r2, [pc, #20]	; (8001ed8 <HAL_SYSTICK_Config+0x24>)
 8001ec2:	6158      	str	r0, [r3, #20]
 8001ec4:	21f0      	movs	r1, #240	; 0xf0
 8001ec6:	f882 1023 	strb.w	r1, [r2, #35]	; 0x23
 8001eca:	2000      	movs	r0, #0
 8001ecc:	2207      	movs	r2, #7
 8001ece:	6198      	str	r0, [r3, #24]
 8001ed0:	611a      	str	r2, [r3, #16]
 8001ed2:	4770      	bx	lr
 8001ed4:	2001      	movs	r0, #1
 8001ed6:	4770      	bx	lr
 8001ed8:	e000ed00 	.word	0xe000ed00

08001edc <HAL_GPIO_Init>:
 8001edc:	e92d 4ff7 	stmdb	sp!, {r0, r1, r2, r4, r5, r6, r7, r8, r9, sl, fp, lr}
 8001ee0:	f8df 9170 	ldr.w	r9, [pc, #368]	; 8002054 <HAL_GPIO_Init+0x178>
 8001ee4:	4c59      	ldr	r4, [pc, #356]	; (800204c <HAL_GPIO_Init+0x170>)
 8001ee6:	2300      	movs	r3, #0
 8001ee8:	680a      	ldr	r2, [r1, #0]
 8001eea:	fa32 f503 	lsrs.w	r5, r2, r3
 8001eee:	d102      	bne.n	8001ef6 <HAL_GPIO_Init+0x1a>
 8001ef0:	b003      	add	sp, #12
 8001ef2:	e8bd 8ff0 	ldmia.w	sp!, {r4, r5, r6, r7, r8, r9, sl, fp, pc}
 8001ef6:	2501      	movs	r5, #1
 8001ef8:	fa05 f803 	lsl.w	r8, r5, r3
 8001efc:	ea18 0202 	ands.w	r2, r8, r2
 8001f00:	f000 809c 	beq.w	800203c <HAL_GPIO_Init+0x160>
 8001f04:	684e      	ldr	r6, [r1, #4]
 8001f06:	2703      	movs	r7, #3
 8001f08:	f006 0503 	and.w	r5, r6, #3
 8001f0c:	ea4f 0e43 	mov.w	lr, r3, lsl #1
 8001f10:	fa07 fc0e 	lsl.w	ip, r7, lr
 8001f14:	1e6f      	subs	r7, r5, #1
 8001f16:	2f01      	cmp	r7, #1
 8001f18:	ea6f 0c0c 	mvn.w	ip, ip
 8001f1c:	d834      	bhi.n	8001f88 <HAL_GPIO_Init+0xac>
 8001f1e:	6887      	ldr	r7, [r0, #8]
 8001f20:	ea07 0a0c 	and.w	sl, r7, ip
 8001f24:	68cf      	ldr	r7, [r1, #12]
 8001f26:	fa07 f70e 	lsl.w	r7, r7, lr
 8001f2a:	ea47 070a 	orr.w	r7, r7, sl
 8001f2e:	6087      	str	r7, [r0, #8]
 8001f30:	6847      	ldr	r7, [r0, #4]
 8001f32:	ea27 0808 	bic.w	r8, r7, r8
 8001f36:	f3c6 1700 	ubfx	r7, r6, #4, #1
 8001f3a:	409f      	lsls	r7, r3
 8001f3c:	ea47 0708 	orr.w	r7, r7, r8
 8001f40:	6047      	str	r7, [r0, #4]
 8001f42:	68c7      	ldr	r7, [r0, #12]
 8001f44:	ea07 080c 	and.w	r8, r7, ip
 8001f48:	688f      	ldr	r7, [r1, #8]
 8001f4a:	fa07 f70e 	lsl.w	r7, r7, lr
 8001f4e:	ea47 0708 	orr.w	r7, r7, r8
 8001f52:	2d02      	cmp	r5, #2
 8001f54:	60c7      	str	r7, [r0, #12]
 8001f56:	d119      	bne.n	8001f8c <HAL_GPIO_Init+0xb0>
 8001f58:	ea4f 08d3 	mov.w	r8, r3, lsr #3
 8001f5c:	eb00 0888 	add.w	r8, r0, r8, lsl #2
 8001f60:	f003 0a07 	and.w	sl, r3, #7
 8001f64:	f8d8 7020 	ldr.w	r7, [r8, #32]
 8001f68:	ea4f 0a8a 	mov.w	sl, sl, lsl #2
 8001f6c:	f04f 0b0f 	mov.w	fp, #15
 8001f70:	fa0b fb0a 	lsl.w	fp, fp, sl
 8001f74:	ea27 0b0b 	bic.w	fp, r7, fp
 8001f78:	690f      	ldr	r7, [r1, #16]
 8001f7a:	fa07 f70a 	lsl.w	r7, r7, sl
 8001f7e:	ea47 070b 	orr.w	r7, r7, fp
 8001f82:	f8c8 7020 	str.w	r7, [r8, #32]
 8001f86:	e001      	b.n	8001f8c <HAL_GPIO_Init+0xb0>
 8001f88:	2d03      	cmp	r5, #3
 8001f8a:	d1da      	bne.n	8001f42 <HAL_GPIO_Init+0x66>
 8001f8c:	6807      	ldr	r7, [r0, #0]
 8001f8e:	fa05 f50e 	lsl.w	r5, r5, lr
 8001f92:	ea07 070c 	and.w	r7, r7, ip
 8001f96:	433d      	orrs	r5, r7
 8001f98:	f416 3f40 	tst.w	r6, #196608	; 0x30000
 8001f9c:	6005      	str	r5, [r0, #0]
 8001f9e:	d04d      	beq.n	800203c <HAL_GPIO_Init+0x160>
 8001fa0:	f8d9 5060 	ldr.w	r5, [r9, #96]	; 0x60
 8001fa4:	f045 0501 	orr.w	r5, r5, #1
 8001fa8:	f8c9 5060 	str.w	r5, [r9, #96]	; 0x60
 8001fac:	f8d9 5060 	ldr.w	r5, [r9, #96]	; 0x60
 8001fb0:	f023 0703 	bic.w	r7, r3, #3
 8001fb4:	f107 4780 	add.w	r7, r7, #1073741824	; 0x40000000
 8001fb8:	f005 0501 	and.w	r5, r5, #1
 8001fbc:	f507 3780 	add.w	r7, r7, #65536	; 0x10000
 8001fc0:	9501      	str	r5, [sp, #4]
 8001fc2:	f003 0c03 	and.w	ip, r3, #3
 8001fc6:	9d01      	ldr	r5, [sp, #4]
 8001fc8:	68bd      	ldr	r5, [r7, #8]
 8001fca:	ea4f 0c8c 	mov.w	ip, ip, lsl #2
 8001fce:	f04f 0e0f 	mov.w	lr, #15
 8001fd2:	fa0e fe0c 	lsl.w	lr, lr, ip
 8001fd6:	f1b0 4f90 	cmp.w	r0, #1207959552	; 0x48000000
 8001fda:	ea25 0e0e 	bic.w	lr, r5, lr
 8001fde:	d02f      	beq.n	8002040 <HAL_GPIO_Init+0x164>
 8001fe0:	4d1b      	ldr	r5, [pc, #108]	; (8002050 <HAL_GPIO_Init+0x174>)
 8001fe2:	42a8      	cmp	r0, r5
 8001fe4:	d02e      	beq.n	8002044 <HAL_GPIO_Init+0x168>
 8001fe6:	f505 6580 	add.w	r5, r5, #1024	; 0x400
 8001fea:	42a8      	cmp	r0, r5
 8001fec:	d02c      	beq.n	8002048 <HAL_GPIO_Init+0x16c>
 8001fee:	f505 6580 	add.w	r5, r5, #1024	; 0x400
 8001ff2:	42a8      	cmp	r0, r5
 8001ff4:	bf0c      	ite	eq
 8001ff6:	2503      	moveq	r5, #3
 8001ff8:	2507      	movne	r5, #7
 8001ffa:	fa05 f50c 	lsl.w	r5, r5, ip
 8001ffe:	ea45 050e 	orr.w	r5, r5, lr
 8002002:	60bd      	str	r5, [r7, #8]
 8002004:	68a5      	ldr	r5, [r4, #8]
 8002006:	43d7      	mvns	r7, r2
 8002008:	f416 1f80 	tst.w	r6, #1048576	; 0x100000
 800200c:	bf0c      	ite	eq
 800200e:	403d      	andeq	r5, r7
 8002010:	4315      	orrne	r5, r2
 8002012:	60a5      	str	r5, [r4, #8]
 8002014:	68e5      	ldr	r5, [r4, #12]
 8002016:	f416 1f00 	tst.w	r6, #2097152	; 0x200000
 800201a:	bf0c      	ite	eq
 800201c:	403d      	andeq	r5, r7
 800201e:	4315      	orrne	r5, r2
 8002020:	60e5      	str	r5, [r4, #12]
 8002022:	6865      	ldr	r5, [r4, #4]
 8002024:	f416 3f00 	tst.w	r6, #131072	; 0x20000
 8002028:	bf0c      	ite	eq
 800202a:	403d      	andeq	r5, r7
 800202c:	4315      	orrne	r5, r2
 800202e:	6065      	str	r5, [r4, #4]
 8002030:	6825      	ldr	r5, [r4, #0]
 8002032:	03f6      	lsls	r6, r6, #15
 8002034:	bf54      	ite	pl
 8002036:	403d      	andpl	r5, r7
 8002038:	4315      	orrmi	r5, r2
 800203a:	6025      	str	r5, [r4, #0]
 800203c:	3301      	adds	r3, #1
 800203e:	e753      	b.n	8001ee8 <HAL_GPIO_Init+0xc>
 8002040:	2500      	movs	r5, #0
 8002042:	e7da      	b.n	8001ffa <HAL_GPIO_Init+0x11e>
 8002044:	2501      	movs	r5, #1
 8002046:	e7d8      	b.n	8001ffa <HAL_GPIO_Init+0x11e>
 8002048:	2502      	movs	r5, #2
 800204a:	e7d6      	b.n	8001ffa <HAL_GPIO_Init+0x11e>
 800204c:	40010400 	.word	0x40010400
 8002050:	48000400 	.word	0x48000400
 8002054:	40021000 	.word	0x40021000

08002058 <HAL_GPIO_DeInit>:
 8002058:	4a37      	ldr	r2, [pc, #220]	; (8002138 <HAL_GPIO_DeInit+0xe0>)
 800205a:	e92d 4ff0 	stmdb	sp!, {r4, r5, r6, r7, r8, r9, sl, fp, lr}
 800205e:	2300      	movs	r3, #0
 8002060:	f04f 0a01 	mov.w	sl, #1
 8002064:	f04f 080f 	mov.w	r8, #15
 8002068:	f04f 0b03 	mov.w	fp, #3
 800206c:	fa31 f403 	lsrs.w	r4, r1, r3
 8002070:	d101      	bne.n	8002076 <HAL_GPIO_DeInit+0x1e>
 8002072:	e8bd 8ff0 	ldmia.w	sp!, {r4, r5, r6, r7, r8, r9, sl, fp, pc}
 8002076:	fa0a fc03 	lsl.w	ip, sl, r3
 800207a:	ea1c 0601 	ands.w	r6, ip, r1
 800207e:	d052      	beq.n	8002126 <HAL_GPIO_DeInit+0xce>
 8002080:	f023 0403 	bic.w	r4, r3, #3
 8002084:	f104 4480 	add.w	r4, r4, #1073741824	; 0x40000000
 8002088:	f504 3480 	add.w	r4, r4, #65536	; 0x10000
 800208c:	f003 0703 	and.w	r7, r3, #3
 8002090:	68a5      	ldr	r5, [r4, #8]
 8002092:	00bf      	lsls	r7, r7, #2
 8002094:	fa08 f907 	lsl.w	r9, r8, r7
 8002098:	f1b0 4f90 	cmp.w	r0, #1207959552	; 0x48000000
 800209c:	ea09 0e05 	and.w	lr, r9, r5
 80020a0:	d043      	beq.n	800212a <HAL_GPIO_DeInit+0xd2>
 80020a2:	4d26      	ldr	r5, [pc, #152]	; (800213c <HAL_GPIO_DeInit+0xe4>)
 80020a4:	42a8      	cmp	r0, r5
 80020a6:	d042      	beq.n	800212e <HAL_GPIO_DeInit+0xd6>
 80020a8:	f505 6580 	add.w	r5, r5, #1024	; 0x400
 80020ac:	42a8      	cmp	r0, r5
 80020ae:	d040      	beq.n	8002132 <HAL_GPIO_DeInit+0xda>
 80020b0:	f505 6580 	add.w	r5, r5, #1024	; 0x400
 80020b4:	42a8      	cmp	r0, r5
 80020b6:	bf0c      	ite	eq
 80020b8:	2503      	moveq	r5, #3
 80020ba:	2507      	movne	r5, #7
 80020bc:	40bd      	lsls	r5, r7
 80020be:	4575      	cmp	r5, lr
 80020c0:	d113      	bne.n	80020ea <HAL_GPIO_DeInit+0x92>
 80020c2:	6815      	ldr	r5, [r2, #0]
 80020c4:	ea25 0506 	bic.w	r5, r5, r6
 80020c8:	6015      	str	r5, [r2, #0]
 80020ca:	6855      	ldr	r5, [r2, #4]
 80020cc:	ea25 0506 	bic.w	r5, r5, r6
 80020d0:	6055      	str	r5, [r2, #4]
 80020d2:	68d5      	ldr	r5, [r2, #12]
 80020d4:	ea25 0506 	bic.w	r5, r5, r6
 80020d8:	60d5      	str	r5, [r2, #12]
 80020da:	6895      	ldr	r5, [r2, #8]
 80020dc:	ea25 0506 	bic.w	r5, r5, r6
 80020e0:	6095      	str	r5, [r2, #8]
 80020e2:	68a5      	ldr	r5, [r4, #8]
 80020e4:	ea25 0509 	bic.w	r5, r5, r9
 80020e8:	60a5      	str	r5, [r4, #8]
 80020ea:	6805      	ldr	r5, [r0, #0]
 80020ec:	005c      	lsls	r4, r3, #1
 80020ee:	fa0b f404 	lsl.w	r4, fp, r4
 80020f2:	08de      	lsrs	r6, r3, #3
 80020f4:	4325      	orrs	r5, r4
 80020f6:	eb00 0686 	add.w	r6, r0, r6, lsl #2
 80020fa:	6005      	str	r5, [r0, #0]
 80020fc:	f003 0507 	and.w	r5, r3, #7
 8002100:	6a37      	ldr	r7, [r6, #32]
 8002102:	00ad      	lsls	r5, r5, #2
 8002104:	fa08 f505 	lsl.w	r5, r8, r5
 8002108:	ea27 0705 	bic.w	r7, r7, r5
 800210c:	6237      	str	r7, [r6, #32]
 800210e:	6885      	ldr	r5, [r0, #8]
 8002110:	ea25 0504 	bic.w	r5, r5, r4
 8002114:	6085      	str	r5, [r0, #8]
 8002116:	6845      	ldr	r5, [r0, #4]
 8002118:	ea25 050c 	bic.w	r5, r5, ip
 800211c:	6045      	str	r5, [r0, #4]
 800211e:	68c5      	ldr	r5, [r0, #12]
 8002120:	ea25 0404 	bic.w	r4, r5, r4
 8002124:	60c4      	str	r4, [r0, #12]
 8002126:	3301      	adds	r3, #1
 8002128:	e7a0      	b.n	800206c <HAL_GPIO_DeInit+0x14>
 800212a:	2500      	movs	r5, #0
 800212c:	e7c6      	b.n	80020bc <HAL_GPIO_DeInit+0x64>
 800212e:	2501      	movs	r5, #1
 8002130:	e7c4      	b.n	80020bc <HAL_GPIO_DeInit+0x64>
 8002132:	2502      	movs	r5, #2
 8002134:	e7c2      	b.n	80020bc <HAL_GPIO_DeInit+0x64>
 8002136:	bf00      	nop
 8002138:	40010400 	.word	0x40010400
 800213c:	48000400 	.word	0x48000400

08002140 <HAL_GPIO_WritePin>:
 8002140:	b10a      	cbz	r2, 8002146 <HAL_GPIO_WritePin+0x6>
 8002142:	6181      	str	r1, [r0, #24]
 8002144:	4770      	bx	lr
 8002146:	6281      	str	r1, [r0, #40]	; 0x28
 8002148:	4770      	bx	lr

0800214a <I2C_Flush_TXDR>:
 800214a:	6803      	ldr	r3, [r0, #0]
 800214c:	699a      	ldr	r2, [r3, #24]
 800214e:	0791      	lsls	r1, r2, #30
 8002150:	bf44      	itt	mi
 8002152:	2200      	movmi	r2, #0
 8002154:	629a      	strmi	r2, [r3, #40]	; 0x28
 8002156:	699a      	ldr	r2, [r3, #24]
 8002158:	07d2      	lsls	r2, r2, #31
 800215a:	bf5e      	ittt	pl
 800215c:	699a      	ldrpl	r2, [r3, #24]
 800215e:	f042 0201 	orrpl.w	r2, r2, #1
 8002162:	619a      	strpl	r2, [r3, #24]
 8002164:	4770      	bx	lr
	...

08002168 <I2C_TransferConfig>:
 8002168:	b530      	push	{r4, r5, lr}
 800216a:	9d03      	ldr	r5, [sp, #12]
 800216c:	6804      	ldr	r4, [r0, #0]
 800216e:	432b      	orrs	r3, r5
 8002170:	ea43 4302 	orr.w	r3, r3, r2, lsl #16
 8002174:	4a06      	ldr	r2, [pc, #24]	; (8002190 <I2C_TransferConfig+0x28>)
 8002176:	6860      	ldr	r0, [r4, #4]
 8002178:	f3c1 0109 	ubfx	r1, r1, #0, #10
 800217c:	430b      	orrs	r3, r1
 800217e:	ea42 5255 	orr.w	r2, r2, r5, lsr #21
 8002182:	f023 4300 	bic.w	r3, r3, #2147483648	; 0x80000000
 8002186:	ea20 0002 	bic.w	r0, r0, r2
 800218a:	4303      	orrs	r3, r0
 800218c:	6063      	str	r3, [r4, #4]
 800218e:	bd30      	pop	{r4, r5, pc}
 8002190:	03ff63ff 	.word	0x03ff63ff

08002194 <I2C_IsErrorOccurred>:
 8002194:	6803      	ldr	r3, [r0, #0]
 8002196:	e92d 41f0 	stmdb	sp!, {r4, r5, r6, r7, r8, lr}
 800219a:	699c      	ldr	r4, [r3, #24]
 800219c:	f014 0410 	ands.w	r4, r4, #16
 80021a0:	4605      	mov	r5, r0
 80021a2:	460f      	mov	r7, r1
 80021a4:	4616      	mov	r6, r2
 80021a6:	d06f      	beq.n	8002288 <I2C_IsErrorOccurred+0xf4>
 80021a8:	2210      	movs	r2, #16
 80021aa:	2400      	movs	r4, #0
 80021ac:	61da      	str	r2, [r3, #28]
 80021ae:	46a0      	mov	r8, r4
 80021b0:	682b      	ldr	r3, [r5, #0]
 80021b2:	699a      	ldr	r2, [r3, #24]
 80021b4:	0690      	lsls	r0, r2, #26
 80021b6:	d461      	bmi.n	800227c <I2C_IsErrorOccurred+0xe8>
 80021b8:	f1b8 0f00 	cmp.w	r8, #0
 80021bc:	d035      	beq.n	800222a <I2C_IsErrorOccurred+0x96>
 80021be:	f044 0404 	orr.w	r4, r4, #4
 80021c2:	2001      	movs	r0, #1
 80021c4:	682e      	ldr	r6, [r5, #0]
 80021c6:	69b3      	ldr	r3, [r6, #24]
 80021c8:	05d9      	lsls	r1, r3, #23
 80021ca:	bf41      	itttt	mi
 80021cc:	f44f 7280 	movmi.w	r2, #256	; 0x100
 80021d0:	61f2      	strmi	r2, [r6, #28]
 80021d2:	f044 0401 	orrmi.w	r4, r4, #1
 80021d6:	2001      	movmi	r0, #1
 80021d8:	055a      	lsls	r2, r3, #21
 80021da:	bf41      	itttt	mi
 80021dc:	f44f 6280 	movmi.w	r2, #1024	; 0x400
 80021e0:	f044 0408 	orrmi.w	r4, r4, #8
 80021e4:	61f2      	strmi	r2, [r6, #28]
 80021e6:	2001      	movmi	r0, #1
 80021e8:	059b      	lsls	r3, r3, #22
 80021ea:	d54f      	bpl.n	800228c <I2C_IsErrorOccurred+0xf8>
 80021ec:	f44f 7300 	mov.w	r3, #512	; 0x200
 80021f0:	f044 0402 	orr.w	r4, r4, #2
 80021f4:	61f3      	str	r3, [r6, #28]
 80021f6:	4628      	mov	r0, r5
 80021f8:	f7ff ffa7 	bl	800214a <I2C_Flush_TXDR>
 80021fc:	6873      	ldr	r3, [r6, #4]
 80021fe:	f023 73ff 	bic.w	r3, r3, #33423360	; 0x1fe0000
 8002202:	f423 338b 	bic.w	r3, r3, #71168	; 0x11600
 8002206:	f423 73ff 	bic.w	r3, r3, #510	; 0x1fe
 800220a:	f023 0301 	bic.w	r3, r3, #1
 800220e:	6073      	str	r3, [r6, #4]
 8002210:	6c6b      	ldr	r3, [r5, #68]	; 0x44
 8002212:	4323      	orrs	r3, r4
 8002214:	646b      	str	r3, [r5, #68]	; 0x44
 8002216:	2320      	movs	r3, #32
 8002218:	f885 3041 	strb.w	r3, [r5, #65]	; 0x41
 800221c:	2300      	movs	r3, #0
 800221e:	f885 3042 	strb.w	r3, [r5, #66]	; 0x42
 8002222:	f885 3040 	strb.w	r3, [r5, #64]	; 0x40
 8002226:	2001      	movs	r0, #1
 8002228:	e032      	b.n	8002290 <I2C_IsErrorOccurred+0xfc>
 800222a:	1c7a      	adds	r2, r7, #1
 800222c:	d0c1      	beq.n	80021b2 <I2C_IsErrorOccurred+0x1e>
 800222e:	f7ff fde3 	bl	8001df8 <HAL_GetTick>
 8002232:	1b80      	subs	r0, r0, r6
 8002234:	42b8      	cmp	r0, r7
 8002236:	d801      	bhi.n	800223c <I2C_IsErrorOccurred+0xa8>
 8002238:	2f00      	cmp	r7, #0
 800223a:	d1b9      	bne.n	80021b0 <I2C_IsErrorOccurred+0x1c>
 800223c:	682b      	ldr	r3, [r5, #0]
 800223e:	6859      	ldr	r1, [r3, #4]
 8002240:	f895 2042 	ldrb.w	r2, [r5, #66]	; 0x42
 8002244:	6998      	ldr	r0, [r3, #24]
 8002246:	0400      	lsls	r0, r0, #16
 8002248:	b2d2      	uxtb	r2, r2
 800224a:	d50a      	bpl.n	8002262 <I2C_IsErrorOccurred+0xce>
 800224c:	0449      	lsls	r1, r1, #17
 800224e:	d408      	bmi.n	8002262 <I2C_IsErrorOccurred+0xce>
 8002250:	2a20      	cmp	r2, #32
 8002252:	d006      	beq.n	8002262 <I2C_IsErrorOccurred+0xce>
 8002254:	685a      	ldr	r2, [r3, #4]
 8002256:	f442 4280 	orr.w	r2, r2, #16384	; 0x4000
 800225a:	605a      	str	r2, [r3, #4]
 800225c:	f7ff fdcc 	bl	8001df8 <HAL_GetTick>
 8002260:	4606      	mov	r6, r0
 8002262:	682b      	ldr	r3, [r5, #0]
 8002264:	699b      	ldr	r3, [r3, #24]
 8002266:	069b      	lsls	r3, r3, #26
 8002268:	d4a2      	bmi.n	80021b0 <I2C_IsErrorOccurred+0x1c>
 800226a:	f7ff fdc5 	bl	8001df8 <HAL_GetTick>
 800226e:	1b80      	subs	r0, r0, r6
 8002270:	2819      	cmp	r0, #25
 8002272:	d9f6      	bls.n	8002262 <I2C_IsErrorOccurred+0xce>
 8002274:	2420      	movs	r4, #32
 8002276:	f04f 0801 	mov.w	r8, #1
 800227a:	e799      	b.n	80021b0 <I2C_IsErrorOccurred+0x1c>
 800227c:	f1b8 0f00 	cmp.w	r8, #0
 8002280:	d19d      	bne.n	80021be <I2C_IsErrorOccurred+0x2a>
 8002282:	2220      	movs	r2, #32
 8002284:	61da      	str	r2, [r3, #28]
 8002286:	e79a      	b.n	80021be <I2C_IsErrorOccurred+0x2a>
 8002288:	4620      	mov	r0, r4
 800228a:	e79b      	b.n	80021c4 <I2C_IsErrorOccurred+0x30>
 800228c:	2800      	cmp	r0, #0
 800228e:	d1b2      	bne.n	80021f6 <I2C_IsErrorOccurred+0x62>
 8002290:	e8bd 81f0 	ldmia.w	sp!, {r4, r5, r6, r7, r8, pc}

08002294 <I2C_WaitOnTXISFlagUntilTimeout>:
 8002294:	b570      	push	{r4, r5, r6, lr}
 8002296:	4604      	mov	r4, r0
 8002298:	460d      	mov	r5, r1
 800229a:	4616      	mov	r6, r2
 800229c:	6823      	ldr	r3, [r4, #0]
 800229e:	699b      	ldr	r3, [r3, #24]
 80022a0:	079b      	lsls	r3, r3, #30
 80022a2:	d501      	bpl.n	80022a8 <I2C_WaitOnTXISFlagUntilTimeout+0x14>
 80022a4:	2000      	movs	r0, #0
 80022a6:	bd70      	pop	{r4, r5, r6, pc}
 80022a8:	4632      	mov	r2, r6
 80022aa:	4629      	mov	r1, r5
 80022ac:	4620      	mov	r0, r4
 80022ae:	f7ff ff71 	bl	8002194 <I2C_IsErrorOccurred>
 80022b2:	b9c0      	cbnz	r0, 80022e6 <I2C_WaitOnTXISFlagUntilTimeout+0x52>
 80022b4:	1c6a      	adds	r2, r5, #1
 80022b6:	d0f1      	beq.n	800229c <I2C_WaitOnTXISFlagUntilTimeout+0x8>
 80022b8:	f7ff fd9e 	bl	8001df8 <HAL_GetTick>
 80022bc:	1b80      	subs	r0, r0, r6
 80022be:	42a8      	cmp	r0, r5
 80022c0:	d801      	bhi.n	80022c6 <I2C_WaitOnTXISFlagUntilTimeout+0x32>
 80022c2:	2d00      	cmp	r5, #0
 80022c4:	d1ea      	bne.n	800229c <I2C_WaitOnTXISFlagUntilTimeout+0x8>
 80022c6:	6823      	ldr	r3, [r4, #0]
 80022c8:	699b      	ldr	r3, [r3, #24]
 80022ca:	f013 0302 	ands.w	r3, r3, #2
 80022ce:	d1e5      	bne.n	800229c <I2C_WaitOnTXISFlagUntilTimeout+0x8>
 80022d0:	6c62      	ldr	r2, [r4, #68]	; 0x44
 80022d2:	f884 3040 	strb.w	r3, [r4, #64]	; 0x40
 80022d6:	f042 0220 	orr.w	r2, r2, #32
 80022da:	6462      	str	r2, [r4, #68]	; 0x44
 80022dc:	2220      	movs	r2, #32
 80022de:	f884 2041 	strb.w	r2, [r4, #65]	; 0x41
 80022e2:	f884 3042 	strb.w	r3, [r4, #66]	; 0x42
 80022e6:	2001      	movs	r0, #1
 80022e8:	e7dd      	b.n	80022a6 <I2C_WaitOnTXISFlagUntilTimeout+0x12>

080022ea <I2C_WaitOnFlagUntilTimeout>:
 80022ea:	e92d 41f0 	stmdb	sp!, {r4, r5, r6, r7, r8, lr}
 80022ee:	f8dd 8018 	ldr.w	r8, [sp, #24]
 80022f2:	4604      	mov	r4, r0
 80022f4:	460f      	mov	r7, r1
 80022f6:	4616      	mov	r6, r2
 80022f8:	461d      	mov	r5, r3
 80022fa:	6823      	ldr	r3, [r4, #0]
 80022fc:	699b      	ldr	r3, [r3, #24]
 80022fe:	ea37 0303 	bics.w	r3, r7, r3
 8002302:	bf0c      	ite	eq
 8002304:	2301      	moveq	r3, #1
 8002306:	2300      	movne	r3, #0
 8002308:	42b3      	cmp	r3, r6
 800230a:	d002      	beq.n	8002312 <I2C_WaitOnFlagUntilTimeout+0x28>
 800230c:	2000      	movs	r0, #0
 800230e:	e8bd 81f0 	ldmia.w	sp!, {r4, r5, r6, r7, r8, pc}
 8002312:	4642      	mov	r2, r8
 8002314:	4629      	mov	r1, r5
 8002316:	4620      	mov	r0, r4
 8002318:	f7ff ff3c 	bl	8002194 <I2C_IsErrorOccurred>
 800231c:	b9f0      	cbnz	r0, 800235c <I2C_WaitOnFlagUntilTimeout+0x72>
 800231e:	1c6b      	adds	r3, r5, #1
 8002320:	d0eb      	beq.n	80022fa <I2C_WaitOnFlagUntilTimeout+0x10>
 8002322:	f7ff fd69 	bl	8001df8 <HAL_GetTick>
 8002326:	eba0 0008 	sub.w	r0, r0, r8
 800232a:	42a8      	cmp	r0, r5
 800232c:	d801      	bhi.n	8002332 <I2C_WaitOnFlagUntilTimeout+0x48>
 800232e:	2d00      	cmp	r5, #0
 8002330:	d1e3      	bne.n	80022fa <I2C_WaitOnFlagUntilTimeout+0x10>
 8002332:	6823      	ldr	r3, [r4, #0]
 8002334:	699b      	ldr	r3, [r3, #24]
 8002336:	ea37 0303 	bics.w	r3, r7, r3
 800233a:	bf0c      	ite	eq
 800233c:	2301      	moveq	r3, #1
 800233e:	2300      	movne	r3, #0
 8002340:	42b3      	cmp	r3, r6
 8002342:	d1da      	bne.n	80022fa <I2C_WaitOnFlagUntilTimeout+0x10>
 8002344:	6c63      	ldr	r3, [r4, #68]	; 0x44
 8002346:	f043 0320 	orr.w	r3, r3, #32
 800234a:	6463      	str	r3, [r4, #68]	; 0x44
 800234c:	2320      	movs	r3, #32
 800234e:	f884 3041 	strb.w	r3, [r4, #65]	; 0x41
 8002352:	2300      	movs	r3, #0
 8002354:	f884 3042 	strb.w	r3, [r4, #66]	; 0x42
 8002358:	f884 3040 	strb.w	r3, [r4, #64]	; 0x40
 800235c:	2001      	movs	r0, #1
 800235e:	e7d6      	b.n	800230e <I2C_WaitOnFlagUntilTimeout+0x24>

08002360 <I2C_WaitOnSTOPFlagUntilTimeout>:
 8002360:	b570      	push	{r4, r5, r6, lr}
 8002362:	4604      	mov	r4, r0
 8002364:	460d      	mov	r5, r1
 8002366:	4616      	mov	r6, r2
 8002368:	6823      	ldr	r3, [r4, #0]
 800236a:	699b      	ldr	r3, [r3, #24]
 800236c:	069b      	lsls	r3, r3, #26
 800236e:	d501      	bpl.n	8002374 <I2C_WaitOnSTOPFlagUntilTimeout+0x14>
 8002370:	2000      	movs	r0, #0
 8002372:	bd70      	pop	{r4, r5, r6, pc}
 8002374:	4632      	mov	r2, r6
 8002376:	4629      	mov	r1, r5
 8002378:	4620      	mov	r0, r4
 800237a:	f7ff ff0b 	bl	8002194 <I2C_IsErrorOccurred>
 800237e:	b9b0      	cbnz	r0, 80023ae <I2C_WaitOnSTOPFlagUntilTimeout+0x4e>
 8002380:	f7ff fd3a 	bl	8001df8 <HAL_GetTick>
 8002384:	1b80      	subs	r0, r0, r6
 8002386:	42a8      	cmp	r0, r5
 8002388:	d801      	bhi.n	800238e <I2C_WaitOnSTOPFlagUntilTimeout+0x2e>
 800238a:	2d00      	cmp	r5, #0
 800238c:	d1ec      	bne.n	8002368 <I2C_WaitOnSTOPFlagUntilTimeout+0x8>
 800238e:	6823      	ldr	r3, [r4, #0]
 8002390:	699b      	ldr	r3, [r3, #24]
 8002392:	f013 0320 	ands.w	r3, r3, #32
 8002396:	d1e7      	bne.n	8002368 <I2C_WaitOnSTOPFlagUntilTimeout+0x8>
 8002398:	6c62      	ldr	r2, [r4, #68]	; 0x44
 800239a:	f884 3040 	strb.w	r3, [r4, #64]	; 0x40
 800239e:	f042 0220 	orr.w	r2, r2, #32
 80023a2:	6462      	str	r2, [r4, #68]	; 0x44
 80023a4:	2220      	movs	r2, #32
 80023a6:	f884 2041 	strb.w	r2, [r4, #65]	; 0x41
 80023aa:	f884 3042 	strb.w	r3, [r4, #66]	; 0x42
 80023ae:	2001      	movs	r0, #1
 80023b0:	e7df      	b.n	8002372 <I2C_WaitOnSTOPFlagUntilTimeout+0x12>
	...

080023b4 <I2C_WaitOnRXNEFlagUntilTimeout>:
 80023b4:	e92d 43f8 	stmdb	sp!, {r3, r4, r5, r6, r7, r8, r9, lr}
 80023b8:	f8df 9098 	ldr.w	r9, [pc, #152]	; 8002454 <I2C_WaitOnRXNEFlagUntilTimeout+0xa0>
 80023bc:	4605      	mov	r5, r0
 80023be:	460e      	mov	r6, r1
 80023c0:	4617      	mov	r7, r2
 80023c2:	2400      	movs	r4, #0
 80023c4:	f04f 0810 	mov.w	r8, #16
 80023c8:	682b      	ldr	r3, [r5, #0]
 80023ca:	699b      	ldr	r3, [r3, #24]
 80023cc:	075b      	lsls	r3, r3, #29
 80023ce:	d400      	bmi.n	80023d2 <I2C_WaitOnRXNEFlagUntilTimeout+0x1e>
 80023d0:	b114      	cbz	r4, 80023d8 <I2C_WaitOnRXNEFlagUntilTimeout+0x24>
 80023d2:	4620      	mov	r0, r4
 80023d4:	e8bd 83f8 	ldmia.w	sp!, {r3, r4, r5, r6, r7, r8, r9, pc}
 80023d8:	463a      	mov	r2, r7
 80023da:	4631      	mov	r1, r6
 80023dc:	4628      	mov	r0, r5
 80023de:	f7ff fed9 	bl	8002194 <I2C_IsErrorOccurred>
 80023e2:	682b      	ldr	r3, [r5, #0]
 80023e4:	699a      	ldr	r2, [r3, #24]
 80023e6:	4604      	mov	r4, r0
 80023e8:	0690      	lsls	r0, r2, #26
 80023ea:	d41a      	bmi.n	8002422 <I2C_WaitOnRXNEFlagUntilTimeout+0x6e>
 80023ec:	3c00      	subs	r4, #0
 80023ee:	bf18      	it	ne
 80023f0:	2401      	movne	r4, #1
 80023f2:	f7ff fd01 	bl	8001df8 <HAL_GetTick>
 80023f6:	1bc0      	subs	r0, r0, r7
 80023f8:	42b0      	cmp	r0, r6
 80023fa:	d801      	bhi.n	8002400 <I2C_WaitOnRXNEFlagUntilTimeout+0x4c>
 80023fc:	2e00      	cmp	r6, #0
 80023fe:	d1e3      	bne.n	80023c8 <I2C_WaitOnRXNEFlagUntilTimeout+0x14>
 8002400:	2c00      	cmp	r4, #0
 8002402:	d1e1      	bne.n	80023c8 <I2C_WaitOnRXNEFlagUntilTimeout+0x14>
 8002404:	682b      	ldr	r3, [r5, #0]
 8002406:	699b      	ldr	r3, [r3, #24]
 8002408:	075a      	lsls	r2, r3, #29
 800240a:	d4dd      	bmi.n	80023c8 <I2C_WaitOnRXNEFlagUntilTimeout+0x14>
 800240c:	6c6b      	ldr	r3, [r5, #68]	; 0x44
 800240e:	f885 4040 	strb.w	r4, [r5, #64]	; 0x40
 8002412:	f043 0320 	orr.w	r3, r3, #32
 8002416:	646b      	str	r3, [r5, #68]	; 0x44
 8002418:	2320      	movs	r3, #32
 800241a:	f885 3041 	strb.w	r3, [r5, #65]	; 0x41
 800241e:	2401      	movs	r4, #1
 8002420:	e7d2      	b.n	80023c8 <I2C_WaitOnRXNEFlagUntilTimeout+0x14>
 8002422:	b99c      	cbnz	r4, 800244c <I2C_WaitOnRXNEFlagUntilTimeout+0x98>
 8002424:	699a      	ldr	r2, [r3, #24]
 8002426:	699a      	ldr	r2, [r3, #24]
 8002428:	06d1      	lsls	r1, r2, #27
 800242a:	d511      	bpl.n	8002450 <I2C_WaitOnRXNEFlagUntilTimeout+0x9c>
 800242c:	2204      	movs	r2, #4
 800242e:	2120      	movs	r1, #32
 8002430:	f8c3 801c 	str.w	r8, [r3, #28]
 8002434:	646a      	str	r2, [r5, #68]	; 0x44
 8002436:	61d9      	str	r1, [r3, #28]
 8002438:	685a      	ldr	r2, [r3, #4]
 800243a:	ea02 0209 	and.w	r2, r2, r9
 800243e:	605a      	str	r2, [r3, #4]
 8002440:	f885 1041 	strb.w	r1, [r5, #65]	; 0x41
 8002444:	f885 4040 	strb.w	r4, [r5, #64]	; 0x40
 8002448:	f885 4042 	strb.w	r4, [r5, #66]	; 0x42
 800244c:	2401      	movs	r4, #1
 800244e:	e7d0      	b.n	80023f2 <I2C_WaitOnRXNEFlagUntilTimeout+0x3e>
 8002450:	646c      	str	r4, [r5, #68]	; 0x44
 8002452:	e7ce      	b.n	80023f2 <I2C_WaitOnRXNEFlagUntilTimeout+0x3e>
 8002454:	fe00e800 	.word	0xfe00e800

08002458 <HAL_I2C_Init>:
 8002458:	b510      	push	{r4, lr}
 800245a:	4604      	mov	r4, r0
 800245c:	2800      	cmp	r0, #0
 800245e:	d04e      	beq.n	80024fe <HAL_I2C_Init+0xa6>
 8002460:	f890 3041 	ldrb.w	r3, [r0, #65]	; 0x41
 8002464:	f003 02ff 	and.w	r2, r3, #255	; 0xff
 8002468:	b91b      	cbnz	r3, 8002472 <HAL_I2C_Init+0x1a>
 800246a:	f880 2040 	strb.w	r2, [r0, #64]	; 0x40
 800246e:	f7ff fabb 	bl	80019e8 <HAL_I2C_MspInit>
 8002472:	2324      	movs	r3, #36	; 0x24
 8002474:	f884 3041 	strb.w	r3, [r4, #65]	; 0x41
 8002478:	6823      	ldr	r3, [r4, #0]
 800247a:	681a      	ldr	r2, [r3, #0]
 800247c:	f022 0201 	bic.w	r2, r2, #1
 8002480:	601a      	str	r2, [r3, #0]
 8002482:	6862      	ldr	r2, [r4, #4]
 8002484:	f022 6270 	bic.w	r2, r2, #251658240	; 0xf000000
 8002488:	611a      	str	r2, [r3, #16]
 800248a:	689a      	ldr	r2, [r3, #8]
 800248c:	f422 4200 	bic.w	r2, r2, #32768	; 0x8000
 8002490:	609a      	str	r2, [r3, #8]
 8002492:	e9d4 2102 	ldrd	r2, r1, [r4, #8]
 8002496:	2901      	cmp	r1, #1
 8002498:	d106      	bne.n	80024a8 <HAL_I2C_Init+0x50>
 800249a:	f442 4200 	orr.w	r2, r2, #32768	; 0x8000
 800249e:	609a      	str	r2, [r3, #8]
 80024a0:	685a      	ldr	r2, [r3, #4]
 80024a2:	f422 6200 	bic.w	r2, r2, #2048	; 0x800
 80024a6:	e007      	b.n	80024b8 <HAL_I2C_Init+0x60>
 80024a8:	f442 4204 	orr.w	r2, r2, #33792	; 0x8400
 80024ac:	2902      	cmp	r1, #2
 80024ae:	609a      	str	r2, [r3, #8]
 80024b0:	d1f6      	bne.n	80024a0 <HAL_I2C_Init+0x48>
 80024b2:	685a      	ldr	r2, [r3, #4]
 80024b4:	f442 6200 	orr.w	r2, r2, #2048	; 0x800
 80024b8:	605a      	str	r2, [r3, #4]
 80024ba:	685a      	ldr	r2, [r3, #4]
 80024bc:	f042 7200 	orr.w	r2, r2, #33554432	; 0x2000000
 80024c0:	f442 4200 	orr.w	r2, r2, #32768	; 0x8000
 80024c4:	605a      	str	r2, [r3, #4]
 80024c6:	68da      	ldr	r2, [r3, #12]
 80024c8:	f422 4200 	bic.w	r2, r2, #32768	; 0x8000
 80024cc:	60da      	str	r2, [r3, #12]
 80024ce:	e9d4 2104 	ldrd	r2, r1, [r4, #16]
 80024d2:	430a      	orrs	r2, r1
 80024d4:	69a1      	ldr	r1, [r4, #24]
 80024d6:	ea42 2201 	orr.w	r2, r2, r1, lsl #8
 80024da:	60da      	str	r2, [r3, #12]
 80024dc:	e9d4 2107 	ldrd	r2, r1, [r4, #28]
 80024e0:	430a      	orrs	r2, r1
 80024e2:	601a      	str	r2, [r3, #0]
 80024e4:	681a      	ldr	r2, [r3, #0]
 80024e6:	f042 0201 	orr.w	r2, r2, #1
 80024ea:	601a      	str	r2, [r3, #0]
 80024ec:	2000      	movs	r0, #0
 80024ee:	2320      	movs	r3, #32
 80024f0:	6460      	str	r0, [r4, #68]	; 0x44
 80024f2:	f884 3041 	strb.w	r3, [r4, #65]	; 0x41
 80024f6:	6320      	str	r0, [r4, #48]	; 0x30
 80024f8:	f884 0042 	strb.w	r0, [r4, #66]	; 0x42
 80024fc:	bd10      	pop	{r4, pc}
 80024fe:	2001      	movs	r0, #1
 8002500:	e7fc      	b.n	80024fc <HAL_I2C_Init+0xa4>

08002502 <HAL_I2C_DeInit>:
 8002502:	b510      	push	{r4, lr}
 8002504:	4604      	mov	r4, r0
 8002506:	b198      	cbz	r0, 8002530 <HAL_I2C_DeInit+0x2e>
 8002508:	6802      	ldr	r2, [r0, #0]
 800250a:	2324      	movs	r3, #36	; 0x24
 800250c:	f880 3041 	strb.w	r3, [r0, #65]	; 0x41
 8002510:	6813      	ldr	r3, [r2, #0]
 8002512:	f023 0301 	bic.w	r3, r3, #1
 8002516:	6013      	str	r3, [r2, #0]
 8002518:	f7ff fab4 	bl	8001a84 <HAL_I2C_MspDeInit>
 800251c:	2000      	movs	r0, #0
 800251e:	6460      	str	r0, [r4, #68]	; 0x44
 8002520:	f884 0040 	strb.w	r0, [r4, #64]	; 0x40
 8002524:	f884 0041 	strb.w	r0, [r4, #65]	; 0x41
 8002528:	6320      	str	r0, [r4, #48]	; 0x30
 800252a:	f884 0042 	strb.w	r0, [r4, #66]	; 0x42
 800252e:	bd10      	pop	{r4, pc}
 8002530:	2001      	movs	r0, #1
 8002532:	e7fc      	b.n	800252e <HAL_I2C_DeInit+0x2c>

08002534 <HAL_I2C_Master_Transmit>:
 8002534:	e92d 47f3 	stmdb	sp!, {r0, r1, r4, r5, r6, r7, r8, r9, sl, lr}
 8002538:	4699      	mov	r9, r3
 800253a:	f890 3041 	ldrb.w	r3, [r0, #65]	; 0x41
 800253e:	9f0a      	ldr	r7, [sp, #40]	; 0x28
 8002540:	2b20      	cmp	r3, #32
 8002542:	4604      	mov	r4, r0
 8002544:	460e      	mov	r6, r1
 8002546:	4690      	mov	r8, r2
 8002548:	f040 809b 	bne.w	8002682 <HAL_I2C_Master_Transmit+0x14e>
 800254c:	f890 3040 	ldrb.w	r3, [r0, #64]	; 0x40
 8002550:	2b01      	cmp	r3, #1
 8002552:	f000 8096 	beq.w	8002682 <HAL_I2C_Master_Transmit+0x14e>
 8002556:	f04f 0a01 	mov.w	sl, #1
 800255a:	f880 a040 	strb.w	sl, [r0, #64]	; 0x40
 800255e:	f7ff fc4b 	bl	8001df8 <HAL_GetTick>
 8002562:	2319      	movs	r3, #25
 8002564:	4605      	mov	r5, r0
 8002566:	9000      	str	r0, [sp, #0]
 8002568:	4652      	mov	r2, sl
 800256a:	f44f 4100 	mov.w	r1, #32768	; 0x8000
 800256e:	4620      	mov	r0, r4
 8002570:	f7ff febb 	bl	80022ea <I2C_WaitOnFlagUntilTimeout>
 8002574:	b118      	cbz	r0, 800257e <HAL_I2C_Master_Transmit+0x4a>
 8002576:	2001      	movs	r0, #1
 8002578:	b002      	add	sp, #8
 800257a:	e8bd 87f0 	ldmia.w	sp!, {r4, r5, r6, r7, r8, r9, sl, pc}
 800257e:	2321      	movs	r3, #33	; 0x21
 8002580:	f884 3041 	strb.w	r3, [r4, #65]	; 0x41
 8002584:	2310      	movs	r3, #16
 8002586:	f884 3042 	strb.w	r3, [r4, #66]	; 0x42
 800258a:	6460      	str	r0, [r4, #68]	; 0x44
 800258c:	f8a4 902a 	strh.w	r9, [r4, #42]	; 0x2a
 8002590:	8d63      	ldrh	r3, [r4, #42]	; 0x2a
 8002592:	f8c4 8024 	str.w	r8, [r4, #36]	; 0x24
 8002596:	b29b      	uxth	r3, r3
 8002598:	2bff      	cmp	r3, #255	; 0xff
 800259a:	bf98      	it	ls
 800259c:	8d62      	ldrhls	r2, [r4, #42]	; 0x2a
 800259e:	6360      	str	r0, [r4, #52]	; 0x34
 80025a0:	bf95      	itete	ls
 80025a2:	b292      	uxthls	r2, r2
 80025a4:	22ff      	movhi	r2, #255	; 0xff
 80025a6:	f04f 7300 	movls.w	r3, #33554432	; 0x2000000
 80025aa:	f04f 7380 	movhi.w	r3, #16777216	; 0x1000000
 80025ae:	8522      	strh	r2, [r4, #40]	; 0x28
 80025b0:	b192      	cbz	r2, 80025d8 <HAL_I2C_Master_Transmit+0xa4>
 80025b2:	46c4      	mov	ip, r8
 80025b4:	6821      	ldr	r1, [r4, #0]
 80025b6:	f81c 0b01 	ldrb.w	r0, [ip], #1
 80025ba:	6288      	str	r0, [r1, #40]	; 0x28
 80025bc:	8d61      	ldrh	r1, [r4, #42]	; 0x2a
 80025be:	f8c4 c024 	str.w	ip, [r4, #36]	; 0x24
 80025c2:	3901      	subs	r1, #1
 80025c4:	b289      	uxth	r1, r1
 80025c6:	3a01      	subs	r2, #1
 80025c8:	b292      	uxth	r2, r2
 80025ca:	8561      	strh	r1, [r4, #42]	; 0x2a
 80025cc:	492e      	ldr	r1, [pc, #184]	; (8002688 <HAL_I2C_Master_Transmit+0x154>)
 80025ce:	8522      	strh	r2, [r4, #40]	; 0x28
 80025d0:	9100      	str	r1, [sp, #0]
 80025d2:	3201      	adds	r2, #1
 80025d4:	b2d2      	uxtb	r2, r2
 80025d6:	e001      	b.n	80025dc <HAL_I2C_Master_Transmit+0xa8>
 80025d8:	492b      	ldr	r1, [pc, #172]	; (8002688 <HAL_I2C_Master_Transmit+0x154>)
 80025da:	9100      	str	r1, [sp, #0]
 80025dc:	4631      	mov	r1, r6
 80025de:	4620      	mov	r0, r4
 80025e0:	f7ff fdc2 	bl	8002168 <I2C_TransferConfig>
 80025e4:	8d63      	ldrh	r3, [r4, #42]	; 0x2a
 80025e6:	b29b      	uxth	r3, r3
 80025e8:	462a      	mov	r2, r5
 80025ea:	4639      	mov	r1, r7
 80025ec:	4620      	mov	r0, r4
 80025ee:	b9bb      	cbnz	r3, 8002620 <HAL_I2C_Master_Transmit+0xec>
 80025f0:	f7ff feb6 	bl	8002360 <I2C_WaitOnSTOPFlagUntilTimeout>
 80025f4:	2800      	cmp	r0, #0
 80025f6:	d1be      	bne.n	8002576 <HAL_I2C_Master_Transmit+0x42>
 80025f8:	6823      	ldr	r3, [r4, #0]
 80025fa:	2120      	movs	r1, #32
 80025fc:	61d9      	str	r1, [r3, #28]
 80025fe:	685a      	ldr	r2, [r3, #4]
 8002600:	f022 72ff 	bic.w	r2, r2, #33423360	; 0x1fe0000
 8002604:	f422 328b 	bic.w	r2, r2, #71168	; 0x11600
 8002608:	f422 72ff 	bic.w	r2, r2, #510	; 0x1fe
 800260c:	f022 0201 	bic.w	r2, r2, #1
 8002610:	605a      	str	r2, [r3, #4]
 8002612:	f884 1041 	strb.w	r1, [r4, #65]	; 0x41
 8002616:	f884 0040 	strb.w	r0, [r4, #64]	; 0x40
 800261a:	f884 0042 	strb.w	r0, [r4, #66]	; 0x42
 800261e:	e7ab      	b.n	8002578 <HAL_I2C_Master_Transmit+0x44>
 8002620:	f7ff fe38 	bl	8002294 <I2C_WaitOnTXISFlagUntilTimeout>
 8002624:	2800      	cmp	r0, #0
 8002626:	d1a6      	bne.n	8002576 <HAL_I2C_Master_Transmit+0x42>
 8002628:	6a63      	ldr	r3, [r4, #36]	; 0x24
 800262a:	6822      	ldr	r2, [r4, #0]
 800262c:	f813 1b01 	ldrb.w	r1, [r3], #1
 8002630:	6291      	str	r1, [r2, #40]	; 0x28
 8002632:	6263      	str	r3, [r4, #36]	; 0x24
 8002634:	8d63      	ldrh	r3, [r4, #42]	; 0x2a
 8002636:	8d22      	ldrh	r2, [r4, #40]	; 0x28
 8002638:	3b01      	subs	r3, #1
 800263a:	b29b      	uxth	r3, r3
 800263c:	8563      	strh	r3, [r4, #42]	; 0x2a
 800263e:	8d63      	ldrh	r3, [r4, #42]	; 0x2a
 8002640:	3a01      	subs	r2, #1
 8002642:	b292      	uxth	r2, r2
 8002644:	b29b      	uxth	r3, r3
 8002646:	8522      	strh	r2, [r4, #40]	; 0x28
 8002648:	2b00      	cmp	r3, #0
 800264a:	d0cb      	beq.n	80025e4 <HAL_I2C_Master_Transmit+0xb0>
 800264c:	2a00      	cmp	r2, #0
 800264e:	d1c9      	bne.n	80025e4 <HAL_I2C_Master_Transmit+0xb0>
 8002650:	9500      	str	r5, [sp, #0]
 8002652:	463b      	mov	r3, r7
 8002654:	2180      	movs	r1, #128	; 0x80
 8002656:	4620      	mov	r0, r4
 8002658:	f7ff fe47 	bl	80022ea <I2C_WaitOnFlagUntilTimeout>
 800265c:	2800      	cmp	r0, #0
 800265e:	d18a      	bne.n	8002576 <HAL_I2C_Master_Transmit+0x42>
 8002660:	8d63      	ldrh	r3, [r4, #42]	; 0x2a
 8002662:	b29b      	uxth	r3, r3
 8002664:	2bff      	cmp	r3, #255	; 0xff
 8002666:	d905      	bls.n	8002674 <HAL_I2C_Master_Transmit+0x140>
 8002668:	22ff      	movs	r2, #255	; 0xff
 800266a:	8522      	strh	r2, [r4, #40]	; 0x28
 800266c:	9000      	str	r0, [sp, #0]
 800266e:	f04f 7380 	mov.w	r3, #16777216	; 0x1000000
 8002672:	e7b3      	b.n	80025dc <HAL_I2C_Master_Transmit+0xa8>
 8002674:	8d62      	ldrh	r2, [r4, #42]	; 0x2a
 8002676:	9000      	str	r0, [sp, #0]
 8002678:	b292      	uxth	r2, r2
 800267a:	8522      	strh	r2, [r4, #40]	; 0x28
 800267c:	f04f 7300 	mov.w	r3, #33554432	; 0x2000000
 8002680:	e7a8      	b.n	80025d4 <HAL_I2C_Master_Transmit+0xa0>
 8002682:	2002      	movs	r0, #2
 8002684:	e778      	b.n	8002578 <HAL_I2C_Master_Transmit+0x44>
 8002686:	bf00      	nop
 8002688:	80002000 	.word	0x80002000

0800268c <HAL_I2C_Master_Receive>:
 800268c:	e92d 47f3 	stmdb	sp!, {r0, r1, r4, r5, r6, r7, r8, r9, sl, lr}
 8002690:	4698      	mov	r8, r3
 8002692:	f890 3041 	ldrb.w	r3, [r0, #65]	; 0x41
 8002696:	9f0a      	ldr	r7, [sp, #40]	; 0x28
 8002698:	2b20      	cmp	r3, #32
 800269a:	4604      	mov	r4, r0
 800269c:	460e      	mov	r6, r1
 800269e:	4691      	mov	r9, r2
 80026a0:	f040 808a 	bne.w	80027b8 <HAL_I2C_Master_Receive+0x12c>
 80026a4:	f890 3040 	ldrb.w	r3, [r0, #64]	; 0x40
 80026a8:	2b01      	cmp	r3, #1
 80026aa:	f000 8085 	beq.w	80027b8 <HAL_I2C_Master_Receive+0x12c>
 80026ae:	f04f 0a01 	mov.w	sl, #1
 80026b2:	f880 a040 	strb.w	sl, [r0, #64]	; 0x40
 80026b6:	f7ff fb9f 	bl	8001df8 <HAL_GetTick>
 80026ba:	2319      	movs	r3, #25
 80026bc:	4605      	mov	r5, r0
 80026be:	9000      	str	r0, [sp, #0]
 80026c0:	4652      	mov	r2, sl
 80026c2:	f44f 4100 	mov.w	r1, #32768	; 0x8000
 80026c6:	4620      	mov	r0, r4
 80026c8:	f7ff fe0f 	bl	80022ea <I2C_WaitOnFlagUntilTimeout>
 80026cc:	b118      	cbz	r0, 80026d6 <HAL_I2C_Master_Receive+0x4a>
 80026ce:	2001      	movs	r0, #1
 80026d0:	b002      	add	sp, #8
 80026d2:	e8bd 87f0 	ldmia.w	sp!, {r4, r5, r6, r7, r8, r9, sl, pc}
 80026d6:	2322      	movs	r3, #34	; 0x22
 80026d8:	f884 3041 	strb.w	r3, [r4, #65]	; 0x41
 80026dc:	2310      	movs	r3, #16
 80026de:	f884 3042 	strb.w	r3, [r4, #66]	; 0x42
 80026e2:	6460      	str	r0, [r4, #68]	; 0x44
 80026e4:	f8a4 802a 	strh.w	r8, [r4, #42]	; 0x2a
 80026e8:	8d63      	ldrh	r3, [r4, #42]	; 0x2a
 80026ea:	f8c4 9024 	str.w	r9, [r4, #36]	; 0x24
 80026ee:	b29b      	uxth	r3, r3
 80026f0:	2bff      	cmp	r3, #255	; 0xff
 80026f2:	6360      	str	r0, [r4, #52]	; 0x34
 80026f4:	4b31      	ldr	r3, [pc, #196]	; (80027bc <HAL_I2C_Master_Receive+0x130>)
 80026f6:	d927      	bls.n	8002748 <HAL_I2C_Master_Receive+0xbc>
 80026f8:	9300      	str	r3, [sp, #0]
 80026fa:	f8a4 a028 	strh.w	sl, [r4, #40]	; 0x28
 80026fe:	f04f 7380 	mov.w	r3, #16777216	; 0x1000000
 8002702:	4652      	mov	r2, sl
 8002704:	4631      	mov	r1, r6
 8002706:	4620      	mov	r0, r4
 8002708:	f7ff fd2e 	bl	8002168 <I2C_TransferConfig>
 800270c:	8d63      	ldrh	r3, [r4, #42]	; 0x2a
 800270e:	b29b      	uxth	r3, r3
 8002710:	462a      	mov	r2, r5
 8002712:	4639      	mov	r1, r7
 8002714:	4620      	mov	r0, r4
 8002716:	b9fb      	cbnz	r3, 8002758 <HAL_I2C_Master_Receive+0xcc>
 8002718:	f7ff fe22 	bl	8002360 <I2C_WaitOnSTOPFlagUntilTimeout>
 800271c:	2800      	cmp	r0, #0
 800271e:	d1d6      	bne.n	80026ce <HAL_I2C_Master_Receive+0x42>
 8002720:	6823      	ldr	r3, [r4, #0]
 8002722:	2120      	movs	r1, #32
 8002724:	61d9      	str	r1, [r3, #28]
 8002726:	685a      	ldr	r2, [r3, #4]
 8002728:	f022 72ff 	bic.w	r2, r2, #33423360	; 0x1fe0000
 800272c:	f422 328b 	bic.w	r2, r2, #71168	; 0x11600
 8002730:	f422 72ff 	bic.w	r2, r2, #510	; 0x1fe
 8002734:	f022 0201 	bic.w	r2, r2, #1
 8002738:	605a      	str	r2, [r3, #4]
 800273a:	f884 1041 	strb.w	r1, [r4, #65]	; 0x41
 800273e:	f884 0040 	strb.w	r0, [r4, #64]	; 0x40
 8002742:	f884 0042 	strb.w	r0, [r4, #66]	; 0x42
 8002746:	e7c3      	b.n	80026d0 <HAL_I2C_Master_Receive+0x44>
 8002748:	8d62      	ldrh	r2, [r4, #42]	; 0x2a
 800274a:	9300      	str	r3, [sp, #0]
 800274c:	b292      	uxth	r2, r2
 800274e:	8522      	strh	r2, [r4, #40]	; 0x28
 8002750:	f04f 7300 	mov.w	r3, #33554432	; 0x2000000
 8002754:	b2d2      	uxtb	r2, r2
 8002756:	e7d5      	b.n	8002704 <HAL_I2C_Master_Receive+0x78>
 8002758:	f7ff fe2c 	bl	80023b4 <I2C_WaitOnRXNEFlagUntilTimeout>
 800275c:	2800      	cmp	r0, #0
 800275e:	d1b6      	bne.n	80026ce <HAL_I2C_Master_Receive+0x42>
 8002760:	6823      	ldr	r3, [r4, #0]
 8002762:	6a5a      	ldr	r2, [r3, #36]	; 0x24
 8002764:	6a63      	ldr	r3, [r4, #36]	; 0x24
 8002766:	701a      	strb	r2, [r3, #0]
 8002768:	6a63      	ldr	r3, [r4, #36]	; 0x24
 800276a:	8d22      	ldrh	r2, [r4, #40]	; 0x28
 800276c:	3301      	adds	r3, #1
 800276e:	6263      	str	r3, [r4, #36]	; 0x24
 8002770:	8d63      	ldrh	r3, [r4, #42]	; 0x2a
 8002772:	3b01      	subs	r3, #1
 8002774:	b29b      	uxth	r3, r3
 8002776:	8563      	strh	r3, [r4, #42]	; 0x2a
 8002778:	8d63      	ldrh	r3, [r4, #42]	; 0x2a
 800277a:	3a01      	subs	r2, #1
 800277c:	b292      	uxth	r2, r2
 800277e:	b29b      	uxth	r3, r3
 8002780:	8522      	strh	r2, [r4, #40]	; 0x28
 8002782:	2b00      	cmp	r3, #0
 8002784:	d0c2      	beq.n	800270c <HAL_I2C_Master_Receive+0x80>
 8002786:	2a00      	cmp	r2, #0
 8002788:	d1c0      	bne.n	800270c <HAL_I2C_Master_Receive+0x80>
 800278a:	9500      	str	r5, [sp, #0]
 800278c:	463b      	mov	r3, r7
 800278e:	2180      	movs	r1, #128	; 0x80
 8002790:	4620      	mov	r0, r4
 8002792:	f7ff fdaa 	bl	80022ea <I2C_WaitOnFlagUntilTimeout>
 8002796:	2800      	cmp	r0, #0
 8002798:	d199      	bne.n	80026ce <HAL_I2C_Master_Receive+0x42>
 800279a:	8d63      	ldrh	r3, [r4, #42]	; 0x2a
 800279c:	b29b      	uxth	r3, r3
 800279e:	2bff      	cmp	r3, #255	; 0xff
 80027a0:	d905      	bls.n	80027ae <HAL_I2C_Master_Receive+0x122>
 80027a2:	22ff      	movs	r2, #255	; 0xff
 80027a4:	8522      	strh	r2, [r4, #40]	; 0x28
 80027a6:	9000      	str	r0, [sp, #0]
 80027a8:	f04f 7380 	mov.w	r3, #16777216	; 0x1000000
 80027ac:	e7aa      	b.n	8002704 <HAL_I2C_Master_Receive+0x78>
 80027ae:	8d62      	ldrh	r2, [r4, #42]	; 0x2a
 80027b0:	9000      	str	r0, [sp, #0]
 80027b2:	b292      	uxth	r2, r2
 80027b4:	8522      	strh	r2, [r4, #40]	; 0x28
 80027b6:	e7cb      	b.n	8002750 <HAL_I2C_Master_Receive+0xc4>
 80027b8:	2002      	movs	r0, #2
 80027ba:	e789      	b.n	80026d0 <HAL_I2C_Master_Receive+0x44>
 80027bc:	80002400 	.word	0x80002400

080027c0 <HAL_I2C_Mem_Write>:
 80027c0:	e92d 4ff7 	stmdb	sp!, {r0, r1, r2, r4, r5, r6, r7, r8, r9, sl, fp, lr}
 80027c4:	4699      	mov	r9, r3
 80027c6:	f890 3041 	ldrb.w	r3, [r0, #65]	; 0x41
 80027ca:	f8bd a034 	ldrh.w	sl, [sp, #52]	; 0x34
 80027ce:	f8dd 8038 	ldr.w	r8, [sp, #56]	; 0x38
 80027d2:	2b20      	cmp	r3, #32
 80027d4:	4604      	mov	r4, r0
 80027d6:	460f      	mov	r7, r1
 80027d8:	4616      	mov	r6, r2
 80027da:	f040 80c6 	bne.w	800296a <HAL_I2C_Mem_Write+0x1aa>
 80027de:	9b0c      	ldr	r3, [sp, #48]	; 0x30
 80027e0:	b113      	cbz	r3, 80027e8 <HAL_I2C_Mem_Write+0x28>
 80027e2:	f1ba 0f00 	cmp.w	sl, #0
 80027e6:	d106      	bne.n	80027f6 <HAL_I2C_Mem_Write+0x36>
 80027e8:	f44f 7300 	mov.w	r3, #512	; 0x200
 80027ec:	6463      	str	r3, [r4, #68]	; 0x44
 80027ee:	2001      	movs	r0, #1
 80027f0:	b003      	add	sp, #12
 80027f2:	e8bd 8ff0 	ldmia.w	sp!, {r4, r5, r6, r7, r8, r9, sl, fp, pc}
 80027f6:	f890 3040 	ldrb.w	r3, [r0, #64]	; 0x40
 80027fa:	2b01      	cmp	r3, #1
 80027fc:	f000 80b5 	beq.w	800296a <HAL_I2C_Mem_Write+0x1aa>
 8002800:	f04f 0b01 	mov.w	fp, #1
 8002804:	f880 b040 	strb.w	fp, [r0, #64]	; 0x40
 8002808:	f7ff faf6 	bl	8001df8 <HAL_GetTick>
 800280c:	2319      	movs	r3, #25
 800280e:	4605      	mov	r5, r0
 8002810:	9000      	str	r0, [sp, #0]
 8002812:	465a      	mov	r2, fp
 8002814:	f44f 4100 	mov.w	r1, #32768	; 0x8000
 8002818:	4620      	mov	r0, r4
 800281a:	f7ff fd66 	bl	80022ea <I2C_WaitOnFlagUntilTimeout>
 800281e:	2800      	cmp	r0, #0
 8002820:	d1e5      	bne.n	80027ee <HAL_I2C_Mem_Write+0x2e>
 8002822:	2321      	movs	r3, #33	; 0x21
 8002824:	f884 3041 	strb.w	r3, [r4, #65]	; 0x41
 8002828:	2340      	movs	r3, #64	; 0x40
 800282a:	f884 3042 	strb.w	r3, [r4, #66]	; 0x42
 800282e:	9b0c      	ldr	r3, [sp, #48]	; 0x30
 8002830:	6263      	str	r3, [r4, #36]	; 0x24
 8002832:	4b4f      	ldr	r3, [pc, #316]	; (8002970 <HAL_I2C_Mem_Write+0x1b0>)
 8002834:	6460      	str	r0, [r4, #68]	; 0x44
 8002836:	6360      	str	r0, [r4, #52]	; 0x34
 8002838:	9300      	str	r3, [sp, #0]
 800283a:	fa5f f289 	uxtb.w	r2, r9
 800283e:	4639      	mov	r1, r7
 8002840:	4620      	mov	r0, r4
 8002842:	f8a4 a02a 	strh.w	sl, [r4, #42]	; 0x2a
 8002846:	f04f 7380 	mov.w	r3, #16777216	; 0x1000000
 800284a:	f7ff fc8d 	bl	8002168 <I2C_TransferConfig>
 800284e:	462a      	mov	r2, r5
 8002850:	4641      	mov	r1, r8
 8002852:	4620      	mov	r0, r4
 8002854:	f7ff fd1e 	bl	8002294 <I2C_WaitOnTXISFlagUntilTimeout>
 8002858:	bb18      	cbnz	r0, 80028a2 <HAL_I2C_Mem_Write+0xe2>
 800285a:	f1b9 0f01 	cmp.w	r9, #1
 800285e:	6823      	ldr	r3, [r4, #0]
 8002860:	d115      	bne.n	800288e <HAL_I2C_Mem_Write+0xce>
 8002862:	b2f6      	uxtb	r6, r6
 8002864:	629e      	str	r6, [r3, #40]	; 0x28
 8002866:	2200      	movs	r2, #0
 8002868:	9500      	str	r5, [sp, #0]
 800286a:	4643      	mov	r3, r8
 800286c:	2180      	movs	r1, #128	; 0x80
 800286e:	4620      	mov	r0, r4
 8002870:	f7ff fd3b 	bl	80022ea <I2C_WaitOnFlagUntilTimeout>
 8002874:	b9a8      	cbnz	r0, 80028a2 <HAL_I2C_Mem_Write+0xe2>
 8002876:	8d63      	ldrh	r3, [r4, #42]	; 0x2a
 8002878:	b29b      	uxth	r3, r3
 800287a:	2bff      	cmp	r3, #255	; 0xff
 800287c:	d815      	bhi.n	80028aa <HAL_I2C_Mem_Write+0xea>
 800287e:	8d62      	ldrh	r2, [r4, #42]	; 0x2a
 8002880:	9000      	str	r0, [sp, #0]
 8002882:	b292      	uxth	r2, r2
 8002884:	8522      	strh	r2, [r4, #40]	; 0x28
 8002886:	f04f 7300 	mov.w	r3, #33554432	; 0x2000000
 800288a:	b2d2      	uxtb	r2, r2
 800288c:	e012      	b.n	80028b4 <HAL_I2C_Mem_Write+0xf4>
 800288e:	0a32      	lsrs	r2, r6, #8
 8002890:	629a      	str	r2, [r3, #40]	; 0x28
 8002892:	4641      	mov	r1, r8
 8002894:	462a      	mov	r2, r5
 8002896:	4620      	mov	r0, r4
 8002898:	f7ff fcfc 	bl	8002294 <I2C_WaitOnTXISFlagUntilTimeout>
 800289c:	b908      	cbnz	r0, 80028a2 <HAL_I2C_Mem_Write+0xe2>
 800289e:	6823      	ldr	r3, [r4, #0]
 80028a0:	e7df      	b.n	8002862 <HAL_I2C_Mem_Write+0xa2>
 80028a2:	2300      	movs	r3, #0
 80028a4:	f884 3040 	strb.w	r3, [r4, #64]	; 0x40
 80028a8:	e7a1      	b.n	80027ee <HAL_I2C_Mem_Write+0x2e>
 80028aa:	22ff      	movs	r2, #255	; 0xff
 80028ac:	8522      	strh	r2, [r4, #40]	; 0x28
 80028ae:	9000      	str	r0, [sp, #0]
 80028b0:	f04f 7380 	mov.w	r3, #16777216	; 0x1000000
 80028b4:	4639      	mov	r1, r7
 80028b6:	4620      	mov	r0, r4
 80028b8:	f7ff fc56 	bl	8002168 <I2C_TransferConfig>
 80028bc:	462a      	mov	r2, r5
 80028be:	4641      	mov	r1, r8
 80028c0:	4620      	mov	r0, r4
 80028c2:	f7ff fce7 	bl	8002294 <I2C_WaitOnTXISFlagUntilTimeout>
 80028c6:	2800      	cmp	r0, #0
 80028c8:	d191      	bne.n	80027ee <HAL_I2C_Mem_Write+0x2e>
 80028ca:	6a63      	ldr	r3, [r4, #36]	; 0x24
 80028cc:	6822      	ldr	r2, [r4, #0]
 80028ce:	f813 1b01 	ldrb.w	r1, [r3], #1
 80028d2:	6291      	str	r1, [r2, #40]	; 0x28
 80028d4:	6263      	str	r3, [r4, #36]	; 0x24
 80028d6:	8d63      	ldrh	r3, [r4, #42]	; 0x2a
 80028d8:	8d22      	ldrh	r2, [r4, #40]	; 0x28
 80028da:	3b01      	subs	r3, #1
 80028dc:	b29b      	uxth	r3, r3
 80028de:	8563      	strh	r3, [r4, #42]	; 0x2a
 80028e0:	8d63      	ldrh	r3, [r4, #42]	; 0x2a
 80028e2:	3a01      	subs	r2, #1
 80028e4:	b292      	uxth	r2, r2
 80028e6:	b29b      	uxth	r3, r3
 80028e8:	8522      	strh	r2, [r4, #40]	; 0x28
 80028ea:	b1b3      	cbz	r3, 800291a <HAL_I2C_Mem_Write+0x15a>
 80028ec:	b9aa      	cbnz	r2, 800291a <HAL_I2C_Mem_Write+0x15a>
 80028ee:	9500      	str	r5, [sp, #0]
 80028f0:	4643      	mov	r3, r8
 80028f2:	2180      	movs	r1, #128	; 0x80
 80028f4:	4620      	mov	r0, r4
 80028f6:	f7ff fcf8 	bl	80022ea <I2C_WaitOnFlagUntilTimeout>
 80028fa:	2800      	cmp	r0, #0
 80028fc:	f47f af77 	bne.w	80027ee <HAL_I2C_Mem_Write+0x2e>
 8002900:	8d63      	ldrh	r3, [r4, #42]	; 0x2a
 8002902:	b29b      	uxth	r3, r3
 8002904:	2bff      	cmp	r3, #255	; 0xff
 8002906:	d928      	bls.n	800295a <HAL_I2C_Mem_Write+0x19a>
 8002908:	22ff      	movs	r2, #255	; 0xff
 800290a:	8522      	strh	r2, [r4, #40]	; 0x28
 800290c:	9000      	str	r0, [sp, #0]
 800290e:	f04f 7380 	mov.w	r3, #16777216	; 0x1000000
 8002912:	4639      	mov	r1, r7
 8002914:	4620      	mov	r0, r4
 8002916:	f7ff fc27 	bl	8002168 <I2C_TransferConfig>
 800291a:	8d63      	ldrh	r3, [r4, #42]	; 0x2a
 800291c:	b29b      	uxth	r3, r3
 800291e:	2b00      	cmp	r3, #0
 8002920:	d1cc      	bne.n	80028bc <HAL_I2C_Mem_Write+0xfc>
 8002922:	462a      	mov	r2, r5
 8002924:	4641      	mov	r1, r8
 8002926:	4620      	mov	r0, r4
 8002928:	f7ff fd1a 	bl	8002360 <I2C_WaitOnSTOPFlagUntilTimeout>
 800292c:	2800      	cmp	r0, #0
 800292e:	f47f af5e 	bne.w	80027ee <HAL_I2C_Mem_Write+0x2e>
 8002932:	6823      	ldr	r3, [r4, #0]
 8002934:	2120      	movs	r1, #32
 8002936:	61d9      	str	r1, [r3, #28]
 8002938:	685a      	ldr	r2, [r3, #4]
 800293a:	f022 72ff 	bic.w	r2, r2, #33423360	; 0x1fe0000
 800293e:	f422 328b 	bic.w	r2, r2, #71168	; 0x11600
 8002942:	f422 72ff 	bic.w	r2, r2, #510	; 0x1fe
 8002946:	f022 0201 	bic.w	r2, r2, #1
 800294a:	605a      	str	r2, [r3, #4]
 800294c:	f884 1041 	strb.w	r1, [r4, #65]	; 0x41
 8002950:	f884 0040 	strb.w	r0, [r4, #64]	; 0x40
 8002954:	f884 0042 	strb.w	r0, [r4, #66]	; 0x42
 8002958:	e74a      	b.n	80027f0 <HAL_I2C_Mem_Write+0x30>
 800295a:	8d62      	ldrh	r2, [r4, #42]	; 0x2a
 800295c:	9000      	str	r0, [sp, #0]
 800295e:	b292      	uxth	r2, r2
 8002960:	8522      	strh	r2, [r4, #40]	; 0x28
 8002962:	f04f 7300 	mov.w	r3, #33554432	; 0x2000000
 8002966:	b2d2      	uxtb	r2, r2
 8002968:	e7d3      	b.n	8002912 <HAL_I2C_Mem_Write+0x152>
 800296a:	2002      	movs	r0, #2
 800296c:	e740      	b.n	80027f0 <HAL_I2C_Mem_Write+0x30>
 800296e:	bf00      	nop
 8002970:	80002000 	.word	0x80002000

08002974 <HAL_I2C_Mem_Read>:
 8002974:	e92d 4ff7 	stmdb	sp!, {r0, r1, r2, r4, r5, r6, r7, r8, r9, sl, fp, lr}
 8002978:	4699      	mov	r9, r3
 800297a:	f890 3041 	ldrb.w	r3, [r0, #65]	; 0x41
 800297e:	f8bd a034 	ldrh.w	sl, [sp, #52]	; 0x34
 8002982:	f8dd 8038 	ldr.w	r8, [sp, #56]	; 0x38
 8002986:	2b20      	cmp	r3, #32
 8002988:	4604      	mov	r4, r0
 800298a:	460f      	mov	r7, r1
 800298c:	4616      	mov	r6, r2
 800298e:	f040 80c9 	bne.w	8002b24 <HAL_I2C_Mem_Read+0x1b0>
 8002992:	9b0c      	ldr	r3, [sp, #48]	; 0x30
 8002994:	b113      	cbz	r3, 800299c <HAL_I2C_Mem_Read+0x28>
 8002996:	f1ba 0f00 	cmp.w	sl, #0
 800299a:	d106      	bne.n	80029aa <HAL_I2C_Mem_Read+0x36>
 800299c:	f44f 7300 	mov.w	r3, #512	; 0x200
 80029a0:	6463      	str	r3, [r4, #68]	; 0x44
 80029a2:	2001      	movs	r0, #1
 80029a4:	b003      	add	sp, #12
 80029a6:	e8bd 8ff0 	ldmia.w	sp!, {r4, r5, r6, r7, r8, r9, sl, fp, pc}
 80029aa:	f890 3040 	ldrb.w	r3, [r0, #64]	; 0x40
 80029ae:	2b01      	cmp	r3, #1
 80029b0:	f000 80b8 	beq.w	8002b24 <HAL_I2C_Mem_Read+0x1b0>
 80029b4:	f04f 0b01 	mov.w	fp, #1
 80029b8:	f880 b040 	strb.w	fp, [r0, #64]	; 0x40
 80029bc:	f7ff fa1c 	bl	8001df8 <HAL_GetTick>
 80029c0:	2319      	movs	r3, #25
 80029c2:	9000      	str	r0, [sp, #0]
 80029c4:	4605      	mov	r5, r0
 80029c6:	465a      	mov	r2, fp
 80029c8:	f44f 4100 	mov.w	r1, #32768	; 0x8000
 80029cc:	4620      	mov	r0, r4
 80029ce:	f7ff fc8c 	bl	80022ea <I2C_WaitOnFlagUntilTimeout>
 80029d2:	4603      	mov	r3, r0
 80029d4:	2800      	cmp	r0, #0
 80029d6:	d1e4      	bne.n	80029a2 <HAL_I2C_Mem_Read+0x2e>
 80029d8:	2222      	movs	r2, #34	; 0x22
 80029da:	f884 2041 	strb.w	r2, [r4, #65]	; 0x41
 80029de:	2240      	movs	r2, #64	; 0x40
 80029e0:	f884 2042 	strb.w	r2, [r4, #66]	; 0x42
 80029e4:	9a0c      	ldr	r2, [sp, #48]	; 0x30
 80029e6:	6262      	str	r2, [r4, #36]	; 0x24
 80029e8:	4a4f      	ldr	r2, [pc, #316]	; (8002b28 <HAL_I2C_Mem_Read+0x1b4>)
 80029ea:	6460      	str	r0, [r4, #68]	; 0x44
 80029ec:	6360      	str	r0, [r4, #52]	; 0x34
 80029ee:	9200      	str	r2, [sp, #0]
 80029f0:	4639      	mov	r1, r7
 80029f2:	fa5f f289 	uxtb.w	r2, r9
 80029f6:	4620      	mov	r0, r4
 80029f8:	f8a4 a02a 	strh.w	sl, [r4, #42]	; 0x2a
 80029fc:	f7ff fbb4 	bl	8002168 <I2C_TransferConfig>
 8002a00:	462a      	mov	r2, r5
 8002a02:	4641      	mov	r1, r8
 8002a04:	4620      	mov	r0, r4
 8002a06:	f7ff fc45 	bl	8002294 <I2C_WaitOnTXISFlagUntilTimeout>
 8002a0a:	bb20      	cbnz	r0, 8002a56 <HAL_I2C_Mem_Read+0xe2>
 8002a0c:	f1b9 0f01 	cmp.w	r9, #1
 8002a10:	6823      	ldr	r3, [r4, #0]
 8002a12:	d116      	bne.n	8002a42 <HAL_I2C_Mem_Read+0xce>
 8002a14:	b2f6      	uxtb	r6, r6
 8002a16:	629e      	str	r6, [r3, #40]	; 0x28
 8002a18:	2200      	movs	r2, #0
 8002a1a:	9500      	str	r5, [sp, #0]
 8002a1c:	4643      	mov	r3, r8
 8002a1e:	2140      	movs	r1, #64	; 0x40
 8002a20:	4620      	mov	r0, r4
 8002a22:	f7ff fc62 	bl	80022ea <I2C_WaitOnFlagUntilTimeout>
 8002a26:	b9b0      	cbnz	r0, 8002a56 <HAL_I2C_Mem_Read+0xe2>
 8002a28:	8d63      	ldrh	r3, [r4, #42]	; 0x2a
 8002a2a:	b29b      	uxth	r3, r3
 8002a2c:	2bff      	cmp	r3, #255	; 0xff
 8002a2e:	4b3f      	ldr	r3, [pc, #252]	; (8002b2c <HAL_I2C_Mem_Read+0x1b8>)
 8002a30:	d815      	bhi.n	8002a5e <HAL_I2C_Mem_Read+0xea>
 8002a32:	8d62      	ldrh	r2, [r4, #42]	; 0x2a
 8002a34:	9300      	str	r3, [sp, #0]
 8002a36:	b292      	uxth	r2, r2
 8002a38:	8522      	strh	r2, [r4, #40]	; 0x28
 8002a3a:	f04f 7300 	mov.w	r3, #33554432	; 0x2000000
 8002a3e:	b2d2      	uxtb	r2, r2
 8002a40:	e012      	b.n	8002a68 <HAL_I2C_Mem_Read+0xf4>
 8002a42:	0a32      	lsrs	r2, r6, #8
 8002a44:	629a      	str	r2, [r3, #40]	; 0x28
 8002a46:	4641      	mov	r1, r8
 8002a48:	462a      	mov	r2, r5
 8002a4a:	4620      	mov	r0, r4
 8002a4c:	f7ff fc22 	bl	8002294 <I2C_WaitOnTXISFlagUntilTimeout>
 8002a50:	b908      	cbnz	r0, 8002a56 <HAL_I2C_Mem_Read+0xe2>
 8002a52:	6823      	ldr	r3, [r4, #0]
 8002a54:	e7de      	b.n	8002a14 <HAL_I2C_Mem_Read+0xa0>
 8002a56:	2300      	movs	r3, #0
 8002a58:	f884 3040 	strb.w	r3, [r4, #64]	; 0x40
 8002a5c:	e7a1      	b.n	80029a2 <HAL_I2C_Mem_Read+0x2e>
 8002a5e:	2201      	movs	r2, #1
 8002a60:	9300      	str	r3, [sp, #0]
 8002a62:	8522      	strh	r2, [r4, #40]	; 0x28
 8002a64:	f04f 7380 	mov.w	r3, #16777216	; 0x1000000
 8002a68:	4639      	mov	r1, r7
 8002a6a:	4620      	mov	r0, r4
 8002a6c:	f7ff fb7c 	bl	8002168 <I2C_TransferConfig>
 8002a70:	9500      	str	r5, [sp, #0]
 8002a72:	4643      	mov	r3, r8
 8002a74:	2200      	movs	r2, #0
 8002a76:	2104      	movs	r1, #4
 8002a78:	4620      	mov	r0, r4
 8002a7a:	f7ff fc36 	bl	80022ea <I2C_WaitOnFlagUntilTimeout>
 8002a7e:	2800      	cmp	r0, #0
 8002a80:	d18f      	bne.n	80029a2 <HAL_I2C_Mem_Read+0x2e>
 8002a82:	6823      	ldr	r3, [r4, #0]
 8002a84:	6a5a      	ldr	r2, [r3, #36]	; 0x24
 8002a86:	6a63      	ldr	r3, [r4, #36]	; 0x24
 8002a88:	701a      	strb	r2, [r3, #0]
 8002a8a:	6a63      	ldr	r3, [r4, #36]	; 0x24
 8002a8c:	8d22      	ldrh	r2, [r4, #40]	; 0x28
 8002a8e:	3301      	adds	r3, #1
 8002a90:	6263      	str	r3, [r4, #36]	; 0x24
 8002a92:	8d63      	ldrh	r3, [r4, #42]	; 0x2a
 8002a94:	3b01      	subs	r3, #1
 8002a96:	b29b      	uxth	r3, r3
 8002a98:	8563      	strh	r3, [r4, #42]	; 0x2a
 8002a9a:	8d63      	ldrh	r3, [r4, #42]	; 0x2a
 8002a9c:	3a01      	subs	r2, #1
 8002a9e:	b292      	uxth	r2, r2
 8002aa0:	b29b      	uxth	r3, r3
 8002aa2:	8522      	strh	r2, [r4, #40]	; 0x28
 8002aa4:	b1b3      	cbz	r3, 8002ad4 <HAL_I2C_Mem_Read+0x160>
 8002aa6:	b9aa      	cbnz	r2, 8002ad4 <HAL_I2C_Mem_Read+0x160>
 8002aa8:	9500      	str	r5, [sp, #0]
 8002aaa:	4643      	mov	r3, r8
 8002aac:	2180      	movs	r1, #128	; 0x80
 8002aae:	4620      	mov	r0, r4
 8002ab0:	f7ff fc1b 	bl	80022ea <I2C_WaitOnFlagUntilTimeout>
 8002ab4:	2800      	cmp	r0, #0
 8002ab6:	f47f af74 	bne.w	80029a2 <HAL_I2C_Mem_Read+0x2e>
 8002aba:	8d63      	ldrh	r3, [r4, #42]	; 0x2a
 8002abc:	b29b      	uxth	r3, r3
 8002abe:	2bff      	cmp	r3, #255	; 0xff
 8002ac0:	d928      	bls.n	8002b14 <HAL_I2C_Mem_Read+0x1a0>
 8002ac2:	2201      	movs	r2, #1
 8002ac4:	8522      	strh	r2, [r4, #40]	; 0x28
 8002ac6:	9000      	str	r0, [sp, #0]
 8002ac8:	f04f 7380 	mov.w	r3, #16777216	; 0x1000000
 8002acc:	4639      	mov	r1, r7
 8002ace:	4620      	mov	r0, r4
 8002ad0:	f7ff fb4a 	bl	8002168 <I2C_TransferConfig>
 8002ad4:	8d63      	ldrh	r3, [r4, #42]	; 0x2a
 8002ad6:	b29b      	uxth	r3, r3
 8002ad8:	2b00      	cmp	r3, #0
 8002ada:	d1c9      	bne.n	8002a70 <HAL_I2C_Mem_Read+0xfc>
 8002adc:	462a      	mov	r2, r5
 8002ade:	4641      	mov	r1, r8
 8002ae0:	4620      	mov	r0, r4
 8002ae2:	f7ff fc3d 	bl	8002360 <I2C_WaitOnSTOPFlagUntilTimeout>
 8002ae6:	2800      	cmp	r0, #0
 8002ae8:	f47f af5b 	bne.w	80029a2 <HAL_I2C_Mem_Read+0x2e>
 8002aec:	6823      	ldr	r3, [r4, #0]
 8002aee:	2120      	movs	r1, #32
 8002af0:	61d9      	str	r1, [r3, #28]
 8002af2:	685a      	ldr	r2, [r3, #4]
 8002af4:	f022 72ff 	bic.w	r2, r2, #33423360	; 0x1fe0000
 8002af8:	f422 328b 	bic.w	r2, r2, #71168	; 0x11600
 8002afc:	f422 72ff 	bic.w	r2, r2, #510	; 0x1fe
 8002b00:	f022 0201 	bic.w	r2, r2, #1
 8002b04:	605a      	str	r2, [r3, #4]
 8002b06:	f884 1041 	strb.w	r1, [r4, #65]	; 0x41
 8002b0a:	f884 0040 	strb.w	r0, [r4, #64]	; 0x40
 8002b0e:	f884 0042 	strb.w	r0, [r4, #66]	; 0x42
 8002b12:	e747      	b.n	80029a4 <HAL_I2C_Mem_Read+0x30>
 8002b14:	8d62      	ldrh	r2, [r4, #42]	; 0x2a
 8002b16:	9000      	str	r0, [sp, #0]
 8002b18:	b292      	uxth	r2, r2
 8002b1a:	8522      	strh	r2, [r4, #40]	; 0x28
 8002b1c:	f04f 7300 	mov.w	r3, #33554432	; 0x2000000
 8002b20:	b2d2      	uxtb	r2, r2
 8002b22:	e7d3      	b.n	8002acc <HAL_I2C_Mem_Read+0x158>
 8002b24:	2002      	movs	r0, #2
 8002b26:	e73d      	b.n	80029a4 <HAL_I2C_Mem_Read+0x30>
 8002b28:	80002000 	.word	0x80002000
 8002b2c:	80002400 	.word	0x80002400

08002b30 <HAL_I2CEx_ConfigAnalogFilter>:
 8002b30:	b510      	push	{r4, lr}
 8002b32:	f890 3041 	ldrb.w	r3, [r0, #65]	; 0x41
 8002b36:	2b20      	cmp	r3, #32
 8002b38:	b2dc      	uxtb	r4, r3
 8002b3a:	d11d      	bne.n	8002b78 <HAL_I2CEx_ConfigAnalogFilter+0x48>
 8002b3c:	f890 3040 	ldrb.w	r3, [r0, #64]	; 0x40
 8002b40:	2b01      	cmp	r3, #1
 8002b42:	d019      	beq.n	8002b78 <HAL_I2CEx_ConfigAnalogFilter+0x48>
 8002b44:	2324      	movs	r3, #36	; 0x24
 8002b46:	f880 3041 	strb.w	r3, [r0, #65]	; 0x41
 8002b4a:	6803      	ldr	r3, [r0, #0]
 8002b4c:	681a      	ldr	r2, [r3, #0]
 8002b4e:	f022 0201 	bic.w	r2, r2, #1
 8002b52:	601a      	str	r2, [r3, #0]
 8002b54:	681a      	ldr	r2, [r3, #0]
 8002b56:	f422 5280 	bic.w	r2, r2, #4096	; 0x1000
 8002b5a:	601a      	str	r2, [r3, #0]
 8002b5c:	681a      	ldr	r2, [r3, #0]
 8002b5e:	4311      	orrs	r1, r2
 8002b60:	6019      	str	r1, [r3, #0]
 8002b62:	681a      	ldr	r2, [r3, #0]
 8002b64:	f042 0201 	orr.w	r2, r2, #1
 8002b68:	601a      	str	r2, [r3, #0]
 8002b6a:	2300      	movs	r3, #0
 8002b6c:	f880 4041 	strb.w	r4, [r0, #65]	; 0x41
 8002b70:	f880 3040 	strb.w	r3, [r0, #64]	; 0x40
 8002b74:	4618      	mov	r0, r3
 8002b76:	bd10      	pop	{r4, pc}
 8002b78:	2002      	movs	r0, #2
 8002b7a:	e7fc      	b.n	8002b76 <HAL_I2CEx_ConfigAnalogFilter+0x46>

08002b7c <HAL_I2CEx_ConfigDigitalFilter>:
 8002b7c:	b510      	push	{r4, lr}
 8002b7e:	f890 3041 	ldrb.w	r3, [r0, #65]	; 0x41
 8002b82:	2b20      	cmp	r3, #32
 8002b84:	b2dc      	uxtb	r4, r3
 8002b86:	d11c      	bne.n	8002bc2 <HAL_I2CEx_ConfigDigitalFilter+0x46>
 8002b88:	f890 3040 	ldrb.w	r3, [r0, #64]	; 0x40
 8002b8c:	2b01      	cmp	r3, #1
 8002b8e:	d018      	beq.n	8002bc2 <HAL_I2CEx_ConfigDigitalFilter+0x46>
 8002b90:	2324      	movs	r3, #36	; 0x24
 8002b92:	f880 3041 	strb.w	r3, [r0, #65]	; 0x41
 8002b96:	6803      	ldr	r3, [r0, #0]
 8002b98:	681a      	ldr	r2, [r3, #0]
 8002b9a:	f022 0201 	bic.w	r2, r2, #1
 8002b9e:	601a      	str	r2, [r3, #0]
 8002ba0:	681a      	ldr	r2, [r3, #0]
 8002ba2:	f422 6270 	bic.w	r2, r2, #3840	; 0xf00
 8002ba6:	ea42 2101 	orr.w	r1, r2, r1, lsl #8
 8002baa:	6019      	str	r1, [r3, #0]
 8002bac:	681a      	ldr	r2, [r3, #0]
 8002bae:	f042 0201 	orr.w	r2, r2, #1
 8002bb2:	601a      	str	r2, [r3, #0]
 8002bb4:	2300      	movs	r3, #0
 8002bb6:	f880 4041 	strb.w	r4, [r0, #65]	; 0x41
 8002bba:	f880 3040 	strb.w	r3, [r0, #64]	; 0x40
 8002bbe:	4618      	mov	r0, r3
 8002bc0:	bd10      	pop	{r4, pc}
 8002bc2:	2002      	movs	r0, #2
 8002bc4:	e7fc      	b.n	8002bc0 <HAL_I2CEx_ConfigDigitalFilter+0x44>
	...

08002bc8 <HAL_PWR_EnableBkUpAccess>:
 8002bc8:	4a02      	ldr	r2, [pc, #8]	; (8002bd4 <HAL_PWR_EnableBkUpAccess+0xc>)
 8002bca:	6813      	ldr	r3, [r2, #0]
 8002bcc:	f443 7380 	orr.w	r3, r3, #256	; 0x100
 8002bd0:	6013      	str	r3, [r2, #0]
 8002bd2:	4770      	bx	lr
 8002bd4:	40007000 	.word	0x40007000

08002bd8 <HAL_PWR_EnterSTANDBYMode>:
 8002bd8:	4a06      	ldr	r2, [pc, #24]	; (8002bf4 <HAL_PWR_EnterSTANDBYMode+0x1c>)
 8002bda:	6813      	ldr	r3, [r2, #0]
 8002bdc:	f023 0307 	bic.w	r3, r3, #7
 8002be0:	f043 0303 	orr.w	r3, r3, #3
 8002be4:	6013      	str	r3, [r2, #0]
 8002be6:	4a04      	ldr	r2, [pc, #16]	; (8002bf8 <HAL_PWR_EnterSTANDBYMode+0x20>)
 8002be8:	6913      	ldr	r3, [r2, #16]
 8002bea:	f043 0304 	orr.w	r3, r3, #4
 8002bee:	6113      	str	r3, [r2, #16]
 8002bf0:	bf30      	wfi
 8002bf2:	4770      	bx	lr
 8002bf4:	40007000 	.word	0x40007000
 8002bf8:	e000ed00 	.word	0xe000ed00

08002bfc <HAL_PWREx_GetVoltageRange>:
 8002bfc:	4b02      	ldr	r3, [pc, #8]	; (8002c08 <HAL_PWREx_GetVoltageRange+0xc>)
 8002bfe:	6818      	ldr	r0, [r3, #0]
 8002c00:	f400 60c0 	and.w	r0, r0, #1536	; 0x600
 8002c04:	4770      	bx	lr
 8002c06:	bf00      	nop
 8002c08:	40007000 	.word	0x40007000

08002c0c <HAL_PWREx_ControlVoltageScaling>:
 8002c0c:	4a17      	ldr	r2, [pc, #92]	; (8002c6c <HAL_PWREx_ControlVoltageScaling+0x60>)
 8002c0e:	6813      	ldr	r3, [r2, #0]
 8002c10:	f5b0 7f00 	cmp.w	r0, #512	; 0x200
 8002c14:	f403 63c0 	and.w	r3, r3, #1536	; 0x600
 8002c18:	d11d      	bne.n	8002c56 <HAL_PWREx_ControlVoltageScaling+0x4a>
 8002c1a:	f5b3 7f00 	cmp.w	r3, #512	; 0x200
 8002c1e:	d101      	bne.n	8002c24 <HAL_PWREx_ControlVoltageScaling+0x18>
 8002c20:	2000      	movs	r0, #0
 8002c22:	4770      	bx	lr
 8002c24:	6813      	ldr	r3, [r2, #0]
 8002c26:	f423 63c0 	bic.w	r3, r3, #1536	; 0x600
 8002c2a:	f443 7300 	orr.w	r3, r3, #512	; 0x200
 8002c2e:	6013      	str	r3, [r2, #0]
 8002c30:	4b0f      	ldr	r3, [pc, #60]	; (8002c70 <HAL_PWREx_ControlVoltageScaling+0x64>)
 8002c32:	681b      	ldr	r3, [r3, #0]
 8002c34:	2132      	movs	r1, #50	; 0x32
 8002c36:	434b      	muls	r3, r1
 8002c38:	490e      	ldr	r1, [pc, #56]	; (8002c74 <HAL_PWREx_ControlVoltageScaling+0x68>)
 8002c3a:	fbb3 f3f1 	udiv	r3, r3, r1
 8002c3e:	3301      	adds	r3, #1
 8002c40:	6951      	ldr	r1, [r2, #20]
 8002c42:	0549      	lsls	r1, r1, #21
 8002c44:	d500      	bpl.n	8002c48 <HAL_PWREx_ControlVoltageScaling+0x3c>
 8002c46:	b923      	cbnz	r3, 8002c52 <HAL_PWREx_ControlVoltageScaling+0x46>
 8002c48:	6953      	ldr	r3, [r2, #20]
 8002c4a:	055b      	lsls	r3, r3, #21
 8002c4c:	d5e8      	bpl.n	8002c20 <HAL_PWREx_ControlVoltageScaling+0x14>
 8002c4e:	2003      	movs	r0, #3
 8002c50:	4770      	bx	lr
 8002c52:	3b01      	subs	r3, #1
 8002c54:	e7f4      	b.n	8002c40 <HAL_PWREx_ControlVoltageScaling+0x34>
 8002c56:	f5b3 6f80 	cmp.w	r3, #1024	; 0x400
 8002c5a:	bf1f      	itttt	ne
 8002c5c:	6813      	ldrne	r3, [r2, #0]
 8002c5e:	f423 63c0 	bicne.w	r3, r3, #1536	; 0x600
 8002c62:	f443 6380 	orrne.w	r3, r3, #1024	; 0x400
 8002c66:	6013      	strne	r3, [r2, #0]
 8002c68:	e7da      	b.n	8002c20 <HAL_PWREx_ControlVoltageScaling+0x14>
 8002c6a:	bf00      	nop
 8002c6c:	40007000 	.word	0x40007000
 8002c70:	20000000 	.word	0x20000000
 8002c74:	000f4240 	.word	0x000f4240

08002c78 <RCC_SetFlashLatencyFromMSIRange>:
 8002c78:	b537      	push	{r0, r1, r2, r4, r5, lr}
 8002c7a:	4d1e      	ldr	r5, [pc, #120]	; (8002cf4 <RCC_SetFlashLatencyFromMSIRange+0x7c>)
 8002c7c:	6dab      	ldr	r3, [r5, #88]	; 0x58
 8002c7e:	00da      	lsls	r2, r3, #3
 8002c80:	4604      	mov	r4, r0
 8002c82:	d518      	bpl.n	8002cb6 <RCC_SetFlashLatencyFromMSIRange+0x3e>
 8002c84:	f7ff ffba 	bl	8002bfc <HAL_PWREx_GetVoltageRange>
 8002c88:	f5b0 7f00 	cmp.w	r0, #512	; 0x200
 8002c8c:	d123      	bne.n	8002cd6 <RCC_SetFlashLatencyFromMSIRange+0x5e>
 8002c8e:	2c80      	cmp	r4, #128	; 0x80
 8002c90:	d929      	bls.n	8002ce6 <RCC_SetFlashLatencyFromMSIRange+0x6e>
 8002c92:	2ca0      	cmp	r4, #160	; 0xa0
 8002c94:	bf8c      	ite	hi
 8002c96:	2402      	movhi	r4, #2
 8002c98:	2401      	movls	r4, #1
 8002c9a:	4917      	ldr	r1, [pc, #92]	; (8002cf8 <RCC_SetFlashLatencyFromMSIRange+0x80>)
 8002c9c:	680a      	ldr	r2, [r1, #0]
 8002c9e:	f022 0207 	bic.w	r2, r2, #7
 8002ca2:	4322      	orrs	r2, r4
 8002ca4:	600a      	str	r2, [r1, #0]
 8002ca6:	6808      	ldr	r0, [r1, #0]
 8002ca8:	f000 0007 	and.w	r0, r0, #7
 8002cac:	1b00      	subs	r0, r0, r4
 8002cae:	bf18      	it	ne
 8002cb0:	2001      	movne	r0, #1
 8002cb2:	b003      	add	sp, #12
 8002cb4:	bd30      	pop	{r4, r5, pc}
 8002cb6:	6dab      	ldr	r3, [r5, #88]	; 0x58
 8002cb8:	f043 5380 	orr.w	r3, r3, #268435456	; 0x10000000
 8002cbc:	65ab      	str	r3, [r5, #88]	; 0x58
 8002cbe:	6dab      	ldr	r3, [r5, #88]	; 0x58
 8002cc0:	f003 5380 	and.w	r3, r3, #268435456	; 0x10000000
 8002cc4:	9301      	str	r3, [sp, #4]
 8002cc6:	9b01      	ldr	r3, [sp, #4]
 8002cc8:	f7ff ff98 	bl	8002bfc <HAL_PWREx_GetVoltageRange>
 8002ccc:	6dab      	ldr	r3, [r5, #88]	; 0x58
 8002cce:	f023 5380 	bic.w	r3, r3, #268435456	; 0x10000000
 8002cd2:	65ab      	str	r3, [r5, #88]	; 0x58
 8002cd4:	e7d8      	b.n	8002c88 <RCC_SetFlashLatencyFromMSIRange+0x10>
 8002cd6:	2c80      	cmp	r4, #128	; 0x80
 8002cd8:	d807      	bhi.n	8002cea <RCC_SetFlashLatencyFromMSIRange+0x72>
 8002cda:	d008      	beq.n	8002cee <RCC_SetFlashLatencyFromMSIRange+0x76>
 8002cdc:	f1a4 0370 	sub.w	r3, r4, #112	; 0x70
 8002ce0:	425c      	negs	r4, r3
 8002ce2:	415c      	adcs	r4, r3
 8002ce4:	e7d9      	b.n	8002c9a <RCC_SetFlashLatencyFromMSIRange+0x22>
 8002ce6:	2400      	movs	r4, #0
 8002ce8:	e7d7      	b.n	8002c9a <RCC_SetFlashLatencyFromMSIRange+0x22>
 8002cea:	2403      	movs	r4, #3
 8002cec:	e7d5      	b.n	8002c9a <RCC_SetFlashLatencyFromMSIRange+0x22>
 8002cee:	2402      	movs	r4, #2
 8002cf0:	e7d3      	b.n	8002c9a <RCC_SetFlashLatencyFromMSIRange+0x22>
 8002cf2:	bf00      	nop
 8002cf4:	40021000 	.word	0x40021000
 8002cf8:	40022000 	.word	0x40022000

08002cfc <HAL_RCC_GetSysClockFreq>:
 8002cfc:	4b22      	ldr	r3, [pc, #136]	; (8002d88 <HAL_RCC_GetSysClockFreq+0x8c>)
 8002cfe:	689a      	ldr	r2, [r3, #8]
 8002d00:	68d9      	ldr	r1, [r3, #12]
 8002d02:	f012 020c 	ands.w	r2, r2, #12
 8002d06:	d005      	beq.n	8002d14 <HAL_RCC_GetSysClockFreq+0x18>
 8002d08:	2a0c      	cmp	r2, #12
 8002d0a:	d115      	bne.n	8002d38 <HAL_RCC_GetSysClockFreq+0x3c>
 8002d0c:	f001 0103 	and.w	r1, r1, #3
 8002d10:	2901      	cmp	r1, #1
 8002d12:	d118      	bne.n	8002d46 <HAL_RCC_GetSysClockFreq+0x4a>
 8002d14:	6819      	ldr	r1, [r3, #0]
 8002d16:	481d      	ldr	r0, [pc, #116]	; (8002d8c <HAL_RCC_GetSysClockFreq+0x90>)
 8002d18:	0709      	lsls	r1, r1, #28
 8002d1a:	bf55      	itete	pl
 8002d1c:	f8d3 1094 	ldrpl.w	r1, [r3, #148]	; 0x94
 8002d20:	6819      	ldrmi	r1, [r3, #0]
 8002d22:	f3c1 2103 	ubfxpl	r1, r1, #8, #4
 8002d26:	f3c1 1103 	ubfxmi	r1, r1, #4, #4
 8002d2a:	f850 0021 	ldr.w	r0, [r0, r1, lsl #2]
 8002d2e:	b34a      	cbz	r2, 8002d84 <HAL_RCC_GetSysClockFreq+0x88>
 8002d30:	2a0c      	cmp	r2, #12
 8002d32:	d009      	beq.n	8002d48 <HAL_RCC_GetSysClockFreq+0x4c>
 8002d34:	2000      	movs	r0, #0
 8002d36:	4770      	bx	lr
 8002d38:	2a04      	cmp	r2, #4
 8002d3a:	d022      	beq.n	8002d82 <HAL_RCC_GetSysClockFreq+0x86>
 8002d3c:	2a08      	cmp	r2, #8
 8002d3e:	4814      	ldr	r0, [pc, #80]	; (8002d90 <HAL_RCC_GetSysClockFreq+0x94>)
 8002d40:	bf18      	it	ne
 8002d42:	2000      	movne	r0, #0
 8002d44:	4770      	bx	lr
 8002d46:	2000      	movs	r0, #0
 8002d48:	68da      	ldr	r2, [r3, #12]
 8002d4a:	f002 0203 	and.w	r2, r2, #3
 8002d4e:	2a02      	cmp	r2, #2
 8002d50:	d015      	beq.n	8002d7e <HAL_RCC_GetSysClockFreq+0x82>
 8002d52:	490f      	ldr	r1, [pc, #60]	; (8002d90 <HAL_RCC_GetSysClockFreq+0x94>)
 8002d54:	2a03      	cmp	r2, #3
 8002d56:	bf08      	it	eq
 8002d58:	4608      	moveq	r0, r1
 8002d5a:	68d9      	ldr	r1, [r3, #12]
 8002d5c:	68da      	ldr	r2, [r3, #12]
 8002d5e:	f3c2 2206 	ubfx	r2, r2, #8, #7
 8002d62:	4342      	muls	r2, r0
 8002d64:	68d8      	ldr	r0, [r3, #12]
 8002d66:	f3c0 6041 	ubfx	r0, r0, #25, #2
 8002d6a:	f3c1 1102 	ubfx	r1, r1, #4, #3
 8002d6e:	3001      	adds	r0, #1
 8002d70:	3101      	adds	r1, #1
 8002d72:	0040      	lsls	r0, r0, #1
 8002d74:	fbb2 f2f1 	udiv	r2, r2, r1
 8002d78:	fbb2 f0f0 	udiv	r0, r2, r0
 8002d7c:	4770      	bx	lr
 8002d7e:	4805      	ldr	r0, [pc, #20]	; (8002d94 <HAL_RCC_GetSysClockFreq+0x98>)
 8002d80:	e7eb      	b.n	8002d5a <HAL_RCC_GetSysClockFreq+0x5e>
 8002d82:	4804      	ldr	r0, [pc, #16]	; (8002d94 <HAL_RCC_GetSysClockFreq+0x98>)
 8002d84:	4770      	bx	lr
 8002d86:	bf00      	nop
 8002d88:	40021000 	.word	0x40021000
 8002d8c:	0800739c 	.word	0x0800739c
 8002d90:	007a1200 	.word	0x007a1200
 8002d94:	00f42400 	.word	0x00f42400

08002d98 <HAL_RCC_OscConfig>:
 8002d98:	e92d 43f7 	stmdb	sp!, {r0, r1, r2, r4, r5, r6, r7, r8, r9, lr}
 8002d9c:	4605      	mov	r5, r0
 8002d9e:	b918      	cbnz	r0, 8002da8 <HAL_RCC_OscConfig+0x10>
 8002da0:	2001      	movs	r0, #1
 8002da2:	b003      	add	sp, #12
 8002da4:	e8bd 83f0 	ldmia.w	sp!, {r4, r5, r6, r7, r8, r9, pc}
 8002da8:	4c94      	ldr	r4, [pc, #592]	; (8002ffc <HAL_RCC_OscConfig+0x264>)
 8002daa:	6803      	ldr	r3, [r0, #0]
 8002dac:	68a6      	ldr	r6, [r4, #8]
 8002dae:	68e7      	ldr	r7, [r4, #12]
 8002db0:	06db      	lsls	r3, r3, #27
 8002db2:	f006 060c 	and.w	r6, r6, #12
 8002db6:	f007 0703 	and.w	r7, r7, #3
 8002dba:	d53d      	bpl.n	8002e38 <HAL_RCC_OscConfig+0xa0>
 8002dbc:	b11e      	cbz	r6, 8002dc6 <HAL_RCC_OscConfig+0x2e>
 8002dbe:	2e0c      	cmp	r6, #12
 8002dc0:	d16a      	bne.n	8002e98 <HAL_RCC_OscConfig+0x100>
 8002dc2:	2f01      	cmp	r7, #1
 8002dc4:	d168      	bne.n	8002e98 <HAL_RCC_OscConfig+0x100>
 8002dc6:	6823      	ldr	r3, [r4, #0]
 8002dc8:	0798      	lsls	r0, r3, #30
 8002dca:	d502      	bpl.n	8002dd2 <HAL_RCC_OscConfig+0x3a>
 8002dcc:	69eb      	ldr	r3, [r5, #28]
 8002dce:	2b00      	cmp	r3, #0
 8002dd0:	d0e6      	beq.n	8002da0 <HAL_RCC_OscConfig+0x8>
 8002dd2:	6823      	ldr	r3, [r4, #0]
 8002dd4:	6a68      	ldr	r0, [r5, #36]	; 0x24
 8002dd6:	0719      	lsls	r1, r3, #28
 8002dd8:	bf56      	itet	pl
 8002dda:	f8d4 3094 	ldrpl.w	r3, [r4, #148]	; 0x94
 8002dde:	6823      	ldrmi	r3, [r4, #0]
 8002de0:	091b      	lsrpl	r3, r3, #4
 8002de2:	f003 03f0 	and.w	r3, r3, #240	; 0xf0
 8002de6:	4298      	cmp	r0, r3
 8002de8:	d93f      	bls.n	8002e6a <HAL_RCC_OscConfig+0xd2>
 8002dea:	f7ff ff45 	bl	8002c78 <RCC_SetFlashLatencyFromMSIRange>
 8002dee:	2800      	cmp	r0, #0
 8002df0:	d1d6      	bne.n	8002da0 <HAL_RCC_OscConfig+0x8>
 8002df2:	6823      	ldr	r3, [r4, #0]
 8002df4:	f043 0308 	orr.w	r3, r3, #8
 8002df8:	6023      	str	r3, [r4, #0]
 8002dfa:	6823      	ldr	r3, [r4, #0]
 8002dfc:	6a6a      	ldr	r2, [r5, #36]	; 0x24
 8002dfe:	f023 03f0 	bic.w	r3, r3, #240	; 0xf0
 8002e02:	4313      	orrs	r3, r2
 8002e04:	6023      	str	r3, [r4, #0]
 8002e06:	6863      	ldr	r3, [r4, #4]
 8002e08:	6a2a      	ldr	r2, [r5, #32]
 8002e0a:	f423 437f 	bic.w	r3, r3, #65280	; 0xff00
 8002e0e:	ea43 2302 	orr.w	r3, r3, r2, lsl #8
 8002e12:	6063      	str	r3, [r4, #4]
 8002e14:	f7ff ff72 	bl	8002cfc <HAL_RCC_GetSysClockFreq>
 8002e18:	68a3      	ldr	r3, [r4, #8]
 8002e1a:	4a79      	ldr	r2, [pc, #484]	; (8003000 <HAL_RCC_OscConfig+0x268>)
 8002e1c:	f3c3 1303 	ubfx	r3, r3, #4, #4
 8002e20:	5cd3      	ldrb	r3, [r2, r3]
 8002e22:	f003 031f 	and.w	r3, r3, #31
 8002e26:	40d8      	lsrs	r0, r3
 8002e28:	4b76      	ldr	r3, [pc, #472]	; (8003004 <HAL_RCC_OscConfig+0x26c>)
 8002e2a:	6018      	str	r0, [r3, #0]
 8002e2c:	4b76      	ldr	r3, [pc, #472]	; (8003008 <HAL_RCC_OscConfig+0x270>)
 8002e2e:	6818      	ldr	r0, [r3, #0]
 8002e30:	f7fe ffa0 	bl	8001d74 <HAL_InitTick>
 8002e34:	2800      	cmp	r0, #0
 8002e36:	d1b4      	bne.n	8002da2 <HAL_RCC_OscConfig+0xa>
 8002e38:	682b      	ldr	r3, [r5, #0]
 8002e3a:	07d8      	lsls	r0, r3, #31
 8002e3c:	d463      	bmi.n	8002f06 <HAL_RCC_OscConfig+0x16e>
 8002e3e:	682b      	ldr	r3, [r5, #0]
 8002e40:	0799      	lsls	r1, r3, #30
 8002e42:	f100 80a2 	bmi.w	8002f8a <HAL_RCC_OscConfig+0x1f2>
 8002e46:	682b      	ldr	r3, [r5, #0]
 8002e48:	0718      	lsls	r0, r3, #28
 8002e4a:	f100 80df 	bmi.w	800300c <HAL_RCC_OscConfig+0x274>
 8002e4e:	682b      	ldr	r3, [r5, #0]
 8002e50:	0759      	lsls	r1, r3, #29
 8002e52:	f100 812f 	bmi.w	80030b4 <HAL_RCC_OscConfig+0x31c>
 8002e56:	682b      	ldr	r3, [r5, #0]
 8002e58:	0699      	lsls	r1, r3, #26
 8002e5a:	f100 81ab 	bmi.w	80031b4 <HAL_RCC_OscConfig+0x41c>
 8002e5e:	6aeb      	ldr	r3, [r5, #44]	; 0x2c
 8002e60:	2b00      	cmp	r3, #0
 8002e62:	f040 81d1 	bne.w	8003208 <HAL_RCC_OscConfig+0x470>
 8002e66:	2000      	movs	r0, #0
 8002e68:	e79b      	b.n	8002da2 <HAL_RCC_OscConfig+0xa>
 8002e6a:	6823      	ldr	r3, [r4, #0]
 8002e6c:	f043 0308 	orr.w	r3, r3, #8
 8002e70:	6023      	str	r3, [r4, #0]
 8002e72:	6823      	ldr	r3, [r4, #0]
 8002e74:	f023 03f0 	bic.w	r3, r3, #240	; 0xf0
 8002e78:	4303      	orrs	r3, r0
 8002e7a:	6023      	str	r3, [r4, #0]
 8002e7c:	6863      	ldr	r3, [r4, #4]
 8002e7e:	6a2a      	ldr	r2, [r5, #32]
 8002e80:	f423 437f 	bic.w	r3, r3, #65280	; 0xff00
 8002e84:	ea43 2302 	orr.w	r3, r3, r2, lsl #8
 8002e88:	6063      	str	r3, [r4, #4]
 8002e8a:	2e00      	cmp	r6, #0
 8002e8c:	d1c2      	bne.n	8002e14 <HAL_RCC_OscConfig+0x7c>
 8002e8e:	f7ff fef3 	bl	8002c78 <RCC_SetFlashLatencyFromMSIRange>
 8002e92:	2800      	cmp	r0, #0
 8002e94:	d0be      	beq.n	8002e14 <HAL_RCC_OscConfig+0x7c>
 8002e96:	e783      	b.n	8002da0 <HAL_RCC_OscConfig+0x8>
 8002e98:	69eb      	ldr	r3, [r5, #28]
 8002e9a:	b31b      	cbz	r3, 8002ee4 <HAL_RCC_OscConfig+0x14c>
 8002e9c:	6823      	ldr	r3, [r4, #0]
 8002e9e:	f043 0301 	orr.w	r3, r3, #1
 8002ea2:	6023      	str	r3, [r4, #0]
 8002ea4:	f7fe ffa8 	bl	8001df8 <HAL_GetTick>
 8002ea8:	4680      	mov	r8, r0
 8002eaa:	6823      	ldr	r3, [r4, #0]
 8002eac:	079a      	lsls	r2, r3, #30
 8002eae:	d511      	bpl.n	8002ed4 <HAL_RCC_OscConfig+0x13c>
 8002eb0:	6823      	ldr	r3, [r4, #0]
 8002eb2:	f043 0308 	orr.w	r3, r3, #8
 8002eb6:	6023      	str	r3, [r4, #0]
 8002eb8:	6823      	ldr	r3, [r4, #0]
 8002eba:	6a6a      	ldr	r2, [r5, #36]	; 0x24
 8002ebc:	f023 03f0 	bic.w	r3, r3, #240	; 0xf0
 8002ec0:	4313      	orrs	r3, r2
 8002ec2:	6023      	str	r3, [r4, #0]
 8002ec4:	6863      	ldr	r3, [r4, #4]
 8002ec6:	6a2a      	ldr	r2, [r5, #32]
 8002ec8:	f423 437f 	bic.w	r3, r3, #65280	; 0xff00
 8002ecc:	ea43 2302 	orr.w	r3, r3, r2, lsl #8
 8002ed0:	6063      	str	r3, [r4, #4]
 8002ed2:	e7b1      	b.n	8002e38 <HAL_RCC_OscConfig+0xa0>
 8002ed4:	f7fe ff90 	bl	8001df8 <HAL_GetTick>
 8002ed8:	eba0 0008 	sub.w	r0, r0, r8
 8002edc:	2802      	cmp	r0, #2
 8002ede:	d9e4      	bls.n	8002eaa <HAL_RCC_OscConfig+0x112>
 8002ee0:	2003      	movs	r0, #3
 8002ee2:	e75e      	b.n	8002da2 <HAL_RCC_OscConfig+0xa>
 8002ee4:	6823      	ldr	r3, [r4, #0]
 8002ee6:	f023 0301 	bic.w	r3, r3, #1
 8002eea:	6023      	str	r3, [r4, #0]
 8002eec:	f7fe ff84 	bl	8001df8 <HAL_GetTick>
 8002ef0:	4680      	mov	r8, r0
 8002ef2:	6823      	ldr	r3, [r4, #0]
 8002ef4:	079b      	lsls	r3, r3, #30
 8002ef6:	d59f      	bpl.n	8002e38 <HAL_RCC_OscConfig+0xa0>
 8002ef8:	f7fe ff7e 	bl	8001df8 <HAL_GetTick>
 8002efc:	eba0 0008 	sub.w	r0, r0, r8
 8002f00:	2802      	cmp	r0, #2
 8002f02:	d9f6      	bls.n	8002ef2 <HAL_RCC_OscConfig+0x15a>
 8002f04:	e7ec      	b.n	8002ee0 <HAL_RCC_OscConfig+0x148>
 8002f06:	2e08      	cmp	r6, #8
 8002f08:	d003      	beq.n	8002f12 <HAL_RCC_OscConfig+0x17a>
 8002f0a:	2e0c      	cmp	r6, #12
 8002f0c:	d108      	bne.n	8002f20 <HAL_RCC_OscConfig+0x188>
 8002f0e:	2f03      	cmp	r7, #3
 8002f10:	d106      	bne.n	8002f20 <HAL_RCC_OscConfig+0x188>
 8002f12:	6823      	ldr	r3, [r4, #0]
 8002f14:	039a      	lsls	r2, r3, #14
 8002f16:	d592      	bpl.n	8002e3e <HAL_RCC_OscConfig+0xa6>
 8002f18:	686b      	ldr	r3, [r5, #4]
 8002f1a:	2b00      	cmp	r3, #0
 8002f1c:	d18f      	bne.n	8002e3e <HAL_RCC_OscConfig+0xa6>
 8002f1e:	e73f      	b.n	8002da0 <HAL_RCC_OscConfig+0x8>
 8002f20:	686b      	ldr	r3, [r5, #4]
 8002f22:	f5b3 3f80 	cmp.w	r3, #65536	; 0x10000
 8002f26:	d110      	bne.n	8002f4a <HAL_RCC_OscConfig+0x1b2>
 8002f28:	6823      	ldr	r3, [r4, #0]
 8002f2a:	f443 3380 	orr.w	r3, r3, #65536	; 0x10000
 8002f2e:	6023      	str	r3, [r4, #0]
 8002f30:	f7fe ff62 	bl	8001df8 <HAL_GetTick>
 8002f34:	4680      	mov	r8, r0
 8002f36:	6823      	ldr	r3, [r4, #0]
 8002f38:	039b      	lsls	r3, r3, #14
 8002f3a:	d480      	bmi.n	8002e3e <HAL_RCC_OscConfig+0xa6>
 8002f3c:	f7fe ff5c 	bl	8001df8 <HAL_GetTick>
 8002f40:	eba0 0008 	sub.w	r0, r0, r8
 8002f44:	2864      	cmp	r0, #100	; 0x64
 8002f46:	d9f6      	bls.n	8002f36 <HAL_RCC_OscConfig+0x19e>
 8002f48:	e7ca      	b.n	8002ee0 <HAL_RCC_OscConfig+0x148>
 8002f4a:	f5b3 2fa0 	cmp.w	r3, #327680	; 0x50000
 8002f4e:	d104      	bne.n	8002f5a <HAL_RCC_OscConfig+0x1c2>
 8002f50:	6823      	ldr	r3, [r4, #0]
 8002f52:	f443 2380 	orr.w	r3, r3, #262144	; 0x40000
 8002f56:	6023      	str	r3, [r4, #0]
 8002f58:	e7e6      	b.n	8002f28 <HAL_RCC_OscConfig+0x190>
 8002f5a:	6822      	ldr	r2, [r4, #0]
 8002f5c:	f422 3280 	bic.w	r2, r2, #65536	; 0x10000
 8002f60:	6022      	str	r2, [r4, #0]
 8002f62:	6822      	ldr	r2, [r4, #0]
 8002f64:	f422 2280 	bic.w	r2, r2, #262144	; 0x40000
 8002f68:	6022      	str	r2, [r4, #0]
 8002f6a:	2b00      	cmp	r3, #0
 8002f6c:	d1e0      	bne.n	8002f30 <HAL_RCC_OscConfig+0x198>
 8002f6e:	f7fe ff43 	bl	8001df8 <HAL_GetTick>
 8002f72:	4680      	mov	r8, r0
 8002f74:	6823      	ldr	r3, [r4, #0]
 8002f76:	0398      	lsls	r0, r3, #14
 8002f78:	f57f af61 	bpl.w	8002e3e <HAL_RCC_OscConfig+0xa6>
 8002f7c:	f7fe ff3c 	bl	8001df8 <HAL_GetTick>
 8002f80:	eba0 0008 	sub.w	r0, r0, r8
 8002f84:	2864      	cmp	r0, #100	; 0x64
 8002f86:	d9f5      	bls.n	8002f74 <HAL_RCC_OscConfig+0x1dc>
 8002f88:	e7aa      	b.n	8002ee0 <HAL_RCC_OscConfig+0x148>
 8002f8a:	2e04      	cmp	r6, #4
 8002f8c:	d003      	beq.n	8002f96 <HAL_RCC_OscConfig+0x1fe>
 8002f8e:	2e0c      	cmp	r6, #12
 8002f90:	d110      	bne.n	8002fb4 <HAL_RCC_OscConfig+0x21c>
 8002f92:	2f02      	cmp	r7, #2
 8002f94:	d10e      	bne.n	8002fb4 <HAL_RCC_OscConfig+0x21c>
 8002f96:	6823      	ldr	r3, [r4, #0]
 8002f98:	0559      	lsls	r1, r3, #21
 8002f9a:	d503      	bpl.n	8002fa4 <HAL_RCC_OscConfig+0x20c>
 8002f9c:	68eb      	ldr	r3, [r5, #12]
 8002f9e:	2b00      	cmp	r3, #0
 8002fa0:	f43f aefe 	beq.w	8002da0 <HAL_RCC_OscConfig+0x8>
 8002fa4:	6863      	ldr	r3, [r4, #4]
 8002fa6:	692a      	ldr	r2, [r5, #16]
 8002fa8:	f023 43fe 	bic.w	r3, r3, #2130706432	; 0x7f000000
 8002fac:	ea43 6302 	orr.w	r3, r3, r2, lsl #24
 8002fb0:	6063      	str	r3, [r4, #4]
 8002fb2:	e748      	b.n	8002e46 <HAL_RCC_OscConfig+0xae>
 8002fb4:	68eb      	ldr	r3, [r5, #12]
 8002fb6:	b17b      	cbz	r3, 8002fd8 <HAL_RCC_OscConfig+0x240>
 8002fb8:	6823      	ldr	r3, [r4, #0]
 8002fba:	f443 7380 	orr.w	r3, r3, #256	; 0x100
 8002fbe:	6023      	str	r3, [r4, #0]
 8002fc0:	f7fe ff1a 	bl	8001df8 <HAL_GetTick>
 8002fc4:	4607      	mov	r7, r0
 8002fc6:	6823      	ldr	r3, [r4, #0]
 8002fc8:	055a      	lsls	r2, r3, #21
 8002fca:	d4eb      	bmi.n	8002fa4 <HAL_RCC_OscConfig+0x20c>
 8002fcc:	f7fe ff14 	bl	8001df8 <HAL_GetTick>
 8002fd0:	1bc0      	subs	r0, r0, r7
 8002fd2:	2802      	cmp	r0, #2
 8002fd4:	d9f7      	bls.n	8002fc6 <HAL_RCC_OscConfig+0x22e>
 8002fd6:	e783      	b.n	8002ee0 <HAL_RCC_OscConfig+0x148>
 8002fd8:	6823      	ldr	r3, [r4, #0]
 8002fda:	f423 7380 	bic.w	r3, r3, #256	; 0x100
 8002fde:	6023      	str	r3, [r4, #0]
 8002fe0:	f7fe ff0a 	bl	8001df8 <HAL_GetTick>
 8002fe4:	4607      	mov	r7, r0
 8002fe6:	6823      	ldr	r3, [r4, #0]
 8002fe8:	055b      	lsls	r3, r3, #21
 8002fea:	f57f af2c 	bpl.w	8002e46 <HAL_RCC_OscConfig+0xae>
 8002fee:	f7fe ff03 	bl	8001df8 <HAL_GetTick>
 8002ff2:	1bc0      	subs	r0, r0, r7
 8002ff4:	2802      	cmp	r0, #2
 8002ff6:	d9f6      	bls.n	8002fe6 <HAL_RCC_OscConfig+0x24e>
 8002ff8:	e772      	b.n	8002ee0 <HAL_RCC_OscConfig+0x148>
 8002ffa:	bf00      	nop
 8002ffc:	40021000 	.word	0x40021000
 8003000:	08007383 	.word	0x08007383
 8003004:	20000000 	.word	0x20000000
 8003008:	20000008 	.word	0x20000008
 800300c:	696b      	ldr	r3, [r5, #20]
 800300e:	2b00      	cmp	r3, #0
 8003010:	d03c      	beq.n	800308c <HAL_RCC_OscConfig+0x2f4>
 8003012:	f8d4 3094 	ldr.w	r3, [r4, #148]	; 0x94
 8003016:	69a9      	ldr	r1, [r5, #24]
 8003018:	f003 0210 	and.w	r2, r3, #16
 800301c:	4291      	cmp	r1, r2
 800301e:	d00e      	beq.n	800303e <HAL_RCC_OscConfig+0x2a6>
 8003020:	f003 0203 	and.w	r2, r3, #3
 8003024:	2a02      	cmp	r2, #2
 8003026:	f43f aebb 	beq.w	8002da0 <HAL_RCC_OscConfig+0x8>
 800302a:	07da      	lsls	r2, r3, #31
 800302c:	d41b      	bmi.n	8003066 <HAL_RCC_OscConfig+0x2ce>
 800302e:	f8d4 3094 	ldr.w	r3, [r4, #148]	; 0x94
 8003032:	69aa      	ldr	r2, [r5, #24]
 8003034:	f023 0310 	bic.w	r3, r3, #16
 8003038:	4313      	orrs	r3, r2
 800303a:	f8c4 3094 	str.w	r3, [r4, #148]	; 0x94
 800303e:	f8d4 3094 	ldr.w	r3, [r4, #148]	; 0x94
 8003042:	f043 0301 	orr.w	r3, r3, #1
 8003046:	f8c4 3094 	str.w	r3, [r4, #148]	; 0x94
 800304a:	f7fe fed5 	bl	8001df8 <HAL_GetTick>
 800304e:	4607      	mov	r7, r0
 8003050:	f8d4 3094 	ldr.w	r3, [r4, #148]	; 0x94
 8003054:	0798      	lsls	r0, r3, #30
 8003056:	f53f aefa 	bmi.w	8002e4e <HAL_RCC_OscConfig+0xb6>
 800305a:	f7fe fecd 	bl	8001df8 <HAL_GetTick>
 800305e:	1bc0      	subs	r0, r0, r7
 8003060:	2811      	cmp	r0, #17
 8003062:	d9f5      	bls.n	8003050 <HAL_RCC_OscConfig+0x2b8>
 8003064:	e73c      	b.n	8002ee0 <HAL_RCC_OscConfig+0x148>
 8003066:	f8d4 3094 	ldr.w	r3, [r4, #148]	; 0x94
 800306a:	f023 0301 	bic.w	r3, r3, #1
 800306e:	f8c4 3094 	str.w	r3, [r4, #148]	; 0x94
 8003072:	f7fe fec1 	bl	8001df8 <HAL_GetTick>
 8003076:	4607      	mov	r7, r0
 8003078:	f8d4 3094 	ldr.w	r3, [r4, #148]	; 0x94
 800307c:	079b      	lsls	r3, r3, #30
 800307e:	d5d6      	bpl.n	800302e <HAL_RCC_OscConfig+0x296>
 8003080:	f7fe feba 	bl	8001df8 <HAL_GetTick>
 8003084:	1bc0      	subs	r0, r0, r7
 8003086:	2811      	cmp	r0, #17
 8003088:	d9f6      	bls.n	8003078 <HAL_RCC_OscConfig+0x2e0>
 800308a:	e729      	b.n	8002ee0 <HAL_RCC_OscConfig+0x148>
 800308c:	f8d4 3094 	ldr.w	r3, [r4, #148]	; 0x94
 8003090:	f023 0301 	bic.w	r3, r3, #1
 8003094:	f8c4 3094 	str.w	r3, [r4, #148]	; 0x94
 8003098:	f7fe feae 	bl	8001df8 <HAL_GetTick>
 800309c:	4607      	mov	r7, r0
 800309e:	f8d4 3094 	ldr.w	r3, [r4, #148]	; 0x94
 80030a2:	0799      	lsls	r1, r3, #30
 80030a4:	f57f aed3 	bpl.w	8002e4e <HAL_RCC_OscConfig+0xb6>
 80030a8:	f7fe fea6 	bl	8001df8 <HAL_GetTick>
 80030ac:	1bc0      	subs	r0, r0, r7
 80030ae:	2811      	cmp	r0, #17
 80030b0:	d9f5      	bls.n	800309e <HAL_RCC_OscConfig+0x306>
 80030b2:	e715      	b.n	8002ee0 <HAL_RCC_OscConfig+0x148>
 80030b4:	6da3      	ldr	r3, [r4, #88]	; 0x58
 80030b6:	00da      	lsls	r2, r3, #3
 80030b8:	d430      	bmi.n	800311c <HAL_RCC_OscConfig+0x384>
 80030ba:	6da3      	ldr	r3, [r4, #88]	; 0x58
 80030bc:	f043 5380 	orr.w	r3, r3, #268435456	; 0x10000000
 80030c0:	65a3      	str	r3, [r4, #88]	; 0x58
 80030c2:	6da3      	ldr	r3, [r4, #88]	; 0x58
 80030c4:	f003 5380 	and.w	r3, r3, #268435456	; 0x10000000
 80030c8:	9301      	str	r3, [sp, #4]
 80030ca:	9b01      	ldr	r3, [sp, #4]
 80030cc:	2701      	movs	r7, #1
 80030ce:	f8df 8270 	ldr.w	r8, [pc, #624]	; 8003340 <HAL_RCC_OscConfig+0x5a8>
 80030d2:	f8d8 3000 	ldr.w	r3, [r8]
 80030d6:	05db      	lsls	r3, r3, #23
 80030d8:	d522      	bpl.n	8003120 <HAL_RCC_OscConfig+0x388>
 80030da:	68aa      	ldr	r2, [r5, #8]
 80030dc:	07d0      	lsls	r0, r2, #31
 80030de:	d433      	bmi.n	8003148 <HAL_RCC_OscConfig+0x3b0>
 80030e0:	f8d4 3090 	ldr.w	r3, [r4, #144]	; 0x90
 80030e4:	f023 0301 	bic.w	r3, r3, #1
 80030e8:	f8c4 3090 	str.w	r3, [r4, #144]	; 0x90
 80030ec:	f8d4 3090 	ldr.w	r3, [r4, #144]	; 0x90
 80030f0:	f023 0304 	bic.w	r3, r3, #4
 80030f4:	f8c4 3090 	str.w	r3, [r4, #144]	; 0x90
 80030f8:	2a00      	cmp	r2, #0
 80030fa:	d13c      	bne.n	8003176 <HAL_RCC_OscConfig+0x3de>
 80030fc:	f7fe fe7c 	bl	8001df8 <HAL_GetTick>
 8003100:	f241 3988 	movw	r9, #5000	; 0x1388
 8003104:	4680      	mov	r8, r0
 8003106:	f8d4 3090 	ldr.w	r3, [r4, #144]	; 0x90
 800310a:	0798      	lsls	r0, r3, #30
 800310c:	d44b      	bmi.n	80031a6 <HAL_RCC_OscConfig+0x40e>
 800310e:	f8d4 3090 	ldr.w	r3, [r4, #144]	; 0x90
 8003112:	f023 0380 	bic.w	r3, r3, #128	; 0x80
 8003116:	f8c4 3090 	str.w	r3, [r4, #144]	; 0x90
 800311a:	e035      	b.n	8003188 <HAL_RCC_OscConfig+0x3f0>
 800311c:	2700      	movs	r7, #0
 800311e:	e7d6      	b.n	80030ce <HAL_RCC_OscConfig+0x336>
 8003120:	f8d8 3000 	ldr.w	r3, [r8]
 8003124:	f443 7380 	orr.w	r3, r3, #256	; 0x100
 8003128:	f8c8 3000 	str.w	r3, [r8]
 800312c:	f7fe fe64 	bl	8001df8 <HAL_GetTick>
 8003130:	4681      	mov	r9, r0
 8003132:	f8d8 3000 	ldr.w	r3, [r8]
 8003136:	05d9      	lsls	r1, r3, #23
 8003138:	d4cf      	bmi.n	80030da <HAL_RCC_OscConfig+0x342>
 800313a:	f7fe fe5d 	bl	8001df8 <HAL_GetTick>
 800313e:	eba0 0009 	sub.w	r0, r0, r9
 8003142:	2802      	cmp	r0, #2
 8003144:	d9f5      	bls.n	8003132 <HAL_RCC_OscConfig+0x39a>
 8003146:	e6cb      	b.n	8002ee0 <HAL_RCC_OscConfig+0x148>
 8003148:	f8d4 3090 	ldr.w	r3, [r4, #144]	; 0x90
 800314c:	f002 0180 	and.w	r1, r2, #128	; 0x80
 8003150:	f023 0380 	bic.w	r3, r3, #128	; 0x80
 8003154:	430b      	orrs	r3, r1
 8003156:	f8c4 3090 	str.w	r3, [r4, #144]	; 0x90
 800315a:	f8d4 3090 	ldr.w	r3, [r4, #144]	; 0x90
 800315e:	0752      	lsls	r2, r2, #29
 8003160:	bf42      	ittt	mi
 8003162:	f043 0304 	orrmi.w	r3, r3, #4
 8003166:	f8c4 3090 	strmi.w	r3, [r4, #144]	; 0x90
 800316a:	f8d4 3090 	ldrmi.w	r3, [r4, #144]	; 0x90
 800316e:	f043 0301 	orr.w	r3, r3, #1
 8003172:	f8c4 3090 	str.w	r3, [r4, #144]	; 0x90
 8003176:	f7fe fe3f 	bl	8001df8 <HAL_GetTick>
 800317a:	f241 3988 	movw	r9, #5000	; 0x1388
 800317e:	4680      	mov	r8, r0
 8003180:	f8d4 3090 	ldr.w	r3, [r4, #144]	; 0x90
 8003184:	079b      	lsls	r3, r3, #30
 8003186:	d507      	bpl.n	8003198 <HAL_RCC_OscConfig+0x400>
 8003188:	2f00      	cmp	r7, #0
 800318a:	f43f ae64 	beq.w	8002e56 <HAL_RCC_OscConfig+0xbe>
 800318e:	6da3      	ldr	r3, [r4, #88]	; 0x58
 8003190:	f023 5380 	bic.w	r3, r3, #268435456	; 0x10000000
 8003194:	65a3      	str	r3, [r4, #88]	; 0x58
 8003196:	e65e      	b.n	8002e56 <HAL_RCC_OscConfig+0xbe>
 8003198:	f7fe fe2e 	bl	8001df8 <HAL_GetTick>
 800319c:	eba0 0008 	sub.w	r0, r0, r8
 80031a0:	4548      	cmp	r0, r9
 80031a2:	d9ed      	bls.n	8003180 <HAL_RCC_OscConfig+0x3e8>
 80031a4:	e69c      	b.n	8002ee0 <HAL_RCC_OscConfig+0x148>
 80031a6:	f7fe fe27 	bl	8001df8 <HAL_GetTick>
 80031aa:	eba0 0008 	sub.w	r0, r0, r8
 80031ae:	4548      	cmp	r0, r9
 80031b0:	d9a9      	bls.n	8003106 <HAL_RCC_OscConfig+0x36e>
 80031b2:	e695      	b.n	8002ee0 <HAL_RCC_OscConfig+0x148>
 80031b4:	6aab      	ldr	r3, [r5, #40]	; 0x28
 80031b6:	b19b      	cbz	r3, 80031e0 <HAL_RCC_OscConfig+0x448>
 80031b8:	f8d4 3098 	ldr.w	r3, [r4, #152]	; 0x98
 80031bc:	f043 0301 	orr.w	r3, r3, #1
 80031c0:	f8c4 3098 	str.w	r3, [r4, #152]	; 0x98
 80031c4:	f7fe fe18 	bl	8001df8 <HAL_GetTick>
 80031c8:	4607      	mov	r7, r0
 80031ca:	f8d4 3098 	ldr.w	r3, [r4, #152]	; 0x98
 80031ce:	079a      	lsls	r2, r3, #30
 80031d0:	f53f ae45 	bmi.w	8002e5e <HAL_RCC_OscConfig+0xc6>
 80031d4:	f7fe fe10 	bl	8001df8 <HAL_GetTick>
 80031d8:	1bc0      	subs	r0, r0, r7
 80031da:	2802      	cmp	r0, #2
 80031dc:	d9f5      	bls.n	80031ca <HAL_RCC_OscConfig+0x432>
 80031de:	e67f      	b.n	8002ee0 <HAL_RCC_OscConfig+0x148>
 80031e0:	f8d4 3098 	ldr.w	r3, [r4, #152]	; 0x98
 80031e4:	f023 0301 	bic.w	r3, r3, #1
 80031e8:	f8c4 3098 	str.w	r3, [r4, #152]	; 0x98
 80031ec:	f7fe fe04 	bl	8001df8 <HAL_GetTick>
 80031f0:	4607      	mov	r7, r0
 80031f2:	f8d4 3098 	ldr.w	r3, [r4, #152]	; 0x98
 80031f6:	079b      	lsls	r3, r3, #30
 80031f8:	f57f ae31 	bpl.w	8002e5e <HAL_RCC_OscConfig+0xc6>
 80031fc:	f7fe fdfc 	bl	8001df8 <HAL_GetTick>
 8003200:	1bc0      	subs	r0, r0, r7
 8003202:	2802      	cmp	r0, #2
 8003204:	d9f5      	bls.n	80031f2 <HAL_RCC_OscConfig+0x45a>
 8003206:	e66b      	b.n	8002ee0 <HAL_RCC_OscConfig+0x148>
 8003208:	2b02      	cmp	r3, #2
 800320a:	d17a      	bne.n	8003302 <HAL_RCC_OscConfig+0x56a>
 800320c:	68e3      	ldr	r3, [r4, #12]
 800320e:	6b2a      	ldr	r2, [r5, #48]	; 0x30
 8003210:	f003 0103 	and.w	r1, r3, #3
 8003214:	4291      	cmp	r1, r2
 8003216:	d11c      	bne.n	8003252 <HAL_RCC_OscConfig+0x4ba>
 8003218:	6b69      	ldr	r1, [r5, #52]	; 0x34
 800321a:	f003 0270 	and.w	r2, r3, #112	; 0x70
 800321e:	3901      	subs	r1, #1
 8003220:	ebb2 1f01 	cmp.w	r2, r1, lsl #4
 8003224:	d115      	bne.n	8003252 <HAL_RCC_OscConfig+0x4ba>
 8003226:	6ba9      	ldr	r1, [r5, #56]	; 0x38
 8003228:	f403 42fe 	and.w	r2, r3, #32512	; 0x7f00
 800322c:	ebb2 2f01 	cmp.w	r2, r1, lsl #8
 8003230:	d10f      	bne.n	8003252 <HAL_RCC_OscConfig+0x4ba>
 8003232:	6bea      	ldr	r2, [r5, #60]	; 0x3c
 8003234:	0852      	lsrs	r2, r2, #1
 8003236:	f403 01c0 	and.w	r1, r3, #6291456	; 0x600000
 800323a:	3a01      	subs	r2, #1
 800323c:	ebb1 5f42 	cmp.w	r1, r2, lsl #21
 8003240:	d107      	bne.n	8003252 <HAL_RCC_OscConfig+0x4ba>
 8003242:	6c2a      	ldr	r2, [r5, #64]	; 0x40
 8003244:	0852      	lsrs	r2, r2, #1
 8003246:	f003 63c0 	and.w	r3, r3, #100663296	; 0x6000000
 800324a:	3a01      	subs	r2, #1
 800324c:	ebb3 6f42 	cmp.w	r3, r2, lsl #25
 8003250:	d03e      	beq.n	80032d0 <HAL_RCC_OscConfig+0x538>
 8003252:	2e0c      	cmp	r6, #12
 8003254:	f43f ada4 	beq.w	8002da0 <HAL_RCC_OscConfig+0x8>
 8003258:	6823      	ldr	r3, [r4, #0]
 800325a:	f023 7380 	bic.w	r3, r3, #16777216	; 0x1000000
 800325e:	6023      	str	r3, [r4, #0]
 8003260:	f7fe fdca 	bl	8001df8 <HAL_GetTick>
 8003264:	4606      	mov	r6, r0
 8003266:	6823      	ldr	r3, [r4, #0]
 8003268:	0198      	lsls	r0, r3, #6
 800326a:	d42b      	bmi.n	80032c4 <HAL_RCC_OscConfig+0x52c>
 800326c:	68e2      	ldr	r2, [r4, #12]
 800326e:	4b33      	ldr	r3, [pc, #204]	; (800333c <HAL_RCC_OscConfig+0x5a4>)
 8003270:	4013      	ands	r3, r2
 8003272:	6b2a      	ldr	r2, [r5, #48]	; 0x30
 8003274:	4313      	orrs	r3, r2
 8003276:	6baa      	ldr	r2, [r5, #56]	; 0x38
 8003278:	ea43 2302 	orr.w	r3, r3, r2, lsl #8
 800327c:	6b6a      	ldr	r2, [r5, #52]	; 0x34
 800327e:	3a01      	subs	r2, #1
 8003280:	ea43 1302 	orr.w	r3, r3, r2, lsl #4
 8003284:	6bea      	ldr	r2, [r5, #60]	; 0x3c
 8003286:	0852      	lsrs	r2, r2, #1
 8003288:	3a01      	subs	r2, #1
 800328a:	ea43 5342 	orr.w	r3, r3, r2, lsl #21
 800328e:	6c2a      	ldr	r2, [r5, #64]	; 0x40
 8003290:	0852      	lsrs	r2, r2, #1
 8003292:	3a01      	subs	r2, #1
 8003294:	ea43 6342 	orr.w	r3, r3, r2, lsl #25
 8003298:	60e3      	str	r3, [r4, #12]
 800329a:	6823      	ldr	r3, [r4, #0]
 800329c:	f043 7380 	orr.w	r3, r3, #16777216	; 0x1000000
 80032a0:	6023      	str	r3, [r4, #0]
 80032a2:	68e3      	ldr	r3, [r4, #12]
 80032a4:	f043 7380 	orr.w	r3, r3, #16777216	; 0x1000000
 80032a8:	60e3      	str	r3, [r4, #12]
 80032aa:	f7fe fda5 	bl	8001df8 <HAL_GetTick>
 80032ae:	4605      	mov	r5, r0
 80032b0:	6823      	ldr	r3, [r4, #0]
 80032b2:	0199      	lsls	r1, r3, #6
 80032b4:	f53f add7 	bmi.w	8002e66 <HAL_RCC_OscConfig+0xce>
 80032b8:	f7fe fd9e 	bl	8001df8 <HAL_GetTick>
 80032bc:	1b40      	subs	r0, r0, r5
 80032be:	2802      	cmp	r0, #2
 80032c0:	d9f6      	bls.n	80032b0 <HAL_RCC_OscConfig+0x518>
 80032c2:	e60d      	b.n	8002ee0 <HAL_RCC_OscConfig+0x148>
 80032c4:	f7fe fd98 	bl	8001df8 <HAL_GetTick>
 80032c8:	1b80      	subs	r0, r0, r6
 80032ca:	2802      	cmp	r0, #2
 80032cc:	d9cb      	bls.n	8003266 <HAL_RCC_OscConfig+0x4ce>
 80032ce:	e607      	b.n	8002ee0 <HAL_RCC_OscConfig+0x148>
 80032d0:	6823      	ldr	r3, [r4, #0]
 80032d2:	019a      	lsls	r2, r3, #6
 80032d4:	f53f adc7 	bmi.w	8002e66 <HAL_RCC_OscConfig+0xce>
 80032d8:	6823      	ldr	r3, [r4, #0]
 80032da:	f043 7380 	orr.w	r3, r3, #16777216	; 0x1000000
 80032de:	6023      	str	r3, [r4, #0]
 80032e0:	68e3      	ldr	r3, [r4, #12]
 80032e2:	f043 7380 	orr.w	r3, r3, #16777216	; 0x1000000
 80032e6:	60e3      	str	r3, [r4, #12]
 80032e8:	f7fe fd86 	bl	8001df8 <HAL_GetTick>
 80032ec:	4605      	mov	r5, r0
 80032ee:	6823      	ldr	r3, [r4, #0]
 80032f0:	019b      	lsls	r3, r3, #6
 80032f2:	f53f adb8 	bmi.w	8002e66 <HAL_RCC_OscConfig+0xce>
 80032f6:	f7fe fd7f 	bl	8001df8 <HAL_GetTick>
 80032fa:	1b40      	subs	r0, r0, r5
 80032fc:	2802      	cmp	r0, #2
 80032fe:	d9f6      	bls.n	80032ee <HAL_RCC_OscConfig+0x556>
 8003300:	e5ee      	b.n	8002ee0 <HAL_RCC_OscConfig+0x148>
 8003302:	2e0c      	cmp	r6, #12
 8003304:	f43f ad4c 	beq.w	8002da0 <HAL_RCC_OscConfig+0x8>
 8003308:	6823      	ldr	r3, [r4, #0]
 800330a:	f023 7380 	bic.w	r3, r3, #16777216	; 0x1000000
 800330e:	6023      	str	r3, [r4, #0]
 8003310:	f7fe fd72 	bl	8001df8 <HAL_GetTick>
 8003314:	4605      	mov	r5, r0
 8003316:	6823      	ldr	r3, [r4, #0]
 8003318:	f013 7300 	ands.w	r3, r3, #33554432	; 0x2000000
 800331c:	d107      	bne.n	800332e <HAL_RCC_OscConfig+0x596>
 800331e:	68e2      	ldr	r2, [r4, #12]
 8003320:	f022 7288 	bic.w	r2, r2, #17825792	; 0x1100000
 8003324:	f022 0203 	bic.w	r2, r2, #3
 8003328:	60e2      	str	r2, [r4, #12]
 800332a:	4618      	mov	r0, r3
 800332c:	e539      	b.n	8002da2 <HAL_RCC_OscConfig+0xa>
 800332e:	f7fe fd63 	bl	8001df8 <HAL_GetTick>
 8003332:	1b40      	subs	r0, r0, r5
 8003334:	2802      	cmp	r0, #2
 8003336:	d9ee      	bls.n	8003316 <HAL_RCC_OscConfig+0x57e>
 8003338:	e5d2      	b.n	8002ee0 <HAL_RCC_OscConfig+0x148>
 800333a:	bf00      	nop
 800333c:	f99f808c 	.word	0xf99f808c
 8003340:	40007000 	.word	0x40007000

08003344 <HAL_RCC_ClockConfig>:
 8003344:	e92d 41f0 	stmdb	sp!, {r4, r5, r6, r7, r8, lr}
 8003348:	460d      	mov	r5, r1
 800334a:	4604      	mov	r4, r0
 800334c:	b910      	cbnz	r0, 8003354 <HAL_RCC_ClockConfig+0x10>
 800334e:	2001      	movs	r0, #1
 8003350:	e8bd 81f0 	ldmia.w	sp!, {r4, r5, r6, r7, r8, pc}
 8003354:	4a4b      	ldr	r2, [pc, #300]	; (8003484 <HAL_RCC_ClockConfig+0x140>)
 8003356:	6813      	ldr	r3, [r2, #0]
 8003358:	f003 0307 	and.w	r3, r3, #7
 800335c:	428b      	cmp	r3, r1
 800335e:	d32c      	bcc.n	80033ba <HAL_RCC_ClockConfig+0x76>
 8003360:	6821      	ldr	r1, [r4, #0]
 8003362:	0788      	lsls	r0, r1, #30
 8003364:	d434      	bmi.n	80033d0 <HAL_RCC_ClockConfig+0x8c>
 8003366:	07c9      	lsls	r1, r1, #31
 8003368:	d43f      	bmi.n	80033ea <HAL_RCC_ClockConfig+0xa6>
 800336a:	6821      	ldr	r1, [r4, #0]
 800336c:	078a      	lsls	r2, r1, #30
 800336e:	d468      	bmi.n	8003442 <HAL_RCC_ClockConfig+0xfe>
 8003370:	4a44      	ldr	r2, [pc, #272]	; (8003484 <HAL_RCC_ClockConfig+0x140>)
 8003372:	6813      	ldr	r3, [r2, #0]
 8003374:	f003 0307 	and.w	r3, r3, #7
 8003378:	42ab      	cmp	r3, r5
 800337a:	d86f      	bhi.n	800345c <HAL_RCC_ClockConfig+0x118>
 800337c:	f011 0f04 	tst.w	r1, #4
 8003380:	4d41      	ldr	r5, [pc, #260]	; (8003488 <HAL_RCC_ClockConfig+0x144>)
 8003382:	d177      	bne.n	8003474 <HAL_RCC_ClockConfig+0x130>
 8003384:	070b      	lsls	r3, r1, #28
 8003386:	d506      	bpl.n	8003396 <HAL_RCC_ClockConfig+0x52>
 8003388:	68ab      	ldr	r3, [r5, #8]
 800338a:	6922      	ldr	r2, [r4, #16]
 800338c:	f423 5360 	bic.w	r3, r3, #14336	; 0x3800
 8003390:	ea43 03c2 	orr.w	r3, r3, r2, lsl #3
 8003394:	60ab      	str	r3, [r5, #8]
 8003396:	f7ff fcb1 	bl	8002cfc <HAL_RCC_GetSysClockFreq>
 800339a:	68ab      	ldr	r3, [r5, #8]
 800339c:	4a3b      	ldr	r2, [pc, #236]	; (800348c <HAL_RCC_ClockConfig+0x148>)
 800339e:	f3c3 1303 	ubfx	r3, r3, #4, #4
 80033a2:	e8bd 41f0 	ldmia.w	sp!, {r4, r5, r6, r7, r8, lr}
 80033a6:	5cd3      	ldrb	r3, [r2, r3]
 80033a8:	f003 031f 	and.w	r3, r3, #31
 80033ac:	40d8      	lsrs	r0, r3
 80033ae:	4b38      	ldr	r3, [pc, #224]	; (8003490 <HAL_RCC_ClockConfig+0x14c>)
 80033b0:	6018      	str	r0, [r3, #0]
 80033b2:	4b38      	ldr	r3, [pc, #224]	; (8003494 <HAL_RCC_ClockConfig+0x150>)
 80033b4:	6818      	ldr	r0, [r3, #0]
 80033b6:	f7fe bcdd 	b.w	8001d74 <HAL_InitTick>
 80033ba:	6813      	ldr	r3, [r2, #0]
 80033bc:	f023 0307 	bic.w	r3, r3, #7
 80033c0:	430b      	orrs	r3, r1
 80033c2:	6013      	str	r3, [r2, #0]
 80033c4:	6813      	ldr	r3, [r2, #0]
 80033c6:	f003 0307 	and.w	r3, r3, #7
 80033ca:	428b      	cmp	r3, r1
 80033cc:	d1bf      	bne.n	800334e <HAL_RCC_ClockConfig+0xa>
 80033ce:	e7c7      	b.n	8003360 <HAL_RCC_ClockConfig+0x1c>
 80033d0:	4a2d      	ldr	r2, [pc, #180]	; (8003488 <HAL_RCC_ClockConfig+0x144>)
 80033d2:	68a0      	ldr	r0, [r4, #8]
 80033d4:	6893      	ldr	r3, [r2, #8]
 80033d6:	f003 03f0 	and.w	r3, r3, #240	; 0xf0
 80033da:	4298      	cmp	r0, r3
 80033dc:	bf81      	itttt	hi
 80033de:	6893      	ldrhi	r3, [r2, #8]
 80033e0:	f023 03f0 	bichi.w	r3, r3, #240	; 0xf0
 80033e4:	4303      	orrhi	r3, r0
 80033e6:	6093      	strhi	r3, [r2, #8]
 80033e8:	e7bd      	b.n	8003366 <HAL_RCC_ClockConfig+0x22>
 80033ea:	6862      	ldr	r2, [r4, #4]
 80033ec:	4e26      	ldr	r6, [pc, #152]	; (8003488 <HAL_RCC_ClockConfig+0x144>)
 80033ee:	2a03      	cmp	r2, #3
 80033f0:	6833      	ldr	r3, [r6, #0]
 80033f2:	d11a      	bne.n	800342a <HAL_RCC_ClockConfig+0xe6>
 80033f4:	f013 7f00 	tst.w	r3, #33554432	; 0x2000000
 80033f8:	d0a9      	beq.n	800334e <HAL_RCC_ClockConfig+0xa>
 80033fa:	68b3      	ldr	r3, [r6, #8]
 80033fc:	f023 0303 	bic.w	r3, r3, #3
 8003400:	4313      	orrs	r3, r2
 8003402:	60b3      	str	r3, [r6, #8]
 8003404:	f7fe fcf8 	bl	8001df8 <HAL_GetTick>
 8003408:	f241 3888 	movw	r8, #5000	; 0x1388
 800340c:	4607      	mov	r7, r0
 800340e:	68b3      	ldr	r3, [r6, #8]
 8003410:	6862      	ldr	r2, [r4, #4]
 8003412:	f003 030c 	and.w	r3, r3, #12
 8003416:	ebb3 0f82 	cmp.w	r3, r2, lsl #2
 800341a:	d0a6      	beq.n	800336a <HAL_RCC_ClockConfig+0x26>
 800341c:	f7fe fcec 	bl	8001df8 <HAL_GetTick>
 8003420:	1bc0      	subs	r0, r0, r7
 8003422:	4540      	cmp	r0, r8
 8003424:	d9f3      	bls.n	800340e <HAL_RCC_ClockConfig+0xca>
 8003426:	2003      	movs	r0, #3
 8003428:	e792      	b.n	8003350 <HAL_RCC_ClockConfig+0xc>
 800342a:	2a02      	cmp	r2, #2
 800342c:	d102      	bne.n	8003434 <HAL_RCC_ClockConfig+0xf0>
 800342e:	f413 3f00 	tst.w	r3, #131072	; 0x20000
 8003432:	e7e1      	b.n	80033f8 <HAL_RCC_ClockConfig+0xb4>
 8003434:	b912      	cbnz	r2, 800343c <HAL_RCC_ClockConfig+0xf8>
 8003436:	f013 0f02 	tst.w	r3, #2
 800343a:	e7dd      	b.n	80033f8 <HAL_RCC_ClockConfig+0xb4>
 800343c:	f413 6f80 	tst.w	r3, #1024	; 0x400
 8003440:	e7da      	b.n	80033f8 <HAL_RCC_ClockConfig+0xb4>
 8003442:	4a11      	ldr	r2, [pc, #68]	; (8003488 <HAL_RCC_ClockConfig+0x144>)
 8003444:	68a0      	ldr	r0, [r4, #8]
 8003446:	6893      	ldr	r3, [r2, #8]
 8003448:	f003 03f0 	and.w	r3, r3, #240	; 0xf0
 800344c:	4298      	cmp	r0, r3
 800344e:	bf3f      	itttt	cc
 8003450:	6893      	ldrcc	r3, [r2, #8]
 8003452:	f023 03f0 	biccc.w	r3, r3, #240	; 0xf0
 8003456:	4303      	orrcc	r3, r0
 8003458:	6093      	strcc	r3, [r2, #8]
 800345a:	e789      	b.n	8003370 <HAL_RCC_ClockConfig+0x2c>
 800345c:	6813      	ldr	r3, [r2, #0]
 800345e:	f023 0307 	bic.w	r3, r3, #7
 8003462:	432b      	orrs	r3, r5
 8003464:	6013      	str	r3, [r2, #0]
 8003466:	6813      	ldr	r3, [r2, #0]
 8003468:	f003 0307 	and.w	r3, r3, #7
 800346c:	42ab      	cmp	r3, r5
 800346e:	f47f af6e 	bne.w	800334e <HAL_RCC_ClockConfig+0xa>
 8003472:	e783      	b.n	800337c <HAL_RCC_ClockConfig+0x38>
 8003474:	68ab      	ldr	r3, [r5, #8]
 8003476:	68e2      	ldr	r2, [r4, #12]
 8003478:	f423 63e0 	bic.w	r3, r3, #1792	; 0x700
 800347c:	4313      	orrs	r3, r2
 800347e:	60ab      	str	r3, [r5, #8]
 8003480:	e780      	b.n	8003384 <HAL_RCC_ClockConfig+0x40>
 8003482:	bf00      	nop
 8003484:	40022000 	.word	0x40022000
 8003488:	40021000 	.word	0x40021000
 800348c:	08007383 	.word	0x08007383
 8003490:	20000000 	.word	0x20000000
 8003494:	20000008 	.word	0x20000008

08003498 <HAL_RCC_GetPCLK1Freq>:
 8003498:	4b05      	ldr	r3, [pc, #20]	; (80034b0 <HAL_RCC_GetPCLK1Freq+0x18>)
 800349a:	4a06      	ldr	r2, [pc, #24]	; (80034b4 <HAL_RCC_GetPCLK1Freq+0x1c>)
 800349c:	689b      	ldr	r3, [r3, #8]
 800349e:	f3c3 2302 	ubfx	r3, r3, #8, #3
 80034a2:	5cd3      	ldrb	r3, [r2, r3]
 80034a4:	4a04      	ldr	r2, [pc, #16]	; (80034b8 <HAL_RCC_GetPCLK1Freq+0x20>)
 80034a6:	6810      	ldr	r0, [r2, #0]
 80034a8:	f003 031f 	and.w	r3, r3, #31
 80034ac:	40d8      	lsrs	r0, r3
 80034ae:	4770      	bx	lr
 80034b0:	40021000 	.word	0x40021000
 80034b4:	08007393 	.word	0x08007393
 80034b8:	20000000 	.word	0x20000000

080034bc <HAL_RCC_GetPCLK2Freq>:
 80034bc:	4b05      	ldr	r3, [pc, #20]	; (80034d4 <HAL_RCC_GetPCLK2Freq+0x18>)
 80034be:	4a06      	ldr	r2, [pc, #24]	; (80034d8 <HAL_RCC_GetPCLK2Freq+0x1c>)
 80034c0:	689b      	ldr	r3, [r3, #8]
 80034c2:	f3c3 23c2 	ubfx	r3, r3, #11, #3
 80034c6:	5cd3      	ldrb	r3, [r2, r3]
 80034c8:	4a04      	ldr	r2, [pc, #16]	; (80034dc <HAL_RCC_GetPCLK2Freq+0x20>)
 80034ca:	6810      	ldr	r0, [r2, #0]
 80034cc:	f003 031f 	and.w	r3, r3, #31
 80034d0:	40d8      	lsrs	r0, r3
 80034d2:	4770      	bx	lr
 80034d4:	40021000 	.word	0x40021000
 80034d8:	08007393 	.word	0x08007393
 80034dc:	20000000 	.word	0x20000000

080034e0 <HAL_RCCEx_PeriphCLKConfig>:
 80034e0:	e92d 41f3 	stmdb	sp!, {r0, r1, r4, r5, r6, r7, r8, lr}
 80034e4:	4604      	mov	r4, r0
 80034e6:	6800      	ldr	r0, [r0, #0]
 80034e8:	f410 3000 	ands.w	r0, r0, #131072	; 0x20000
 80034ec:	d039      	beq.n	8003562 <HAL_RCCEx_PeriphCLKConfig+0x82>
 80034ee:	4d75      	ldr	r5, [pc, #468]	; (80036c4 <HAL_RCCEx_PeriphCLKConfig+0x1e4>)
 80034f0:	6dab      	ldr	r3, [r5, #88]	; 0x58
 80034f2:	00d8      	lsls	r0, r3, #3
 80034f4:	d427      	bmi.n	8003546 <HAL_RCCEx_PeriphCLKConfig+0x66>
 80034f6:	6dab      	ldr	r3, [r5, #88]	; 0x58
 80034f8:	f043 5380 	orr.w	r3, r3, #268435456	; 0x10000000
 80034fc:	65ab      	str	r3, [r5, #88]	; 0x58
 80034fe:	6dab      	ldr	r3, [r5, #88]	; 0x58
 8003500:	f003 5380 	and.w	r3, r3, #268435456	; 0x10000000
 8003504:	9301      	str	r3, [sp, #4]
 8003506:	9b01      	ldr	r3, [sp, #4]
 8003508:	2601      	movs	r6, #1
 800350a:	4f6f      	ldr	r7, [pc, #444]	; (80036c8 <HAL_RCCEx_PeriphCLKConfig+0x1e8>)
 800350c:	683b      	ldr	r3, [r7, #0]
 800350e:	f443 7380 	orr.w	r3, r3, #256	; 0x100
 8003512:	603b      	str	r3, [r7, #0]
 8003514:	f7fe fc70 	bl	8001df8 <HAL_GetTick>
 8003518:	4680      	mov	r8, r0
 800351a:	683b      	ldr	r3, [r7, #0]
 800351c:	05d9      	lsls	r1, r3, #23
 800351e:	d514      	bpl.n	800354a <HAL_RCCEx_PeriphCLKConfig+0x6a>
 8003520:	f8d5 3090 	ldr.w	r3, [r5, #144]	; 0x90
 8003524:	6b22      	ldr	r2, [r4, #48]	; 0x30
 8003526:	f413 7340 	ands.w	r3, r3, #768	; 0x300
 800352a:	d002      	beq.n	8003532 <HAL_RCCEx_PeriphCLKConfig+0x52>
 800352c:	4293      	cmp	r3, r2
 800352e:	f040 80a3 	bne.w	8003678 <HAL_RCCEx_PeriphCLKConfig+0x198>
 8003532:	f8d5 3090 	ldr.w	r3, [r5, #144]	; 0x90
 8003536:	6b22      	ldr	r2, [r4, #48]	; 0x30
 8003538:	f423 7340 	bic.w	r3, r3, #768	; 0x300
 800353c:	4313      	orrs	r3, r2
 800353e:	f8c5 3090 	str.w	r3, [r5, #144]	; 0x90
 8003542:	2000      	movs	r0, #0
 8003544:	e008      	b.n	8003558 <HAL_RCCEx_PeriphCLKConfig+0x78>
 8003546:	2600      	movs	r6, #0
 8003548:	e7df      	b.n	800350a <HAL_RCCEx_PeriphCLKConfig+0x2a>
 800354a:	f7fe fc55 	bl	8001df8 <HAL_GetTick>
 800354e:	eba0 0008 	sub.w	r0, r0, r8
 8003552:	2802      	cmp	r0, #2
 8003554:	d9e1      	bls.n	800351a <HAL_RCCEx_PeriphCLKConfig+0x3a>
 8003556:	2003      	movs	r0, #3
 8003558:	b11e      	cbz	r6, 8003562 <HAL_RCCEx_PeriphCLKConfig+0x82>
 800355a:	6dab      	ldr	r3, [r5, #88]	; 0x58
 800355c:	f023 5380 	bic.w	r3, r3, #268435456	; 0x10000000
 8003560:	65ab      	str	r3, [r5, #88]	; 0x58
 8003562:	6823      	ldr	r3, [r4, #0]
 8003564:	07df      	lsls	r7, r3, #31
 8003566:	d508      	bpl.n	800357a <HAL_RCCEx_PeriphCLKConfig+0x9a>
 8003568:	4956      	ldr	r1, [pc, #344]	; (80036c4 <HAL_RCCEx_PeriphCLKConfig+0x1e4>)
 800356a:	6865      	ldr	r5, [r4, #4]
 800356c:	f8d1 2088 	ldr.w	r2, [r1, #136]	; 0x88
 8003570:	f022 0203 	bic.w	r2, r2, #3
 8003574:	432a      	orrs	r2, r5
 8003576:	f8c1 2088 	str.w	r2, [r1, #136]	; 0x88
 800357a:	079e      	lsls	r6, r3, #30
 800357c:	d508      	bpl.n	8003590 <HAL_RCCEx_PeriphCLKConfig+0xb0>
 800357e:	4951      	ldr	r1, [pc, #324]	; (80036c4 <HAL_RCCEx_PeriphCLKConfig+0x1e4>)
 8003580:	68a5      	ldr	r5, [r4, #8]
 8003582:	f8d1 2088 	ldr.w	r2, [r1, #136]	; 0x88
 8003586:	f022 020c 	bic.w	r2, r2, #12
 800358a:	432a      	orrs	r2, r5
 800358c:	f8c1 2088 	str.w	r2, [r1, #136]	; 0x88
 8003590:	075d      	lsls	r5, r3, #29
 8003592:	d508      	bpl.n	80035a6 <HAL_RCCEx_PeriphCLKConfig+0xc6>
 8003594:	494b      	ldr	r1, [pc, #300]	; (80036c4 <HAL_RCCEx_PeriphCLKConfig+0x1e4>)
 8003596:	68e5      	ldr	r5, [r4, #12]
 8003598:	f8d1 2088 	ldr.w	r2, [r1, #136]	; 0x88
 800359c:	f022 0230 	bic.w	r2, r2, #48	; 0x30
 80035a0:	432a      	orrs	r2, r5
 80035a2:	f8c1 2088 	str.w	r2, [r1, #136]	; 0x88
 80035a6:	0699      	lsls	r1, r3, #26
 80035a8:	d508      	bpl.n	80035bc <HAL_RCCEx_PeriphCLKConfig+0xdc>
 80035aa:	4946      	ldr	r1, [pc, #280]	; (80036c4 <HAL_RCCEx_PeriphCLKConfig+0x1e4>)
 80035ac:	6925      	ldr	r5, [r4, #16]
 80035ae:	f8d1 2088 	ldr.w	r2, [r1, #136]	; 0x88
 80035b2:	f422 6240 	bic.w	r2, r2, #3072	; 0xc00
 80035b6:	432a      	orrs	r2, r5
 80035b8:	f8c1 2088 	str.w	r2, [r1, #136]	; 0x88
 80035bc:	059a      	lsls	r2, r3, #22
 80035be:	d508      	bpl.n	80035d2 <HAL_RCCEx_PeriphCLKConfig+0xf2>
 80035c0:	4940      	ldr	r1, [pc, #256]	; (80036c4 <HAL_RCCEx_PeriphCLKConfig+0x1e4>)
 80035c2:	6a25      	ldr	r5, [r4, #32]
 80035c4:	f8d1 2088 	ldr.w	r2, [r1, #136]	; 0x88
 80035c8:	f422 2240 	bic.w	r2, r2, #786432	; 0xc0000
 80035cc:	432a      	orrs	r2, r5
 80035ce:	f8c1 2088 	str.w	r2, [r1, #136]	; 0x88
 80035d2:	055f      	lsls	r7, r3, #21
 80035d4:	d508      	bpl.n	80035e8 <HAL_RCCEx_PeriphCLKConfig+0x108>
 80035d6:	493b      	ldr	r1, [pc, #236]	; (80036c4 <HAL_RCCEx_PeriphCLKConfig+0x1e4>)
 80035d8:	6a65      	ldr	r5, [r4, #36]	; 0x24
 80035da:	f8d1 2088 	ldr.w	r2, [r1, #136]	; 0x88
 80035de:	f422 1240 	bic.w	r2, r2, #3145728	; 0x300000
 80035e2:	432a      	orrs	r2, r5
 80035e4:	f8c1 2088 	str.w	r2, [r1, #136]	; 0x88
 80035e8:	065e      	lsls	r6, r3, #25
 80035ea:	d508      	bpl.n	80035fe <HAL_RCCEx_PeriphCLKConfig+0x11e>
 80035ec:	4935      	ldr	r1, [pc, #212]	; (80036c4 <HAL_RCCEx_PeriphCLKConfig+0x1e4>)
 80035ee:	6965      	ldr	r5, [r4, #20]
 80035f0:	f8d1 2088 	ldr.w	r2, [r1, #136]	; 0x88
 80035f4:	f422 5240 	bic.w	r2, r2, #12288	; 0x3000
 80035f8:	432a      	orrs	r2, r5
 80035fa:	f8c1 2088 	str.w	r2, [r1, #136]	; 0x88
 80035fe:	061d      	lsls	r5, r3, #24
 8003600:	d508      	bpl.n	8003614 <HAL_RCCEx_PeriphCLKConfig+0x134>
 8003602:	4930      	ldr	r1, [pc, #192]	; (80036c4 <HAL_RCCEx_PeriphCLKConfig+0x1e4>)
 8003604:	69a5      	ldr	r5, [r4, #24]
 8003606:	f8d1 2088 	ldr.w	r2, [r1, #136]	; 0x88
 800360a:	f422 4240 	bic.w	r2, r2, #49152	; 0xc000
 800360e:	432a      	orrs	r2, r5
 8003610:	f8c1 2088 	str.w	r2, [r1, #136]	; 0x88
 8003614:	05d9      	lsls	r1, r3, #23
 8003616:	d508      	bpl.n	800362a <HAL_RCCEx_PeriphCLKConfig+0x14a>
 8003618:	492a      	ldr	r1, [pc, #168]	; (80036c4 <HAL_RCCEx_PeriphCLKConfig+0x1e4>)
 800361a:	69e5      	ldr	r5, [r4, #28]
 800361c:	f8d1 2088 	ldr.w	r2, [r1, #136]	; 0x88
 8003620:	f422 3240 	bic.w	r2, r2, #196608	; 0x30000
 8003624:	432a      	orrs	r2, r5
 8003626:	f8c1 2088 	str.w	r2, [r1, #136]	; 0x88
 800362a:	049a      	lsls	r2, r3, #18
 800362c:	d50f      	bpl.n	800364e <HAL_RCCEx_PeriphCLKConfig+0x16e>
 800362e:	4925      	ldr	r1, [pc, #148]	; (80036c4 <HAL_RCCEx_PeriphCLKConfig+0x1e4>)
 8003630:	6aa5      	ldr	r5, [r4, #40]	; 0x28
 8003632:	f8d1 2088 	ldr.w	r2, [r1, #136]	; 0x88
 8003636:	f022 6240 	bic.w	r2, r2, #201326592	; 0xc000000
 800363a:	432a      	orrs	r2, r5
 800363c:	f8c1 2088 	str.w	r2, [r1, #136]	; 0x88
 8003640:	f1b5 6f00 	cmp.w	r5, #134217728	; 0x8000000
 8003644:	bf02      	ittt	eq
 8003646:	68ca      	ldreq	r2, [r1, #12]
 8003648:	f442 1280 	orreq.w	r2, r2, #1048576	; 0x100000
 800364c:	60ca      	streq	r2, [r1, #12]
 800364e:	035b      	lsls	r3, r3, #13
 8003650:	d50f      	bpl.n	8003672 <HAL_RCCEx_PeriphCLKConfig+0x192>
 8003652:	4a1c      	ldr	r2, [pc, #112]	; (80036c4 <HAL_RCCEx_PeriphCLKConfig+0x1e4>)
 8003654:	6ae1      	ldr	r1, [r4, #44]	; 0x2c
 8003656:	f8d2 3088 	ldr.w	r3, [r2, #136]	; 0x88
 800365a:	f023 6340 	bic.w	r3, r3, #201326592	; 0xc000000
 800365e:	430b      	orrs	r3, r1
 8003660:	f1b1 6f00 	cmp.w	r1, #134217728	; 0x8000000
 8003664:	f8c2 3088 	str.w	r3, [r2, #136]	; 0x88
 8003668:	d103      	bne.n	8003672 <HAL_RCCEx_PeriphCLKConfig+0x192>
 800366a:	68d3      	ldr	r3, [r2, #12]
 800366c:	f443 1380 	orr.w	r3, r3, #1048576	; 0x100000
 8003670:	60d3      	str	r3, [r2, #12]
 8003672:	b002      	add	sp, #8
 8003674:	e8bd 81f0 	ldmia.w	sp!, {r4, r5, r6, r7, r8, pc}
 8003678:	f8d5 2090 	ldr.w	r2, [r5, #144]	; 0x90
 800367c:	f8d5 3090 	ldr.w	r3, [r5, #144]	; 0x90
 8003680:	f443 3380 	orr.w	r3, r3, #65536	; 0x10000
 8003684:	f8c5 3090 	str.w	r3, [r5, #144]	; 0x90
 8003688:	f8d5 3090 	ldr.w	r3, [r5, #144]	; 0x90
 800368c:	f422 7140 	bic.w	r1, r2, #768	; 0x300
 8003690:	f423 3380 	bic.w	r3, r3, #65536	; 0x10000
 8003694:	07d2      	lsls	r2, r2, #31
 8003696:	f8c5 3090 	str.w	r3, [r5, #144]	; 0x90
 800369a:	f8c5 1090 	str.w	r1, [r5, #144]	; 0x90
 800369e:	f57f af48 	bpl.w	8003532 <HAL_RCCEx_PeriphCLKConfig+0x52>
 80036a2:	f7fe fba9 	bl	8001df8 <HAL_GetTick>
 80036a6:	f241 3888 	movw	r8, #5000	; 0x1388
 80036aa:	4607      	mov	r7, r0
 80036ac:	f8d5 3090 	ldr.w	r3, [r5, #144]	; 0x90
 80036b0:	079b      	lsls	r3, r3, #30
 80036b2:	f53f af3e 	bmi.w	8003532 <HAL_RCCEx_PeriphCLKConfig+0x52>
 80036b6:	f7fe fb9f 	bl	8001df8 <HAL_GetTick>
 80036ba:	1bc0      	subs	r0, r0, r7
 80036bc:	4540      	cmp	r0, r8
 80036be:	d9f5      	bls.n	80036ac <HAL_RCCEx_PeriphCLKConfig+0x1cc>
 80036c0:	e749      	b.n	8003556 <HAL_RCCEx_PeriphCLKConfig+0x76>
 80036c2:	bf00      	nop
 80036c4:	40021000 	.word	0x40021000
 80036c8:	40007000 	.word	0x40007000

080036cc <HAL_RCCEx_EnableMSIPLLMode>:
 80036cc:	4a02      	ldr	r2, [pc, #8]	; (80036d8 <HAL_RCCEx_EnableMSIPLLMode+0xc>)
 80036ce:	6813      	ldr	r3, [r2, #0]
 80036d0:	f043 0304 	orr.w	r3, r3, #4
 80036d4:	6013      	str	r3, [r2, #0]
 80036d6:	4770      	bx	lr
 80036d8:	40021000 	.word	0x40021000

080036dc <HAL_RTC_WaitForSynchro>:
 80036dc:	b538      	push	{r3, r4, r5, lr}
 80036de:	6803      	ldr	r3, [r0, #0]
 80036e0:	4a09      	ldr	r2, [pc, #36]	; (8003708 <HAL_RTC_WaitForSynchro+0x2c>)
 80036e2:	60da      	str	r2, [r3, #12]
 80036e4:	4604      	mov	r4, r0
 80036e6:	f7fe fb87 	bl	8001df8 <HAL_GetTick>
 80036ea:	4605      	mov	r5, r0
 80036ec:	6823      	ldr	r3, [r4, #0]
 80036ee:	68db      	ldr	r3, [r3, #12]
 80036f0:	069b      	lsls	r3, r3, #26
 80036f2:	d501      	bpl.n	80036f8 <HAL_RTC_WaitForSynchro+0x1c>
 80036f4:	2000      	movs	r0, #0
 80036f6:	bd38      	pop	{r3, r4, r5, pc}
 80036f8:	f7fe fb7e 	bl	8001df8 <HAL_GetTick>
 80036fc:	1b40      	subs	r0, r0, r5
 80036fe:	f5b0 7f7a 	cmp.w	r0, #1000	; 0x3e8
 8003702:	d9f3      	bls.n	80036ec <HAL_RTC_WaitForSynchro+0x10>
 8003704:	2003      	movs	r0, #3
 8003706:	e7f6      	b.n	80036f6 <HAL_RTC_WaitForSynchro+0x1a>
 8003708:	0001005c 	.word	0x0001005c

0800370c <RTC_EnterInitMode>:
 800370c:	b5f8      	push	{r3, r4, r5, r6, r7, lr}
 800370e:	6803      	ldr	r3, [r0, #0]
 8003710:	68dc      	ldr	r4, [r3, #12]
 8003712:	f014 0440 	ands.w	r4, r4, #64	; 0x40
 8003716:	4605      	mov	r5, r0
 8003718:	d119      	bne.n	800374e <RTC_EnterInitMode+0x42>
 800371a:	68da      	ldr	r2, [r3, #12]
 800371c:	f042 0280 	orr.w	r2, r2, #128	; 0x80
 8003720:	60da      	str	r2, [r3, #12]
 8003722:	f7fe fb69 	bl	8001df8 <HAL_GetTick>
 8003726:	2703      	movs	r7, #3
 8003728:	4606      	mov	r6, r0
 800372a:	682b      	ldr	r3, [r5, #0]
 800372c:	68db      	ldr	r3, [r3, #12]
 800372e:	065b      	lsls	r3, r3, #25
 8003730:	d401      	bmi.n	8003736 <RTC_EnterInitMode+0x2a>
 8003732:	2c03      	cmp	r4, #3
 8003734:	d101      	bne.n	800373a <RTC_EnterInitMode+0x2e>
 8003736:	4620      	mov	r0, r4
 8003738:	bdf8      	pop	{r3, r4, r5, r6, r7, pc}
 800373a:	f7fe fb5d 	bl	8001df8 <HAL_GetTick>
 800373e:	1b80      	subs	r0, r0, r6
 8003740:	f5b0 7f7a 	cmp.w	r0, #1000	; 0x3e8
 8003744:	bf84      	itt	hi
 8003746:	f885 7029 	strbhi.w	r7, [r5, #41]	; 0x29
 800374a:	2403      	movhi	r4, #3
 800374c:	e7ed      	b.n	800372a <RTC_EnterInitMode+0x1e>
 800374e:	2400      	movs	r4, #0
 8003750:	e7f1      	b.n	8003736 <RTC_EnterInitMode+0x2a>
	...

08003754 <RTC_ExitInitMode>:
 8003754:	b538      	push	{r3, r4, r5, lr}
 8003756:	4c0f      	ldr	r4, [pc, #60]	; (8003794 <RTC_ExitInitMode+0x40>)
 8003758:	68e3      	ldr	r3, [r4, #12]
 800375a:	f023 0380 	bic.w	r3, r3, #128	; 0x80
 800375e:	60e3      	str	r3, [r4, #12]
 8003760:	69a3      	ldr	r3, [r4, #24]
 8003762:	069b      	lsls	r3, r3, #26
 8003764:	4605      	mov	r5, r0
 8003766:	d406      	bmi.n	8003776 <RTC_ExitInitMode+0x22>
 8003768:	f7ff ffb8 	bl	80036dc <HAL_RTC_WaitForSynchro>
 800376c:	b110      	cbz	r0, 8003774 <RTC_ExitInitMode+0x20>
 800376e:	2003      	movs	r0, #3
 8003770:	f885 0029 	strb.w	r0, [r5, #41]	; 0x29
 8003774:	bd38      	pop	{r3, r4, r5, pc}
 8003776:	69a3      	ldr	r3, [r4, #24]
 8003778:	f023 0320 	bic.w	r3, r3, #32
 800377c:	61a3      	str	r3, [r4, #24]
 800377e:	f7ff ffad 	bl	80036dc <HAL_RTC_WaitForSynchro>
 8003782:	b110      	cbz	r0, 800378a <RTC_ExitInitMode+0x36>
 8003784:	2003      	movs	r0, #3
 8003786:	f885 0029 	strb.w	r0, [r5, #41]	; 0x29
 800378a:	69a3      	ldr	r3, [r4, #24]
 800378c:	f043 0320 	orr.w	r3, r3, #32
 8003790:	61a3      	str	r3, [r4, #24]
 8003792:	e7ef      	b.n	8003774 <RTC_ExitInitMode+0x20>
 8003794:	40002800 	.word	0x40002800

08003798 <HAL_RTC_Init>:
 8003798:	b538      	push	{r3, r4, r5, lr}
 800379a:	4604      	mov	r4, r0
 800379c:	2800      	cmp	r0, #0
 800379e:	d04c      	beq.n	800383a <HAL_RTC_Init+0xa2>
 80037a0:	f890 3029 	ldrb.w	r3, [r0, #41]	; 0x29
 80037a4:	f003 02ff 	and.w	r2, r3, #255	; 0xff
 80037a8:	b91b      	cbnz	r3, 80037b2 <HAL_RTC_Init+0x1a>
 80037aa:	f880 2028 	strb.w	r2, [r0, #40]	; 0x28
 80037ae:	f7fe f985 	bl	8001abc <HAL_RTC_MspInit>
 80037b2:	f44f 6340 	mov.w	r3, #3072	; 0xc00
 80037b6:	6063      	str	r3, [r4, #4]
 80037b8:	2302      	movs	r3, #2
 80037ba:	f884 3029 	strb.w	r3, [r4, #41]	; 0x29
 80037be:	4b20      	ldr	r3, [pc, #128]	; (8003840 <HAL_RTC_Init+0xa8>)
 80037c0:	68db      	ldr	r3, [r3, #12]
 80037c2:	06db      	lsls	r3, r3, #27
 80037c4:	d504      	bpl.n	80037d0 <HAL_RTC_Init+0x38>
 80037c6:	2301      	movs	r3, #1
 80037c8:	f884 3029 	strb.w	r3, [r4, #41]	; 0x29
 80037cc:	2000      	movs	r0, #0
 80037ce:	bd38      	pop	{r3, r4, r5, pc}
 80037d0:	6823      	ldr	r3, [r4, #0]
 80037d2:	22ca      	movs	r2, #202	; 0xca
 80037d4:	625a      	str	r2, [r3, #36]	; 0x24
 80037d6:	2253      	movs	r2, #83	; 0x53
 80037d8:	625a      	str	r2, [r3, #36]	; 0x24
 80037da:	4620      	mov	r0, r4
 80037dc:	f7ff ff96 	bl	800370c <RTC_EnterInitMode>
 80037e0:	b9a8      	cbnz	r0, 800380e <HAL_RTC_Init+0x76>
 80037e2:	6823      	ldr	r3, [r4, #0]
 80037e4:	6960      	ldr	r0, [r4, #20]
 80037e6:	699a      	ldr	r2, [r3, #24]
 80037e8:	f022 628e 	bic.w	r2, r2, #74448896	; 0x4700000
 80037ec:	f022 0240 	bic.w	r2, r2, #64	; 0x40
 80037f0:	619a      	str	r2, [r3, #24]
 80037f2:	68a2      	ldr	r2, [r4, #8]
 80037f4:	6999      	ldr	r1, [r3, #24]
 80037f6:	4302      	orrs	r2, r0
 80037f8:	69e0      	ldr	r0, [r4, #28]
 80037fa:	4302      	orrs	r2, r0
 80037fc:	430a      	orrs	r2, r1
 80037fe:	619a      	str	r2, [r3, #24]
 8003800:	6922      	ldr	r2, [r4, #16]
 8003802:	611a      	str	r2, [r3, #16]
 8003804:	691a      	ldr	r2, [r3, #16]
 8003806:	68e1      	ldr	r1, [r4, #12]
 8003808:	ea42 4201 	orr.w	r2, r2, r1, lsl #16
 800380c:	611a      	str	r2, [r3, #16]
 800380e:	4620      	mov	r0, r4
 8003810:	f7ff ffa0 	bl	8003754 <RTC_ExitInitMode>
 8003814:	6822      	ldr	r2, [r4, #0]
 8003816:	b958      	cbnz	r0, 8003830 <HAL_RTC_Init+0x98>
 8003818:	6993      	ldr	r3, [r2, #24]
 800381a:	f023 4360 	bic.w	r3, r3, #3758096384	; 0xe0000000
 800381e:	6193      	str	r3, [r2, #24]
 8003820:	e9d4 5308 	ldrd	r5, r3, [r4, #32]
 8003824:	432b      	orrs	r3, r5
 8003826:	69a5      	ldr	r5, [r4, #24]
 8003828:	6991      	ldr	r1, [r2, #24]
 800382a:	432b      	orrs	r3, r5
 800382c:	430b      	orrs	r3, r1
 800382e:	6193      	str	r3, [r2, #24]
 8003830:	23ff      	movs	r3, #255	; 0xff
 8003832:	6253      	str	r3, [r2, #36]	; 0x24
 8003834:	2800      	cmp	r0, #0
 8003836:	d0c6      	beq.n	80037c6 <HAL_RTC_Init+0x2e>
 8003838:	e7c9      	b.n	80037ce <HAL_RTC_Init+0x36>
 800383a:	2001      	movs	r0, #1
 800383c:	e7c7      	b.n	80037ce <HAL_RTC_Init+0x36>
 800383e:	bf00      	nop
 8003840:	40002800 	.word	0x40002800

08003844 <HAL_RTCEx_SetWakeUpTimer>:
 8003844:	e92d 41f0 	stmdb	sp!, {r4, r5, r6, r7, r8, lr}
 8003848:	f890 3028 	ldrb.w	r3, [r0, #40]	; 0x28
 800384c:	2b01      	cmp	r3, #1
 800384e:	4604      	mov	r4, r0
 8003850:	460d      	mov	r5, r1
 8003852:	4616      	mov	r6, r2
 8003854:	f04f 0002 	mov.w	r0, #2
 8003858:	d023      	beq.n	80038a2 <HAL_RTCEx_SetWakeUpTimer+0x5e>
 800385a:	2301      	movs	r3, #1
 800385c:	f884 3028 	strb.w	r3, [r4, #40]	; 0x28
 8003860:	6823      	ldr	r3, [r4, #0]
 8003862:	f884 0029 	strb.w	r0, [r4, #41]	; 0x29
 8003866:	22ca      	movs	r2, #202	; 0xca
 8003868:	625a      	str	r2, [r3, #36]	; 0x24
 800386a:	2253      	movs	r2, #83	; 0x53
 800386c:	625a      	str	r2, [r3, #36]	; 0x24
 800386e:	699a      	ldr	r2, [r3, #24]
 8003870:	f422 6280 	bic.w	r2, r2, #1024	; 0x400
 8003874:	619a      	str	r2, [r3, #24]
 8003876:	68db      	ldr	r3, [r3, #12]
 8003878:	065b      	lsls	r3, r3, #25
 800387a:	d514      	bpl.n	80038a6 <HAL_RTCEx_SetWakeUpTimer+0x62>
 800387c:	6823      	ldr	r3, [r4, #0]
 800387e:	6998      	ldr	r0, [r3, #24]
 8003880:	f020 0007 	bic.w	r0, r0, #7
 8003884:	4330      	orrs	r0, r6
 8003886:	6198      	str	r0, [r3, #24]
 8003888:	615d      	str	r5, [r3, #20]
 800388a:	699a      	ldr	r2, [r3, #24]
 800388c:	f442 6280 	orr.w	r2, r2, #1024	; 0x400
 8003890:	619a      	str	r2, [r3, #24]
 8003892:	22ff      	movs	r2, #255	; 0xff
 8003894:	625a      	str	r2, [r3, #36]	; 0x24
 8003896:	2000      	movs	r0, #0
 8003898:	2301      	movs	r3, #1
 800389a:	f884 3029 	strb.w	r3, [r4, #41]	; 0x29
 800389e:	f884 0028 	strb.w	r0, [r4, #40]	; 0x28
 80038a2:	e8bd 81f0 	ldmia.w	sp!, {r4, r5, r6, r7, r8, pc}
 80038a6:	f7fe faa7 	bl	8001df8 <HAL_GetTick>
 80038aa:	4680      	mov	r8, r0
 80038ac:	6823      	ldr	r3, [r4, #0]
 80038ae:	68df      	ldr	r7, [r3, #12]
 80038b0:	f017 0704 	ands.w	r7, r7, #4
 80038b4:	d1e2      	bne.n	800387c <HAL_RTCEx_SetWakeUpTimer+0x38>
 80038b6:	f7fe fa9f 	bl	8001df8 <HAL_GetTick>
 80038ba:	eba0 0008 	sub.w	r0, r0, r8
 80038be:	f5b0 7f7a 	cmp.w	r0, #1000	; 0x3e8
 80038c2:	d9f3      	bls.n	80038ac <HAL_RTCEx_SetWakeUpTimer+0x68>
 80038c4:	6823      	ldr	r3, [r4, #0]
 80038c6:	22ff      	movs	r2, #255	; 0xff
 80038c8:	2003      	movs	r0, #3
 80038ca:	625a      	str	r2, [r3, #36]	; 0x24
 80038cc:	f884 0029 	strb.w	r0, [r4, #41]	; 0x29
 80038d0:	f884 7028 	strb.w	r7, [r4, #40]	; 0x28
 80038d4:	e7e5      	b.n	80038a2 <HAL_RTCEx_SetWakeUpTimer+0x5e>
	...

080038d8 <HAL_RTCEx_SetWakeUpTimer_IT>:
 80038d8:	e92d 43f8 	stmdb	sp!, {r3, r4, r5, r6, r7, r8, r9, lr}
 80038dc:	461e      	mov	r6, r3
 80038de:	f890 3028 	ldrb.w	r3, [r0, #40]	; 0x28
 80038e2:	2b01      	cmp	r3, #1
 80038e4:	4604      	mov	r4, r0
 80038e6:	460d      	mov	r5, r1
 80038e8:	4617      	mov	r7, r2
 80038ea:	f04f 0002 	mov.w	r0, #2
 80038ee:	d039      	beq.n	8003964 <HAL_RTCEx_SetWakeUpTimer_IT+0x8c>
 80038f0:	f884 0029 	strb.w	r0, [r4, #41]	; 0x29
 80038f4:	2301      	movs	r3, #1
 80038f6:	6820      	ldr	r0, [r4, #0]
 80038f8:	f884 3028 	strb.w	r3, [r4, #40]	; 0x28
 80038fc:	23ca      	movs	r3, #202	; 0xca
 80038fe:	6243      	str	r3, [r0, #36]	; 0x24
 8003900:	2353      	movs	r3, #83	; 0x53
 8003902:	6243      	str	r3, [r0, #36]	; 0x24
 8003904:	6983      	ldr	r3, [r0, #24]
 8003906:	f423 6380 	bic.w	r3, r3, #1024	; 0x400
 800390a:	6183      	str	r3, [r0, #24]
 800390c:	2304      	movs	r3, #4
 800390e:	65c3      	str	r3, [r0, #92]	; 0x5c
 8003910:	68c3      	ldr	r3, [r0, #12]
 8003912:	065b      	lsls	r3, r3, #25
 8003914:	d50f      	bpl.n	8003936 <HAL_RTCEx_SetWakeUpTimer_IT+0x5e>
 8003916:	6820      	ldr	r0, [r4, #0]
 8003918:	4a20      	ldr	r2, [pc, #128]	; (800399c <HAL_RTCEx_SetWakeUpTimer_IT+0xc4>)
 800391a:	ea45 4506 	orr.w	r5, r5, r6, lsl #16
 800391e:	6145      	str	r5, [r0, #20]
 8003920:	6983      	ldr	r3, [r0, #24]
 8003922:	f023 0307 	bic.w	r3, r3, #7
 8003926:	433b      	orrs	r3, r7
 8003928:	6183      	str	r3, [r0, #24]
 800392a:	b9ee      	cbnz	r6, 8003968 <HAL_RTCEx_SetWakeUpTimer_IT+0x90>
 800392c:	6813      	ldr	r3, [r2, #0]
 800392e:	f443 1380 	orr.w	r3, r3, #1048576	; 0x100000
 8003932:	6013      	str	r3, [r2, #0]
 8003934:	e01c      	b.n	8003970 <HAL_RTCEx_SetWakeUpTimer_IT+0x98>
 8003936:	f7fe fa5f 	bl	8001df8 <HAL_GetTick>
 800393a:	4681      	mov	r9, r0
 800393c:	6823      	ldr	r3, [r4, #0]
 800393e:	68db      	ldr	r3, [r3, #12]
 8003940:	f013 0804 	ands.w	r8, r3, #4
 8003944:	d1e7      	bne.n	8003916 <HAL_RTCEx_SetWakeUpTimer_IT+0x3e>
 8003946:	f7fe fa57 	bl	8001df8 <HAL_GetTick>
 800394a:	eba0 0009 	sub.w	r0, r0, r9
 800394e:	f5b0 7f7a 	cmp.w	r0, #1000	; 0x3e8
 8003952:	d9f3      	bls.n	800393c <HAL_RTCEx_SetWakeUpTimer_IT+0x64>
 8003954:	6823      	ldr	r3, [r4, #0]
 8003956:	22ff      	movs	r2, #255	; 0xff
 8003958:	2003      	movs	r0, #3
 800395a:	625a      	str	r2, [r3, #36]	; 0x24
 800395c:	f884 0029 	strb.w	r0, [r4, #41]	; 0x29
 8003960:	f884 8028 	strb.w	r8, [r4, #40]	; 0x28
 8003964:	e8bd 83f8 	ldmia.w	sp!, {r3, r4, r5, r6, r7, r8, r9, pc}
 8003968:	6853      	ldr	r3, [r2, #4]
 800396a:	f443 1380 	orr.w	r3, r3, #1048576	; 0x100000
 800396e:	6053      	str	r3, [r2, #4]
 8003970:	6893      	ldr	r3, [r2, #8]
 8003972:	f443 1380 	orr.w	r3, r3, #1048576	; 0x100000
 8003976:	6093      	str	r3, [r2, #8]
 8003978:	6983      	ldr	r3, [r0, #24]
 800397a:	f443 4380 	orr.w	r3, r3, #16384	; 0x4000
 800397e:	6183      	str	r3, [r0, #24]
 8003980:	6983      	ldr	r3, [r0, #24]
 8003982:	f443 6380 	orr.w	r3, r3, #1024	; 0x400
 8003986:	6183      	str	r3, [r0, #24]
 8003988:	23ff      	movs	r3, #255	; 0xff
 800398a:	6243      	str	r3, [r0, #36]	; 0x24
 800398c:	2301      	movs	r3, #1
 800398e:	2000      	movs	r0, #0
 8003990:	f884 3029 	strb.w	r3, [r4, #41]	; 0x29
 8003994:	f884 0028 	strb.w	r0, [r4, #40]	; 0x28
 8003998:	e7e4      	b.n	8003964 <HAL_RTCEx_SetWakeUpTimer_IT+0x8c>
 800399a:	bf00      	nop
 800399c:	40010400 	.word	0x40010400

080039a0 <HAL_RTCEx_DeactivateWakeUpTimer>:
 80039a0:	b570      	push	{r4, r5, r6, lr}
 80039a2:	f890 3028 	ldrb.w	r3, [r0, #40]	; 0x28
 80039a6:	2b01      	cmp	r3, #1
 80039a8:	4604      	mov	r4, r0
 80039aa:	f04f 0302 	mov.w	r3, #2
 80039ae:	d030      	beq.n	8003a12 <HAL_RTCEx_DeactivateWakeUpTimer+0x72>
 80039b0:	f880 3029 	strb.w	r3, [r0, #41]	; 0x29
 80039b4:	2201      	movs	r2, #1
 80039b6:	6803      	ldr	r3, [r0, #0]
 80039b8:	f880 2028 	strb.w	r2, [r0, #40]	; 0x28
 80039bc:	22ca      	movs	r2, #202	; 0xca
 80039be:	625a      	str	r2, [r3, #36]	; 0x24
 80039c0:	2253      	movs	r2, #83	; 0x53
 80039c2:	625a      	str	r2, [r3, #36]	; 0x24
 80039c4:	699a      	ldr	r2, [r3, #24]
 80039c6:	f422 6280 	bic.w	r2, r2, #1024	; 0x400
 80039ca:	619a      	str	r2, [r3, #24]
 80039cc:	699a      	ldr	r2, [r3, #24]
 80039ce:	f422 4280 	bic.w	r2, r2, #16384	; 0x4000
 80039d2:	619a      	str	r2, [r3, #24]
 80039d4:	f7fe fa10 	bl	8001df8 <HAL_GetTick>
 80039d8:	4606      	mov	r6, r0
 80039da:	6822      	ldr	r2, [r4, #0]
 80039dc:	68d5      	ldr	r5, [r2, #12]
 80039de:	f015 0504 	ands.w	r5, r5, #4
 80039e2:	d008      	beq.n	80039f6 <HAL_RTCEx_DeactivateWakeUpTimer+0x56>
 80039e4:	23ff      	movs	r3, #255	; 0xff
 80039e6:	6253      	str	r3, [r2, #36]	; 0x24
 80039e8:	2301      	movs	r3, #1
 80039ea:	f884 3029 	strb.w	r3, [r4, #41]	; 0x29
 80039ee:	2300      	movs	r3, #0
 80039f0:	f884 3028 	strb.w	r3, [r4, #40]	; 0x28
 80039f4:	e00d      	b.n	8003a12 <HAL_RTCEx_DeactivateWakeUpTimer+0x72>
 80039f6:	f7fe f9ff 	bl	8001df8 <HAL_GetTick>
 80039fa:	1b80      	subs	r0, r0, r6
 80039fc:	f5b0 7f7a 	cmp.w	r0, #1000	; 0x3e8
 8003a00:	d9eb      	bls.n	80039da <HAL_RTCEx_DeactivateWakeUpTimer+0x3a>
 8003a02:	6823      	ldr	r3, [r4, #0]
 8003a04:	22ff      	movs	r2, #255	; 0xff
 8003a06:	625a      	str	r2, [r3, #36]	; 0x24
 8003a08:	2303      	movs	r3, #3
 8003a0a:	f884 3029 	strb.w	r3, [r4, #41]	; 0x29
 8003a0e:	f884 5028 	strb.w	r5, [r4, #40]	; 0x28
 8003a12:	4618      	mov	r0, r3
 8003a14:	bd70      	pop	{r4, r5, r6, pc}
	...

08003a18 <HAL_TIM_Base_Start>:
 8003a18:	f890 303d 	ldrb.w	r3, [r0, #61]	; 0x3d
 8003a1c:	2b01      	cmp	r3, #1
 8003a1e:	d11b      	bne.n	8003a58 <HAL_TIM_Base_Start+0x40>
 8003a20:	2302      	movs	r3, #2
 8003a22:	4a0e      	ldr	r2, [pc, #56]	; (8003a5c <HAL_TIM_Base_Start+0x44>)
 8003a24:	f880 303d 	strb.w	r3, [r0, #61]	; 0x3d
 8003a28:	6803      	ldr	r3, [r0, #0]
 8003a2a:	4293      	cmp	r3, r2
 8003a2c:	d006      	beq.n	8003a3c <HAL_TIM_Base_Start+0x24>
 8003a2e:	f1b3 4f80 	cmp.w	r3, #1073741824	; 0x40000000
 8003a32:	d003      	beq.n	8003a3c <HAL_TIM_Base_Start+0x24>
 8003a34:	f502 52a0 	add.w	r2, r2, #5120	; 0x1400
 8003a38:	4293      	cmp	r3, r2
 8003a3a:	d107      	bne.n	8003a4c <HAL_TIM_Base_Start+0x34>
 8003a3c:	6899      	ldr	r1, [r3, #8]
 8003a3e:	4a08      	ldr	r2, [pc, #32]	; (8003a60 <HAL_TIM_Base_Start+0x48>)
 8003a40:	400a      	ands	r2, r1
 8003a42:	2a06      	cmp	r2, #6
 8003a44:	d006      	beq.n	8003a54 <HAL_TIM_Base_Start+0x3c>
 8003a46:	f5b2 3f80 	cmp.w	r2, #65536	; 0x10000
 8003a4a:	d003      	beq.n	8003a54 <HAL_TIM_Base_Start+0x3c>
 8003a4c:	681a      	ldr	r2, [r3, #0]
 8003a4e:	f042 0201 	orr.w	r2, r2, #1
 8003a52:	601a      	str	r2, [r3, #0]
 8003a54:	2000      	movs	r0, #0
 8003a56:	4770      	bx	lr
 8003a58:	2001      	movs	r0, #1
 8003a5a:	4770      	bx	lr
 8003a5c:	40012c00 	.word	0x40012c00
 8003a60:	00010007 	.word	0x00010007

08003a64 <TIM_Base_SetConfig>:
 8003a64:	4a1e      	ldr	r2, [pc, #120]	; (8003ae0 <TIM_Base_SetConfig+0x7c>)
 8003a66:	6803      	ldr	r3, [r0, #0]
 8003a68:	4290      	cmp	r0, r2
 8003a6a:	b510      	push	{r4, lr}
 8003a6c:	d002      	beq.n	8003a74 <TIM_Base_SetConfig+0x10>
 8003a6e:	f1b0 4f80 	cmp.w	r0, #1073741824	; 0x40000000
 8003a72:	d109      	bne.n	8003a88 <TIM_Base_SetConfig+0x24>
 8003a74:	684c      	ldr	r4, [r1, #4]
 8003a76:	f023 0370 	bic.w	r3, r3, #112	; 0x70
 8003a7a:	4290      	cmp	r0, r2
 8003a7c:	ea43 0304 	orr.w	r3, r3, r4
 8003a80:	d009      	beq.n	8003a96 <TIM_Base_SetConfig+0x32>
 8003a82:	f1b0 4f80 	cmp.w	r0, #1073741824	; 0x40000000
 8003a86:	d006      	beq.n	8003a96 <TIM_Base_SetConfig+0x32>
 8003a88:	4a16      	ldr	r2, [pc, #88]	; (8003ae4 <TIM_Base_SetConfig+0x80>)
 8003a8a:	4290      	cmp	r0, r2
 8003a8c:	d003      	beq.n	8003a96 <TIM_Base_SetConfig+0x32>
 8003a8e:	f502 6280 	add.w	r2, r2, #1024	; 0x400
 8003a92:	4290      	cmp	r0, r2
 8003a94:	d103      	bne.n	8003a9e <TIM_Base_SetConfig+0x3a>
 8003a96:	68ca      	ldr	r2, [r1, #12]
 8003a98:	f423 7340 	bic.w	r3, r3, #768	; 0x300
 8003a9c:	4313      	orrs	r3, r2
 8003a9e:	694a      	ldr	r2, [r1, #20]
 8003aa0:	f023 0380 	bic.w	r3, r3, #128	; 0x80
 8003aa4:	4313      	orrs	r3, r2
 8003aa6:	6003      	str	r3, [r0, #0]
 8003aa8:	688b      	ldr	r3, [r1, #8]
 8003aaa:	62c3      	str	r3, [r0, #44]	; 0x2c
 8003aac:	680b      	ldr	r3, [r1, #0]
 8003aae:	6283      	str	r3, [r0, #40]	; 0x28
 8003ab0:	4b0b      	ldr	r3, [pc, #44]	; (8003ae0 <TIM_Base_SetConfig+0x7c>)
 8003ab2:	4298      	cmp	r0, r3
 8003ab4:	d007      	beq.n	8003ac6 <TIM_Base_SetConfig+0x62>
 8003ab6:	f503 53a0 	add.w	r3, r3, #5120	; 0x1400
 8003aba:	4298      	cmp	r0, r3
 8003abc:	d003      	beq.n	8003ac6 <TIM_Base_SetConfig+0x62>
 8003abe:	f503 6380 	add.w	r3, r3, #1024	; 0x400
 8003ac2:	4298      	cmp	r0, r3
 8003ac4:	d101      	bne.n	8003aca <TIM_Base_SetConfig+0x66>
 8003ac6:	690b      	ldr	r3, [r1, #16]
 8003ac8:	6303      	str	r3, [r0, #48]	; 0x30
 8003aca:	2301      	movs	r3, #1
 8003acc:	6143      	str	r3, [r0, #20]
 8003ace:	6903      	ldr	r3, [r0, #16]
 8003ad0:	07db      	lsls	r3, r3, #31
 8003ad2:	bf42      	ittt	mi
 8003ad4:	6903      	ldrmi	r3, [r0, #16]
 8003ad6:	f023 0301 	bicmi.w	r3, r3, #1
 8003ada:	6103      	strmi	r3, [r0, #16]
 8003adc:	bd10      	pop	{r4, pc}
 8003ade:	bf00      	nop
 8003ae0:	40012c00 	.word	0x40012c00
 8003ae4:	40014000 	.word	0x40014000

08003ae8 <HAL_TIM_Base_Init>:
 8003ae8:	b510      	push	{r4, lr}
 8003aea:	4604      	mov	r4, r0
 8003aec:	b350      	cbz	r0, 8003b44 <HAL_TIM_Base_Init+0x5c>
 8003aee:	f890 303d 	ldrb.w	r3, [r0, #61]	; 0x3d
 8003af2:	f003 02ff 	and.w	r2, r3, #255	; 0xff
 8003af6:	b91b      	cbnz	r3, 8003b00 <HAL_TIM_Base_Init+0x18>
 8003af8:	f880 203c 	strb.w	r2, [r0, #60]	; 0x3c
 8003afc:	f7fe f804 	bl	8001b08 <HAL_TIM_Base_MspInit>
 8003b00:	2302      	movs	r3, #2
 8003b02:	6820      	ldr	r0, [r4, #0]
 8003b04:	f884 303d 	strb.w	r3, [r4, #61]	; 0x3d
 8003b08:	1d21      	adds	r1, r4, #4
 8003b0a:	f7ff ffab 	bl	8003a64 <TIM_Base_SetConfig>
 8003b0e:	2301      	movs	r3, #1
 8003b10:	f884 3048 	strb.w	r3, [r4, #72]	; 0x48
 8003b14:	2000      	movs	r0, #0
 8003b16:	f884 303e 	strb.w	r3, [r4, #62]	; 0x3e
 8003b1a:	f884 303f 	strb.w	r3, [r4, #63]	; 0x3f
 8003b1e:	f884 3040 	strb.w	r3, [r4, #64]	; 0x40
 8003b22:	f884 3041 	strb.w	r3, [r4, #65]	; 0x41
 8003b26:	f884 3042 	strb.w	r3, [r4, #66]	; 0x42
 8003b2a:	f884 3043 	strb.w	r3, [r4, #67]	; 0x43
 8003b2e:	f884 3044 	strb.w	r3, [r4, #68]	; 0x44
 8003b32:	f884 3045 	strb.w	r3, [r4, #69]	; 0x45
 8003b36:	f884 3046 	strb.w	r3, [r4, #70]	; 0x46
 8003b3a:	f884 3047 	strb.w	r3, [r4, #71]	; 0x47
 8003b3e:	f884 303d 	strb.w	r3, [r4, #61]	; 0x3d
 8003b42:	bd10      	pop	{r4, pc}
 8003b44:	2001      	movs	r0, #1
 8003b46:	e7fc      	b.n	8003b42 <HAL_TIM_Base_Init+0x5a>

08003b48 <TIM_ETR_SetConfig>:
 8003b48:	b510      	push	{r4, lr}
 8003b4a:	6884      	ldr	r4, [r0, #8]
 8003b4c:	4311      	orrs	r1, r2
 8003b4e:	f424 447f 	bic.w	r4, r4, #65280	; 0xff00
 8003b52:	ea41 2303 	orr.w	r3, r1, r3, lsl #8
 8003b56:	4323      	orrs	r3, r4
 8003b58:	6083      	str	r3, [r0, #8]
 8003b5a:	bd10      	pop	{r4, pc}

08003b5c <HAL_TIM_ConfigClockSource>:
 8003b5c:	b538      	push	{r3, r4, r5, lr}
 8003b5e:	f890 303c 	ldrb.w	r3, [r0, #60]	; 0x3c
 8003b62:	2b01      	cmp	r3, #1
 8003b64:	4604      	mov	r4, r0
 8003b66:	f04f 0302 	mov.w	r3, #2
 8003b6a:	f000 808c 	beq.w	8003c86 <HAL_TIM_ConfigClockSource+0x12a>
 8003b6e:	2201      	movs	r2, #1
 8003b70:	f880 303d 	strb.w	r3, [r0, #61]	; 0x3d
 8003b74:	f880 203c 	strb.w	r2, [r0, #60]	; 0x3c
 8003b78:	6800      	ldr	r0, [r0, #0]
 8003b7a:	4b44      	ldr	r3, [pc, #272]	; (8003c8c <HAL_TIM_ConfigClockSource+0x130>)
 8003b7c:	6885      	ldr	r5, [r0, #8]
 8003b7e:	402b      	ands	r3, r5
 8003b80:	6083      	str	r3, [r0, #8]
 8003b82:	680b      	ldr	r3, [r1, #0]
 8003b84:	2b60      	cmp	r3, #96	; 0x60
 8003b86:	d04f      	beq.n	8003c28 <HAL_TIM_ConfigClockSource+0xcc>
 8003b88:	d832      	bhi.n	8003bf0 <HAL_TIM_ConfigClockSource+0x94>
 8003b8a:	2b40      	cmp	r3, #64	; 0x40
 8003b8c:	d064      	beq.n	8003c58 <HAL_TIM_ConfigClockSource+0xfc>
 8003b8e:	d816      	bhi.n	8003bbe <HAL_TIM_ConfigClockSource+0x62>
 8003b90:	2b20      	cmp	r3, #32
 8003b92:	d00d      	beq.n	8003bb0 <HAL_TIM_ConfigClockSource+0x54>
 8003b94:	d80a      	bhi.n	8003bac <HAL_TIM_ConfigClockSource+0x50>
 8003b96:	f033 0110 	bics.w	r1, r3, #16
 8003b9a:	d009      	beq.n	8003bb0 <HAL_TIM_ConfigClockSource+0x54>
 8003b9c:	2301      	movs	r3, #1
 8003b9e:	f884 303d 	strb.w	r3, [r4, #61]	; 0x3d
 8003ba2:	2300      	movs	r3, #0
 8003ba4:	f884 303c 	strb.w	r3, [r4, #60]	; 0x3c
 8003ba8:	4610      	mov	r0, r2
 8003baa:	bd38      	pop	{r3, r4, r5, pc}
 8003bac:	2b30      	cmp	r3, #48	; 0x30
 8003bae:	d1f5      	bne.n	8003b9c <HAL_TIM_ConfigClockSource+0x40>
 8003bb0:	6882      	ldr	r2, [r0, #8]
 8003bb2:	f022 0270 	bic.w	r2, r2, #112	; 0x70
 8003bb6:	4313      	orrs	r3, r2
 8003bb8:	f043 0307 	orr.w	r3, r3, #7
 8003bbc:	e028      	b.n	8003c10 <HAL_TIM_ConfigClockSource+0xb4>
 8003bbe:	2b50      	cmp	r3, #80	; 0x50
 8003bc0:	d1ec      	bne.n	8003b9c <HAL_TIM_ConfigClockSource+0x40>
 8003bc2:	684a      	ldr	r2, [r1, #4]
 8003bc4:	68cd      	ldr	r5, [r1, #12]
 8003bc6:	6a01      	ldr	r1, [r0, #32]
 8003bc8:	6a03      	ldr	r3, [r0, #32]
 8003bca:	f023 0301 	bic.w	r3, r3, #1
 8003bce:	6203      	str	r3, [r0, #32]
 8003bd0:	6983      	ldr	r3, [r0, #24]
 8003bd2:	f021 010a 	bic.w	r1, r1, #10
 8003bd6:	f023 03f0 	bic.w	r3, r3, #240	; 0xf0
 8003bda:	ea43 1305 	orr.w	r3, r3, r5, lsl #4
 8003bde:	430a      	orrs	r2, r1
 8003be0:	6183      	str	r3, [r0, #24]
 8003be2:	6202      	str	r2, [r0, #32]
 8003be4:	6883      	ldr	r3, [r0, #8]
 8003be6:	f023 0370 	bic.w	r3, r3, #112	; 0x70
 8003bea:	f043 0357 	orr.w	r3, r3, #87	; 0x57
 8003bee:	e00f      	b.n	8003c10 <HAL_TIM_ConfigClockSource+0xb4>
 8003bf0:	f5b3 5f80 	cmp.w	r3, #4096	; 0x1000
 8003bf4:	d00d      	beq.n	8003c12 <HAL_TIM_ConfigClockSource+0xb6>
 8003bf6:	f5b3 5f00 	cmp.w	r3, #8192	; 0x2000
 8003bfa:	d00c      	beq.n	8003c16 <HAL_TIM_ConfigClockSource+0xba>
 8003bfc:	2b70      	cmp	r3, #112	; 0x70
 8003bfe:	d1cd      	bne.n	8003b9c <HAL_TIM_ConfigClockSource+0x40>
 8003c00:	68cb      	ldr	r3, [r1, #12]
 8003c02:	e9d1 2101 	ldrd	r2, r1, [r1, #4]
 8003c06:	f7ff ff9f 	bl	8003b48 <TIM_ETR_SetConfig>
 8003c0a:	6883      	ldr	r3, [r0, #8]
 8003c0c:	f043 0377 	orr.w	r3, r3, #119	; 0x77
 8003c10:	6083      	str	r3, [r0, #8]
 8003c12:	2200      	movs	r2, #0
 8003c14:	e7c2      	b.n	8003b9c <HAL_TIM_ConfigClockSource+0x40>
 8003c16:	68cb      	ldr	r3, [r1, #12]
 8003c18:	e9d1 2101 	ldrd	r2, r1, [r1, #4]
 8003c1c:	f7ff ff94 	bl	8003b48 <TIM_ETR_SetConfig>
 8003c20:	6883      	ldr	r3, [r0, #8]
 8003c22:	f443 4380 	orr.w	r3, r3, #16384	; 0x4000
 8003c26:	e7f3      	b.n	8003c10 <HAL_TIM_ConfigClockSource+0xb4>
 8003c28:	6a03      	ldr	r3, [r0, #32]
 8003c2a:	6a02      	ldr	r2, [r0, #32]
 8003c2c:	684d      	ldr	r5, [r1, #4]
 8003c2e:	68c9      	ldr	r1, [r1, #12]
 8003c30:	f022 0210 	bic.w	r2, r2, #16
 8003c34:	6202      	str	r2, [r0, #32]
 8003c36:	6982      	ldr	r2, [r0, #24]
 8003c38:	f023 03a0 	bic.w	r3, r3, #160	; 0xa0
 8003c3c:	f422 4270 	bic.w	r2, r2, #61440	; 0xf000
 8003c40:	ea43 1305 	orr.w	r3, r3, r5, lsl #4
 8003c44:	ea42 3201 	orr.w	r2, r2, r1, lsl #12
 8003c48:	6182      	str	r2, [r0, #24]
 8003c4a:	6203      	str	r3, [r0, #32]
 8003c4c:	6883      	ldr	r3, [r0, #8]
 8003c4e:	f023 0370 	bic.w	r3, r3, #112	; 0x70
 8003c52:	f043 0367 	orr.w	r3, r3, #103	; 0x67
 8003c56:	e7db      	b.n	8003c10 <HAL_TIM_ConfigClockSource+0xb4>
 8003c58:	684a      	ldr	r2, [r1, #4]
 8003c5a:	68cd      	ldr	r5, [r1, #12]
 8003c5c:	6a01      	ldr	r1, [r0, #32]
 8003c5e:	6a03      	ldr	r3, [r0, #32]
 8003c60:	f023 0301 	bic.w	r3, r3, #1
 8003c64:	6203      	str	r3, [r0, #32]
 8003c66:	6983      	ldr	r3, [r0, #24]
 8003c68:	f021 010a 	bic.w	r1, r1, #10
 8003c6c:	f023 03f0 	bic.w	r3, r3, #240	; 0xf0
 8003c70:	ea43 1305 	orr.w	r3, r3, r5, lsl #4
 8003c74:	430a      	orrs	r2, r1
 8003c76:	6183      	str	r3, [r0, #24]
 8003c78:	6202      	str	r2, [r0, #32]
 8003c7a:	6883      	ldr	r3, [r0, #8]
 8003c7c:	f023 0370 	bic.w	r3, r3, #112	; 0x70
 8003c80:	f043 0347 	orr.w	r3, r3, #71	; 0x47
 8003c84:	e7c4      	b.n	8003c10 <HAL_TIM_ConfigClockSource+0xb4>
 8003c86:	461a      	mov	r2, r3
 8003c88:	e78e      	b.n	8003ba8 <HAL_TIM_ConfigClockSource+0x4c>
 8003c8a:	bf00      	nop
 8003c8c:	fffe0088 	.word	0xfffe0088

08003c90 <HAL_TIMEx_MasterConfigSynchronization>:
 8003c90:	b570      	push	{r4, r5, r6, lr}
 8003c92:	f890 303c 	ldrb.w	r3, [r0, #60]	; 0x3c
 8003c96:	2b01      	cmp	r3, #1
 8003c98:	f04f 0302 	mov.w	r3, #2
 8003c9c:	d023      	beq.n	8003ce6 <HAL_TIMEx_MasterConfigSynchronization+0x56>
 8003c9e:	6802      	ldr	r2, [r0, #0]
 8003ca0:	4d12      	ldr	r5, [pc, #72]	; (8003cec <HAL_TIMEx_MasterConfigSynchronization+0x5c>)
 8003ca2:	f880 303d 	strb.w	r3, [r0, #61]	; 0x3d
 8003ca6:	6853      	ldr	r3, [r2, #4]
 8003ca8:	6894      	ldr	r4, [r2, #8]
 8003caa:	42aa      	cmp	r2, r5
 8003cac:	bf02      	ittt	eq
 8003cae:	684e      	ldreq	r6, [r1, #4]
 8003cb0:	f423 0370 	biceq.w	r3, r3, #15728640	; 0xf00000
 8003cb4:	4333      	orreq	r3, r6
 8003cb6:	680e      	ldr	r6, [r1, #0]
 8003cb8:	f023 0370 	bic.w	r3, r3, #112	; 0x70
 8003cbc:	4333      	orrs	r3, r6
 8003cbe:	42aa      	cmp	r2, r5
 8003cc0:	6053      	str	r3, [r2, #4]
 8003cc2:	d005      	beq.n	8003cd0 <HAL_TIMEx_MasterConfigSynchronization+0x40>
 8003cc4:	f1b2 4f80 	cmp.w	r2, #1073741824	; 0x40000000
 8003cc8:	d002      	beq.n	8003cd0 <HAL_TIMEx_MasterConfigSynchronization+0x40>
 8003cca:	4b09      	ldr	r3, [pc, #36]	; (8003cf0 <HAL_TIMEx_MasterConfigSynchronization+0x60>)
 8003ccc:	429a      	cmp	r2, r3
 8003cce:	d104      	bne.n	8003cda <HAL_TIMEx_MasterConfigSynchronization+0x4a>
 8003cd0:	6889      	ldr	r1, [r1, #8]
 8003cd2:	f024 0380 	bic.w	r3, r4, #128	; 0x80
 8003cd6:	430b      	orrs	r3, r1
 8003cd8:	6093      	str	r3, [r2, #8]
 8003cda:	2301      	movs	r3, #1
 8003cdc:	f880 303d 	strb.w	r3, [r0, #61]	; 0x3d
 8003ce0:	2300      	movs	r3, #0
 8003ce2:	f880 303c 	strb.w	r3, [r0, #60]	; 0x3c
 8003ce6:	4618      	mov	r0, r3
 8003ce8:	bd70      	pop	{r4, r5, r6, pc}
 8003cea:	bf00      	nop
 8003cec:	40012c00 	.word	0x40012c00
 8003cf0:	40014000 	.word	0x40014000

08003cf4 <UART_EndRxTransfer>:
 8003cf4:	6802      	ldr	r2, [r0, #0]
 8003cf6:	e852 3f00 	ldrex	r3, [r2]
 8003cfa:	f423 7390 	bic.w	r3, r3, #288	; 0x120
 8003cfe:	e842 3100 	strex	r1, r3, [r2]
 8003d02:	6802      	ldr	r2, [r0, #0]
 8003d04:	2900      	cmp	r1, #0
 8003d06:	d1f5      	bne.n	8003cf4 <UART_EndRxTransfer>
 8003d08:	f102 0308 	add.w	r3, r2, #8
 8003d0c:	e853 3f00 	ldrex	r3, [r3]
 8003d10:	f023 0301 	bic.w	r3, r3, #1
 8003d14:	f102 0c08 	add.w	ip, r2, #8
 8003d18:	e84c 3100 	strex	r1, r3, [ip]
 8003d1c:	2900      	cmp	r1, #0
 8003d1e:	d1f3      	bne.n	8003d08 <UART_EndRxTransfer+0x14>
 8003d20:	6e03      	ldr	r3, [r0, #96]	; 0x60
 8003d22:	2b01      	cmp	r3, #1
 8003d24:	d107      	bne.n	8003d36 <UART_EndRxTransfer+0x42>
 8003d26:	e852 3f00 	ldrex	r3, [r2]
 8003d2a:	f023 0310 	bic.w	r3, r3, #16
 8003d2e:	e842 3100 	strex	r1, r3, [r2]
 8003d32:	2900      	cmp	r1, #0
 8003d34:	d1f7      	bne.n	8003d26 <UART_EndRxTransfer+0x32>
 8003d36:	2320      	movs	r3, #32
 8003d38:	f8c0 3080 	str.w	r3, [r0, #128]	; 0x80
 8003d3c:	2300      	movs	r3, #0
 8003d3e:	6603      	str	r3, [r0, #96]	; 0x60
 8003d40:	6683      	str	r3, [r0, #104]	; 0x68
 8003d42:	4770      	bx	lr

08003d44 <UART_SetConfig>:
 8003d44:	b570      	push	{r4, r5, r6, lr}
 8003d46:	4604      	mov	r4, r0
 8003d48:	6803      	ldr	r3, [r0, #0]
 8003d4a:	6921      	ldr	r1, [r4, #16]
 8003d4c:	68a2      	ldr	r2, [r4, #8]
 8003d4e:	681d      	ldr	r5, [r3, #0]
 8003d50:	69c0      	ldr	r0, [r0, #28]
 8003d52:	430a      	orrs	r2, r1
 8003d54:	6961      	ldr	r1, [r4, #20]
 8003d56:	430a      	orrs	r2, r1
 8003d58:	4979      	ldr	r1, [pc, #484]	; (8003f40 <UART_SetConfig+0x1fc>)
 8003d5a:	4302      	orrs	r2, r0
 8003d5c:	4029      	ands	r1, r5
 8003d5e:	430a      	orrs	r2, r1
 8003d60:	601a      	str	r2, [r3, #0]
 8003d62:	685a      	ldr	r2, [r3, #4]
 8003d64:	68e1      	ldr	r1, [r4, #12]
 8003d66:	f422 5240 	bic.w	r2, r2, #12288	; 0x3000
 8003d6a:	430a      	orrs	r2, r1
 8003d6c:	605a      	str	r2, [r3, #4]
 8003d6e:	4a75      	ldr	r2, [pc, #468]	; (8003f44 <UART_SetConfig+0x200>)
 8003d70:	69a1      	ldr	r1, [r4, #24]
 8003d72:	4293      	cmp	r3, r2
 8003d74:	bf1c      	itt	ne
 8003d76:	6a22      	ldrne	r2, [r4, #32]
 8003d78:	4311      	orrne	r1, r2
 8003d7a:	689a      	ldr	r2, [r3, #8]
 8003d7c:	f422 6230 	bic.w	r2, r2, #2816	; 0xb00
 8003d80:	430a      	orrs	r2, r1
 8003d82:	609a      	str	r2, [r3, #8]
 8003d84:	4a70      	ldr	r2, [pc, #448]	; (8003f48 <UART_SetConfig+0x204>)
 8003d86:	4293      	cmp	r3, r2
 8003d88:	d117      	bne.n	8003dba <UART_SetConfig+0x76>
 8003d8a:	4b70      	ldr	r3, [pc, #448]	; (8003f4c <UART_SetConfig+0x208>)
 8003d8c:	f8d3 3088 	ldr.w	r3, [r3, #136]	; 0x88
 8003d90:	f003 0303 	and.w	r3, r3, #3
 8003d94:	3b01      	subs	r3, #1
 8003d96:	2b02      	cmp	r3, #2
 8003d98:	f200 80b0 	bhi.w	8003efc <UART_SetConfig+0x1b8>
 8003d9c:	4a6c      	ldr	r2, [pc, #432]	; (8003f50 <UART_SetConfig+0x20c>)
 8003d9e:	5cd3      	ldrb	r3, [r2, r3]
 8003da0:	f5b0 4f00 	cmp.w	r0, #32768	; 0x8000
 8003da4:	f040 808b 	bne.w	8003ebe <UART_SetConfig+0x17a>
 8003da8:	2b08      	cmp	r3, #8
 8003daa:	d822      	bhi.n	8003df2 <UART_SetConfig+0xae>
 8003dac:	e8df f003 	tbb	[pc, r3]
 8003db0:	2185a969 	.word	0x2185a969
 8003db4:	21212182 	.word	0x21212182
 8003db8:	6d          	.byte	0x6d
 8003db9:	00          	.byte	0x00
 8003dba:	4a66      	ldr	r2, [pc, #408]	; (8003f54 <UART_SetConfig+0x210>)
 8003dbc:	4293      	cmp	r3, r2
 8003dbe:	d106      	bne.n	8003dce <UART_SetConfig+0x8a>
 8003dc0:	4b62      	ldr	r3, [pc, #392]	; (8003f4c <UART_SetConfig+0x208>)
 8003dc2:	4a65      	ldr	r2, [pc, #404]	; (8003f58 <UART_SetConfig+0x214>)
 8003dc4:	f8d3 3088 	ldr.w	r3, [r3, #136]	; 0x88
 8003dc8:	f003 030c 	and.w	r3, r3, #12
 8003dcc:	e7e7      	b.n	8003d9e <UART_SetConfig+0x5a>
 8003dce:	4a63      	ldr	r2, [pc, #396]	; (8003f5c <UART_SetConfig+0x218>)
 8003dd0:	4293      	cmp	r3, r2
 8003dd2:	d118      	bne.n	8003e06 <UART_SetConfig+0xc2>
 8003dd4:	4b5d      	ldr	r3, [pc, #372]	; (8003f4c <UART_SetConfig+0x208>)
 8003dd6:	f8d3 3088 	ldr.w	r3, [r3, #136]	; 0x88
 8003dda:	f003 0330 	and.w	r3, r3, #48	; 0x30
 8003dde:	2b20      	cmp	r3, #32
 8003de0:	f000 8087 	beq.w	8003ef2 <UART_SetConfig+0x1ae>
 8003de4:	d807      	bhi.n	8003df6 <UART_SetConfig+0xb2>
 8003de6:	2b00      	cmp	r3, #0
 8003de8:	f000 8094 	beq.w	8003f14 <UART_SetConfig+0x1d0>
 8003dec:	2b10      	cmp	r3, #16
 8003dee:	f000 808b 	beq.w	8003f08 <UART_SetConfig+0x1c4>
 8003df2:	2001      	movs	r0, #1
 8003df4:	e024      	b.n	8003e40 <UART_SetConfig+0xfc>
 8003df6:	2b30      	cmp	r3, #48	; 0x30
 8003df8:	d1fb      	bne.n	8003df2 <UART_SetConfig+0xae>
 8003dfa:	f5b0 4f00 	cmp.w	r0, #32768	; 0x8000
 8003dfe:	d044      	beq.n	8003e8a <UART_SetConfig+0x146>
 8003e00:	f44f 4000 	mov.w	r0, #32768	; 0x8000
 8003e04:	e08d      	b.n	8003f22 <UART_SetConfig+0x1de>
 8003e06:	4a4f      	ldr	r2, [pc, #316]	; (8003f44 <UART_SetConfig+0x200>)
 8003e08:	4293      	cmp	r3, r2
 8003e0a:	d1f2      	bne.n	8003df2 <UART_SetConfig+0xae>
 8003e0c:	4b4f      	ldr	r3, [pc, #316]	; (8003f4c <UART_SetConfig+0x208>)
 8003e0e:	f8d3 3088 	ldr.w	r3, [r3, #136]	; 0x88
 8003e12:	f403 6340 	and.w	r3, r3, #3072	; 0xc00
 8003e16:	f5b3 6f00 	cmp.w	r3, #2048	; 0x800
 8003e1a:	d015      	beq.n	8003e48 <UART_SetConfig+0x104>
 8003e1c:	d806      	bhi.n	8003e2c <UART_SetConfig+0xe8>
 8003e1e:	b15b      	cbz	r3, 8003e38 <UART_SetConfig+0xf4>
 8003e20:	f5b3 6f80 	cmp.w	r3, #1024	; 0x400
 8003e24:	d1e5      	bne.n	8003df2 <UART_SetConfig+0xae>
 8003e26:	f7fe ff69 	bl	8002cfc <HAL_RCC_GetSysClockFreq>
 8003e2a:	e007      	b.n	8003e3c <UART_SetConfig+0xf8>
 8003e2c:	f5b3 6f40 	cmp.w	r3, #3072	; 0xc00
 8003e30:	d1df      	bne.n	8003df2 <UART_SetConfig+0xae>
 8003e32:	f44f 4000 	mov.w	r0, #32768	; 0x8000
 8003e36:	e008      	b.n	8003e4a <UART_SetConfig+0x106>
 8003e38:	f7ff fb2e 	bl	8003498 <HAL_RCC_GetPCLK1Freq>
 8003e3c:	b928      	cbnz	r0, 8003e4a <UART_SetConfig+0x106>
 8003e3e:	2000      	movs	r0, #0
 8003e40:	2300      	movs	r3, #0
 8003e42:	e9c4 331a 	strd	r3, r3, [r4, #104]	; 0x68
 8003e46:	bd70      	pop	{r4, r5, r6, pc}
 8003e48:	4845      	ldr	r0, [pc, #276]	; (8003f60 <UART_SetConfig+0x21c>)
 8003e4a:	6862      	ldr	r2, [r4, #4]
 8003e4c:	eb02 0342 	add.w	r3, r2, r2, lsl #1
 8003e50:	4283      	cmp	r3, r0
 8003e52:	d8ce      	bhi.n	8003df2 <UART_SetConfig+0xae>
 8003e54:	ebb0 3f02 	cmp.w	r0, r2, lsl #12
 8003e58:	d8cb      	bhi.n	8003df2 <UART_SetConfig+0xae>
 8003e5a:	0851      	lsrs	r1, r2, #1
 8003e5c:	2500      	movs	r5, #0
 8003e5e:	468c      	mov	ip, r1
 8003e60:	f44f 7680 	mov.w	r6, #256	; 0x100
 8003e64:	4629      	mov	r1, r5
 8003e66:	fbe0 c106 	umlal	ip, r1, r0, r6
 8003e6a:	462b      	mov	r3, r5
 8003e6c:	4660      	mov	r0, ip
 8003e6e:	f7fc fe9b 	bl	8000ba8 <__aeabi_uldivmod>
 8003e72:	4b3c      	ldr	r3, [pc, #240]	; (8003f64 <UART_SetConfig+0x220>)
 8003e74:	f5a0 7240 	sub.w	r2, r0, #768	; 0x300
 8003e78:	429a      	cmp	r2, r3
 8003e7a:	d8ba      	bhi.n	8003df2 <UART_SetConfig+0xae>
 8003e7c:	6823      	ldr	r3, [r4, #0]
 8003e7e:	60d8      	str	r0, [r3, #12]
 8003e80:	e7dd      	b.n	8003e3e <UART_SetConfig+0xfa>
 8003e82:	f7ff fb09 	bl	8003498 <HAL_RCC_GetPCLK1Freq>
 8003e86:	2800      	cmp	r0, #0
 8003e88:	d0d9      	beq.n	8003e3e <UART_SetConfig+0xfa>
 8003e8a:	6862      	ldr	r2, [r4, #4]
 8003e8c:	0853      	lsrs	r3, r2, #1
 8003e8e:	eb03 0340 	add.w	r3, r3, r0, lsl #1
 8003e92:	fbb3 f3f2 	udiv	r3, r3, r2
 8003e96:	f64f 72ef 	movw	r2, #65519	; 0xffef
 8003e9a:	f1a3 0110 	sub.w	r1, r3, #16
 8003e9e:	4291      	cmp	r1, r2
 8003ea0:	d8a7      	bhi.n	8003df2 <UART_SetConfig+0xae>
 8003ea2:	f023 020f 	bic.w	r2, r3, #15
 8003ea6:	6821      	ldr	r1, [r4, #0]
 8003ea8:	b292      	uxth	r2, r2
 8003eaa:	f3c3 0342 	ubfx	r3, r3, #1, #3
 8003eae:	4313      	orrs	r3, r2
 8003eb0:	60cb      	str	r3, [r1, #12]
 8003eb2:	e7c4      	b.n	8003e3e <UART_SetConfig+0xfa>
 8003eb4:	f7fe ff22 	bl	8002cfc <HAL_RCC_GetSysClockFreq>
 8003eb8:	e7e5      	b.n	8003e86 <UART_SetConfig+0x142>
 8003eba:	4829      	ldr	r0, [pc, #164]	; (8003f60 <UART_SetConfig+0x21c>)
 8003ebc:	e7e5      	b.n	8003e8a <UART_SetConfig+0x146>
 8003ebe:	2b08      	cmp	r3, #8
 8003ec0:	d897      	bhi.n	8003df2 <UART_SetConfig+0xae>
 8003ec2:	a201      	add	r2, pc, #4	; (adr r2, 8003ec8 <UART_SetConfig+0x184>)
 8003ec4:	f852 f023 	ldr.w	pc, [r2, r3, lsl #2]
 8003ec8:	08003f1b 	.word	0x08003f1b
 8003ecc:	08003eed 	.word	0x08003eed
 8003ed0:	08003ef9 	.word	0x08003ef9
 8003ed4:	08003df3 	.word	0x08003df3
 8003ed8:	08003f0f 	.word	0x08003f0f
 8003edc:	08003df3 	.word	0x08003df3
 8003ee0:	08003df3 	.word	0x08003df3
 8003ee4:	08003df3 	.word	0x08003df3
 8003ee8:	08003e01 	.word	0x08003e01
 8003eec:	f7ff fae6 	bl	80034bc <HAL_RCC_GetPCLK2Freq>
 8003ef0:	e015      	b.n	8003f1e <UART_SetConfig+0x1da>
 8003ef2:	f5b0 4f00 	cmp.w	r0, #32768	; 0x8000
 8003ef6:	d0e0      	beq.n	8003eba <UART_SetConfig+0x176>
 8003ef8:	4819      	ldr	r0, [pc, #100]	; (8003f60 <UART_SetConfig+0x21c>)
 8003efa:	e012      	b.n	8003f22 <UART_SetConfig+0x1de>
 8003efc:	f5b0 4f00 	cmp.w	r0, #32768	; 0x8000
 8003f00:	d1f4      	bne.n	8003eec <UART_SetConfig+0x1a8>
 8003f02:	f7ff fadb 	bl	80034bc <HAL_RCC_GetPCLK2Freq>
 8003f06:	e7be      	b.n	8003e86 <UART_SetConfig+0x142>
 8003f08:	f5b0 4f00 	cmp.w	r0, #32768	; 0x8000
 8003f0c:	d0d2      	beq.n	8003eb4 <UART_SetConfig+0x170>
 8003f0e:	f7fe fef5 	bl	8002cfc <HAL_RCC_GetSysClockFreq>
 8003f12:	e004      	b.n	8003f1e <UART_SetConfig+0x1da>
 8003f14:	f5b0 4f00 	cmp.w	r0, #32768	; 0x8000
 8003f18:	d0b3      	beq.n	8003e82 <UART_SetConfig+0x13e>
 8003f1a:	f7ff fabd 	bl	8003498 <HAL_RCC_GetPCLK1Freq>
 8003f1e:	2800      	cmp	r0, #0
 8003f20:	d08d      	beq.n	8003e3e <UART_SetConfig+0xfa>
 8003f22:	6862      	ldr	r2, [r4, #4]
 8003f24:	eb00 0352 	add.w	r3, r0, r2, lsr #1
 8003f28:	fbb3 f3f2 	udiv	r3, r3, r2
 8003f2c:	f64f 72ef 	movw	r2, #65519	; 0xffef
 8003f30:	f1a3 0110 	sub.w	r1, r3, #16
 8003f34:	4291      	cmp	r1, r2
 8003f36:	f63f af5c 	bhi.w	8003df2 <UART_SetConfig+0xae>
 8003f3a:	6822      	ldr	r2, [r4, #0]
 8003f3c:	60d3      	str	r3, [r2, #12]
 8003f3e:	e77e      	b.n	8003e3e <UART_SetConfig+0xfa>
 8003f40:	efff69f3 	.word	0xefff69f3
 8003f44:	40008000 	.word	0x40008000
 8003f48:	40013800 	.word	0x40013800
 8003f4c:	40021000 	.word	0x40021000
 8003f50:	080073cc 	.word	0x080073cc
 8003f54:	40004400 	.word	0x40004400
 8003f58:	080073cf 	.word	0x080073cf
 8003f5c:	40004800 	.word	0x40004800
 8003f60:	00f42400 	.word	0x00f42400
 8003f64:	000ffcff 	.word	0x000ffcff

08003f68 <UART_AdvFeatureConfig>:
 8003f68:	6a43      	ldr	r3, [r0, #36]	; 0x24
 8003f6a:	071a      	lsls	r2, r3, #28
 8003f6c:	b510      	push	{r4, lr}
 8003f6e:	d506      	bpl.n	8003f7e <UART_AdvFeatureConfig+0x16>
 8003f70:	6801      	ldr	r1, [r0, #0]
 8003f72:	6b44      	ldr	r4, [r0, #52]	; 0x34
 8003f74:	684a      	ldr	r2, [r1, #4]
 8003f76:	f422 4200 	bic.w	r2, r2, #32768	; 0x8000
 8003f7a:	4322      	orrs	r2, r4
 8003f7c:	604a      	str	r2, [r1, #4]
 8003f7e:	07dc      	lsls	r4, r3, #31
 8003f80:	d506      	bpl.n	8003f90 <UART_AdvFeatureConfig+0x28>
 8003f82:	6801      	ldr	r1, [r0, #0]
 8003f84:	6a84      	ldr	r4, [r0, #40]	; 0x28
 8003f86:	684a      	ldr	r2, [r1, #4]
 8003f88:	f422 3200 	bic.w	r2, r2, #131072	; 0x20000
 8003f8c:	4322      	orrs	r2, r4
 8003f8e:	604a      	str	r2, [r1, #4]
 8003f90:	0799      	lsls	r1, r3, #30
 8003f92:	d506      	bpl.n	8003fa2 <UART_AdvFeatureConfig+0x3a>
 8003f94:	6801      	ldr	r1, [r0, #0]
 8003f96:	6ac4      	ldr	r4, [r0, #44]	; 0x2c
 8003f98:	684a      	ldr	r2, [r1, #4]
 8003f9a:	f422 3280 	bic.w	r2, r2, #65536	; 0x10000
 8003f9e:	4322      	orrs	r2, r4
 8003fa0:	604a      	str	r2, [r1, #4]
 8003fa2:	075a      	lsls	r2, r3, #29
 8003fa4:	d506      	bpl.n	8003fb4 <UART_AdvFeatureConfig+0x4c>
 8003fa6:	6801      	ldr	r1, [r0, #0]
 8003fa8:	6b04      	ldr	r4, [r0, #48]	; 0x30
 8003faa:	684a      	ldr	r2, [r1, #4]
 8003fac:	f422 2280 	bic.w	r2, r2, #262144	; 0x40000
 8003fb0:	4322      	orrs	r2, r4
 8003fb2:	604a      	str	r2, [r1, #4]
 8003fb4:	06dc      	lsls	r4, r3, #27
 8003fb6:	d506      	bpl.n	8003fc6 <UART_AdvFeatureConfig+0x5e>
 8003fb8:	6801      	ldr	r1, [r0, #0]
 8003fba:	6b84      	ldr	r4, [r0, #56]	; 0x38
 8003fbc:	688a      	ldr	r2, [r1, #8]
 8003fbe:	f422 5280 	bic.w	r2, r2, #4096	; 0x1000
 8003fc2:	4322      	orrs	r2, r4
 8003fc4:	608a      	str	r2, [r1, #8]
 8003fc6:	0699      	lsls	r1, r3, #26
 8003fc8:	d506      	bpl.n	8003fd8 <UART_AdvFeatureConfig+0x70>
 8003fca:	6801      	ldr	r1, [r0, #0]
 8003fcc:	6bc4      	ldr	r4, [r0, #60]	; 0x3c
 8003fce:	688a      	ldr	r2, [r1, #8]
 8003fd0:	f422 5200 	bic.w	r2, r2, #8192	; 0x2000
 8003fd4:	4322      	orrs	r2, r4
 8003fd6:	608a      	str	r2, [r1, #8]
 8003fd8:	065a      	lsls	r2, r3, #25
 8003fda:	d50f      	bpl.n	8003ffc <UART_AdvFeatureConfig+0x94>
 8003fdc:	6801      	ldr	r1, [r0, #0]
 8003fde:	6c04      	ldr	r4, [r0, #64]	; 0x40
 8003fe0:	684a      	ldr	r2, [r1, #4]
 8003fe2:	f422 1280 	bic.w	r2, r2, #1048576	; 0x100000
 8003fe6:	4322      	orrs	r2, r4
 8003fe8:	f5b4 1f80 	cmp.w	r4, #1048576	; 0x100000
 8003fec:	604a      	str	r2, [r1, #4]
 8003fee:	d105      	bne.n	8003ffc <UART_AdvFeatureConfig+0x94>
 8003ff0:	684a      	ldr	r2, [r1, #4]
 8003ff2:	6c44      	ldr	r4, [r0, #68]	; 0x44
 8003ff4:	f422 02c0 	bic.w	r2, r2, #6291456	; 0x600000
 8003ff8:	4322      	orrs	r2, r4
 8003ffa:	604a      	str	r2, [r1, #4]
 8003ffc:	061b      	lsls	r3, r3, #24
 8003ffe:	d506      	bpl.n	800400e <UART_AdvFeatureConfig+0xa6>
 8004000:	6802      	ldr	r2, [r0, #0]
 8004002:	6c81      	ldr	r1, [r0, #72]	; 0x48
 8004004:	6853      	ldr	r3, [r2, #4]
 8004006:	f423 2300 	bic.w	r3, r3, #524288	; 0x80000
 800400a:	430b      	orrs	r3, r1
 800400c:	6053      	str	r3, [r2, #4]
 800400e:	bd10      	pop	{r4, pc}

08004010 <UART_WaitOnFlagUntilTimeout>:
 8004010:	e92d 43f8 	stmdb	sp!, {r3, r4, r5, r6, r7, r8, r9, lr}
 8004014:	f8dd 9020 	ldr.w	r9, [sp, #32]
 8004018:	4604      	mov	r4, r0
 800401a:	460d      	mov	r5, r1
 800401c:	4617      	mov	r7, r2
 800401e:	4698      	mov	r8, r3
 8004020:	6822      	ldr	r2, [r4, #0]
 8004022:	69d3      	ldr	r3, [r2, #28]
 8004024:	ea35 0303 	bics.w	r3, r5, r3
 8004028:	bf0c      	ite	eq
 800402a:	2301      	moveq	r3, #1
 800402c:	2300      	movne	r3, #0
 800402e:	42bb      	cmp	r3, r7
 8004030:	d001      	beq.n	8004036 <UART_WaitOnFlagUntilTimeout+0x26>
 8004032:	2000      	movs	r0, #0
 8004034:	e022      	b.n	800407c <UART_WaitOnFlagUntilTimeout+0x6c>
 8004036:	f1b9 3fff 	cmp.w	r9, #4294967295	; 0xffffffff
 800403a:	d0f2      	beq.n	8004022 <UART_WaitOnFlagUntilTimeout+0x12>
 800403c:	f7fd fedc 	bl	8001df8 <HAL_GetTick>
 8004040:	eba0 0008 	sub.w	r0, r0, r8
 8004044:	4548      	cmp	r0, r9
 8004046:	d829      	bhi.n	800409c <UART_WaitOnFlagUntilTimeout+0x8c>
 8004048:	f1b9 0f00 	cmp.w	r9, #0
 800404c:	d026      	beq.n	800409c <UART_WaitOnFlagUntilTimeout+0x8c>
 800404e:	6821      	ldr	r1, [r4, #0]
 8004050:	680b      	ldr	r3, [r1, #0]
 8004052:	075a      	lsls	r2, r3, #29
 8004054:	d5e4      	bpl.n	8004020 <UART_WaitOnFlagUntilTimeout+0x10>
 8004056:	2d80      	cmp	r5, #128	; 0x80
 8004058:	d0e2      	beq.n	8004020 <UART_WaitOnFlagUntilTimeout+0x10>
 800405a:	2d40      	cmp	r5, #64	; 0x40
 800405c:	d0e0      	beq.n	8004020 <UART_WaitOnFlagUntilTimeout+0x10>
 800405e:	69ce      	ldr	r6, [r1, #28]
 8004060:	f016 0608 	ands.w	r6, r6, #8
 8004064:	d00c      	beq.n	8004080 <UART_WaitOnFlagUntilTimeout+0x70>
 8004066:	2508      	movs	r5, #8
 8004068:	4620      	mov	r0, r4
 800406a:	620d      	str	r5, [r1, #32]
 800406c:	f7ff fe42 	bl	8003cf4 <UART_EndRxTransfer>
 8004070:	2300      	movs	r3, #0
 8004072:	f8c4 5084 	str.w	r5, [r4, #132]	; 0x84
 8004076:	f884 3078 	strb.w	r3, [r4, #120]	; 0x78
 800407a:	2001      	movs	r0, #1
 800407c:	e8bd 83f8 	ldmia.w	sp!, {r3, r4, r5, r6, r7, r8, r9, pc}
 8004080:	69cb      	ldr	r3, [r1, #28]
 8004082:	051b      	lsls	r3, r3, #20
 8004084:	d5cc      	bpl.n	8004020 <UART_WaitOnFlagUntilTimeout+0x10>
 8004086:	f44f 6300 	mov.w	r3, #2048	; 0x800
 800408a:	620b      	str	r3, [r1, #32]
 800408c:	4620      	mov	r0, r4
 800408e:	f7ff fe31 	bl	8003cf4 <UART_EndRxTransfer>
 8004092:	2320      	movs	r3, #32
 8004094:	f8c4 3084 	str.w	r3, [r4, #132]	; 0x84
 8004098:	f884 6078 	strb.w	r6, [r4, #120]	; 0x78
 800409c:	2003      	movs	r0, #3
 800409e:	e7ed      	b.n	800407c <UART_WaitOnFlagUntilTimeout+0x6c>

080040a0 <HAL_UART_Transmit>:
 80040a0:	e92d 41ff 	stmdb	sp!, {r0, r1, r2, r3, r4, r5, r6, r7, r8, lr}
 80040a4:	4698      	mov	r8, r3
 80040a6:	6fc3      	ldr	r3, [r0, #124]	; 0x7c
 80040a8:	2b20      	cmp	r3, #32
 80040aa:	4604      	mov	r4, r0
 80040ac:	460e      	mov	r6, r1
 80040ae:	4617      	mov	r7, r2
 80040b0:	d144      	bne.n	800413c <HAL_UART_Transmit+0x9c>
 80040b2:	2900      	cmp	r1, #0
 80040b4:	d044      	beq.n	8004140 <HAL_UART_Transmit+0xa0>
 80040b6:	2a00      	cmp	r2, #0
 80040b8:	d042      	beq.n	8004140 <HAL_UART_Transmit+0xa0>
 80040ba:	2321      	movs	r3, #33	; 0x21
 80040bc:	2500      	movs	r5, #0
 80040be:	f8c0 5084 	str.w	r5, [r0, #132]	; 0x84
 80040c2:	67c3      	str	r3, [r0, #124]	; 0x7c
 80040c4:	f7fd fe98 	bl	8001df8 <HAL_GetTick>
 80040c8:	68a2      	ldr	r2, [r4, #8]
 80040ca:	f8a4 7050 	strh.w	r7, [r4, #80]	; 0x50
 80040ce:	f5b2 5f80 	cmp.w	r2, #4096	; 0x1000
 80040d2:	4603      	mov	r3, r0
 80040d4:	f8a4 7052 	strh.w	r7, [r4, #82]	; 0x52
 80040d8:	d103      	bne.n	80040e2 <HAL_UART_Transmit+0x42>
 80040da:	6922      	ldr	r2, [r4, #16]
 80040dc:	b90a      	cbnz	r2, 80040e2 <HAL_UART_Transmit+0x42>
 80040de:	4635      	mov	r5, r6
 80040e0:	4616      	mov	r6, r2
 80040e2:	f8b4 2052 	ldrh.w	r2, [r4, #82]	; 0x52
 80040e6:	f8cd 8000 	str.w	r8, [sp]
 80040ea:	b292      	uxth	r2, r2
 80040ec:	b94a      	cbnz	r2, 8004102 <HAL_UART_Transmit+0x62>
 80040ee:	2140      	movs	r1, #64	; 0x40
 80040f0:	4620      	mov	r0, r4
 80040f2:	f7ff ff8d 	bl	8004010 <UART_WaitOnFlagUntilTimeout>
 80040f6:	2320      	movs	r3, #32
 80040f8:	67e3      	str	r3, [r4, #124]	; 0x7c
 80040fa:	b960      	cbnz	r0, 8004116 <HAL_UART_Transmit+0x76>
 80040fc:	b004      	add	sp, #16
 80040fe:	e8bd 81f0 	ldmia.w	sp!, {r4, r5, r6, r7, r8, pc}
 8004102:	2200      	movs	r2, #0
 8004104:	2180      	movs	r1, #128	; 0x80
 8004106:	4620      	mov	r0, r4
 8004108:	9303      	str	r3, [sp, #12]
 800410a:	f7ff ff81 	bl	8004010 <UART_WaitOnFlagUntilTimeout>
 800410e:	9b03      	ldr	r3, [sp, #12]
 8004110:	b118      	cbz	r0, 800411a <HAL_UART_Transmit+0x7a>
 8004112:	2320      	movs	r3, #32
 8004114:	67e3      	str	r3, [r4, #124]	; 0x7c
 8004116:	2003      	movs	r0, #3
 8004118:	e7f0      	b.n	80040fc <HAL_UART_Transmit+0x5c>
 800411a:	6821      	ldr	r1, [r4, #0]
 800411c:	b95e      	cbnz	r6, 8004136 <HAL_UART_Transmit+0x96>
 800411e:	f835 2b02 	ldrh.w	r2, [r5], #2
 8004122:	f3c2 0208 	ubfx	r2, r2, #0, #9
 8004126:	850a      	strh	r2, [r1, #40]	; 0x28
 8004128:	f8b4 2052 	ldrh.w	r2, [r4, #82]	; 0x52
 800412c:	3a01      	subs	r2, #1
 800412e:	b292      	uxth	r2, r2
 8004130:	f8a4 2052 	strh.w	r2, [r4, #82]	; 0x52
 8004134:	e7d5      	b.n	80040e2 <HAL_UART_Transmit+0x42>
 8004136:	f816 2b01 	ldrb.w	r2, [r6], #1
 800413a:	e7f4      	b.n	8004126 <HAL_UART_Transmit+0x86>
 800413c:	2002      	movs	r0, #2
 800413e:	e7dd      	b.n	80040fc <HAL_UART_Transmit+0x5c>
 8004140:	2001      	movs	r0, #1
 8004142:	e7db      	b.n	80040fc <HAL_UART_Transmit+0x5c>

08004144 <UART_CheckIdleState>:
 8004144:	b530      	push	{r4, r5, lr}
 8004146:	4604      	mov	r4, r0
 8004148:	2500      	movs	r5, #0
 800414a:	b085      	sub	sp, #20
 800414c:	f8c0 5084 	str.w	r5, [r0, #132]	; 0x84
 8004150:	f7fd fe52 	bl	8001df8 <HAL_GetTick>
 8004154:	6822      	ldr	r2, [r4, #0]
 8004156:	6812      	ldr	r2, [r2, #0]
 8004158:	0711      	lsls	r1, r2, #28
 800415a:	4603      	mov	r3, r0
 800415c:	d51c      	bpl.n	8004198 <UART_CheckIdleState+0x54>
 800415e:	f06f 427e 	mvn.w	r2, #4261412864	; 0xfe000000
 8004162:	9200      	str	r2, [sp, #0]
 8004164:	9003      	str	r0, [sp, #12]
 8004166:	462a      	mov	r2, r5
 8004168:	f44f 1100 	mov.w	r1, #2097152	; 0x200000
 800416c:	4620      	mov	r0, r4
 800416e:	f7ff ff4f 	bl	8004010 <UART_WaitOnFlagUntilTimeout>
 8004172:	9b03      	ldr	r3, [sp, #12]
 8004174:	b180      	cbz	r0, 8004198 <UART_CheckIdleState+0x54>
 8004176:	6822      	ldr	r2, [r4, #0]
 8004178:	e852 3f00 	ldrex	r3, [r2]
 800417c:	f023 0380 	bic.w	r3, r3, #128	; 0x80
 8004180:	e842 3100 	strex	r1, r3, [r2]
 8004184:	2900      	cmp	r1, #0
 8004186:	d1f6      	bne.n	8004176 <UART_CheckIdleState+0x32>
 8004188:	2320      	movs	r3, #32
 800418a:	67e3      	str	r3, [r4, #124]	; 0x7c
 800418c:	2003      	movs	r0, #3
 800418e:	2300      	movs	r3, #0
 8004190:	f884 3078 	strb.w	r3, [r4, #120]	; 0x78
 8004194:	b005      	add	sp, #20
 8004196:	bd30      	pop	{r4, r5, pc}
 8004198:	6822      	ldr	r2, [r4, #0]
 800419a:	6812      	ldr	r2, [r2, #0]
 800419c:	0752      	lsls	r2, r2, #29
 800419e:	d523      	bpl.n	80041e8 <UART_CheckIdleState+0xa4>
 80041a0:	f06f 427e 	mvn.w	r2, #4261412864	; 0xfe000000
 80041a4:	9200      	str	r2, [sp, #0]
 80041a6:	f44f 0180 	mov.w	r1, #4194304	; 0x400000
 80041aa:	2200      	movs	r2, #0
 80041ac:	4620      	mov	r0, r4
 80041ae:	f7ff ff2f 	bl	8004010 <UART_WaitOnFlagUntilTimeout>
 80041b2:	b1c8      	cbz	r0, 80041e8 <UART_CheckIdleState+0xa4>
 80041b4:	6822      	ldr	r2, [r4, #0]
 80041b6:	e852 3f00 	ldrex	r3, [r2]
 80041ba:	f423 7390 	bic.w	r3, r3, #288	; 0x120
 80041be:	e842 3100 	strex	r1, r3, [r2]
 80041c2:	6822      	ldr	r2, [r4, #0]
 80041c4:	2900      	cmp	r1, #0
 80041c6:	d1f5      	bne.n	80041b4 <UART_CheckIdleState+0x70>
 80041c8:	f102 0308 	add.w	r3, r2, #8
 80041cc:	e853 3f00 	ldrex	r3, [r3]
 80041d0:	f023 0301 	bic.w	r3, r3, #1
 80041d4:	f102 0008 	add.w	r0, r2, #8
 80041d8:	e840 3100 	strex	r1, r3, [r0]
 80041dc:	2900      	cmp	r1, #0
 80041de:	d1f3      	bne.n	80041c8 <UART_CheckIdleState+0x84>
 80041e0:	2320      	movs	r3, #32
 80041e2:	f8c4 3080 	str.w	r3, [r4, #128]	; 0x80
 80041e6:	e7d1      	b.n	800418c <UART_CheckIdleState+0x48>
 80041e8:	2320      	movs	r3, #32
 80041ea:	2000      	movs	r0, #0
 80041ec:	67e3      	str	r3, [r4, #124]	; 0x7c
 80041ee:	f8c4 3080 	str.w	r3, [r4, #128]	; 0x80
 80041f2:	6620      	str	r0, [r4, #96]	; 0x60
 80041f4:	6660      	str	r0, [r4, #100]	; 0x64
 80041f6:	e7ca      	b.n	800418e <UART_CheckIdleState+0x4a>

080041f8 <HAL_UART_Init>:
 80041f8:	b510      	push	{r4, lr}
 80041fa:	4604      	mov	r4, r0
 80041fc:	b340      	cbz	r0, 8004250 <HAL_UART_Init+0x58>
 80041fe:	6fc3      	ldr	r3, [r0, #124]	; 0x7c
 8004200:	b91b      	cbnz	r3, 800420a <HAL_UART_Init+0x12>
 8004202:	f880 3078 	strb.w	r3, [r0, #120]	; 0x78
 8004206:	f7fd fc93 	bl	8001b30 <HAL_UART_MspInit>
 800420a:	6822      	ldr	r2, [r4, #0]
 800420c:	2324      	movs	r3, #36	; 0x24
 800420e:	67e3      	str	r3, [r4, #124]	; 0x7c
 8004210:	6813      	ldr	r3, [r2, #0]
 8004212:	f023 0301 	bic.w	r3, r3, #1
 8004216:	6013      	str	r3, [r2, #0]
 8004218:	6a63      	ldr	r3, [r4, #36]	; 0x24
 800421a:	b113      	cbz	r3, 8004222 <HAL_UART_Init+0x2a>
 800421c:	4620      	mov	r0, r4
 800421e:	f7ff fea3 	bl	8003f68 <UART_AdvFeatureConfig>
 8004222:	4620      	mov	r0, r4
 8004224:	f7ff fd8e 	bl	8003d44 <UART_SetConfig>
 8004228:	2801      	cmp	r0, #1
 800422a:	d011      	beq.n	8004250 <HAL_UART_Init+0x58>
 800422c:	6823      	ldr	r3, [r4, #0]
 800422e:	685a      	ldr	r2, [r3, #4]
 8004230:	f422 4290 	bic.w	r2, r2, #18432	; 0x4800
 8004234:	605a      	str	r2, [r3, #4]
 8004236:	689a      	ldr	r2, [r3, #8]
 8004238:	f022 022a 	bic.w	r2, r2, #42	; 0x2a
 800423c:	609a      	str	r2, [r3, #8]
 800423e:	681a      	ldr	r2, [r3, #0]
 8004240:	f042 0201 	orr.w	r2, r2, #1
 8004244:	4620      	mov	r0, r4
 8004246:	601a      	str	r2, [r3, #0]
 8004248:	e8bd 4010 	ldmia.w	sp!, {r4, lr}
 800424c:	f7ff bf7a 	b.w	8004144 <UART_CheckIdleState>
 8004250:	2001      	movs	r0, #1
 8004252:	bd10      	pop	{r4, pc}

08004254 <__cvt>:
 8004254:	e92d 47ff 	stmdb	sp!, {r0, r1, r2, r3, r4, r5, r6, r7, r8, r9, sl, lr}
 8004258:	ec55 4b10 	vmov	r4, r5, d0
 800425c:	2d00      	cmp	r5, #0
 800425e:	460e      	mov	r6, r1
 8004260:	4619      	mov	r1, r3
 8004262:	462b      	mov	r3, r5
 8004264:	bfbb      	ittet	lt
 8004266:	f105 4300 	addlt.w	r3, r5, #2147483648	; 0x80000000
 800426a:	461d      	movlt	r5, r3
 800426c:	2300      	movge	r3, #0
 800426e:	232d      	movlt	r3, #45	; 0x2d
 8004270:	700b      	strb	r3, [r1, #0]
 8004272:	9b0d      	ldr	r3, [sp, #52]	; 0x34
 8004274:	f8dd a030 	ldr.w	sl, [sp, #48]	; 0x30
 8004278:	4691      	mov	r9, r2
 800427a:	f023 0820 	bic.w	r8, r3, #32
 800427e:	bfbc      	itt	lt
 8004280:	4622      	movlt	r2, r4
 8004282:	4614      	movlt	r4, r2
 8004284:	f1b8 0f46 	cmp.w	r8, #70	; 0x46
 8004288:	d005      	beq.n	8004296 <__cvt+0x42>
 800428a:	f1b8 0f45 	cmp.w	r8, #69	; 0x45
 800428e:	d100      	bne.n	8004292 <__cvt+0x3e>
 8004290:	3601      	adds	r6, #1
 8004292:	2102      	movs	r1, #2
 8004294:	e000      	b.n	8004298 <__cvt+0x44>
 8004296:	2103      	movs	r1, #3
 8004298:	ab03      	add	r3, sp, #12
 800429a:	9301      	str	r3, [sp, #4]
 800429c:	ab02      	add	r3, sp, #8
 800429e:	9300      	str	r3, [sp, #0]
 80042a0:	ec45 4b10 	vmov	d0, r4, r5
 80042a4:	4653      	mov	r3, sl
 80042a6:	4632      	mov	r2, r6
 80042a8:	f000 ff96 	bl	80051d8 <_dtoa_r>
 80042ac:	f1b8 0f47 	cmp.w	r8, #71	; 0x47
 80042b0:	4607      	mov	r7, r0
 80042b2:	d102      	bne.n	80042ba <__cvt+0x66>
 80042b4:	f019 0f01 	tst.w	r9, #1
 80042b8:	d022      	beq.n	8004300 <__cvt+0xac>
 80042ba:	f1b8 0f46 	cmp.w	r8, #70	; 0x46
 80042be:	eb07 0906 	add.w	r9, r7, r6
 80042c2:	d110      	bne.n	80042e6 <__cvt+0x92>
 80042c4:	783b      	ldrb	r3, [r7, #0]
 80042c6:	2b30      	cmp	r3, #48	; 0x30
 80042c8:	d10a      	bne.n	80042e0 <__cvt+0x8c>
 80042ca:	2200      	movs	r2, #0
 80042cc:	2300      	movs	r3, #0
 80042ce:	4620      	mov	r0, r4
 80042d0:	4629      	mov	r1, r5
 80042d2:	f7fc fbf9 	bl	8000ac8 <__aeabi_dcmpeq>
 80042d6:	b918      	cbnz	r0, 80042e0 <__cvt+0x8c>
 80042d8:	f1c6 0601 	rsb	r6, r6, #1
 80042dc:	f8ca 6000 	str.w	r6, [sl]
 80042e0:	f8da 3000 	ldr.w	r3, [sl]
 80042e4:	4499      	add	r9, r3
 80042e6:	2200      	movs	r2, #0
 80042e8:	2300      	movs	r3, #0
 80042ea:	4620      	mov	r0, r4
 80042ec:	4629      	mov	r1, r5
 80042ee:	f7fc fbeb 	bl	8000ac8 <__aeabi_dcmpeq>
 80042f2:	b108      	cbz	r0, 80042f8 <__cvt+0xa4>
 80042f4:	f8cd 900c 	str.w	r9, [sp, #12]
 80042f8:	2230      	movs	r2, #48	; 0x30
 80042fa:	9b03      	ldr	r3, [sp, #12]
 80042fc:	454b      	cmp	r3, r9
 80042fe:	d307      	bcc.n	8004310 <__cvt+0xbc>
 8004300:	9b03      	ldr	r3, [sp, #12]
 8004302:	9a0e      	ldr	r2, [sp, #56]	; 0x38
 8004304:	1bdb      	subs	r3, r3, r7
 8004306:	4638      	mov	r0, r7
 8004308:	6013      	str	r3, [r2, #0]
 800430a:	b004      	add	sp, #16
 800430c:	e8bd 87f0 	ldmia.w	sp!, {r4, r5, r6, r7, r8, r9, sl, pc}
 8004310:	1c59      	adds	r1, r3, #1
 8004312:	9103      	str	r1, [sp, #12]
 8004314:	701a      	strb	r2, [r3, #0]
 8004316:	e7f0      	b.n	80042fa <__cvt+0xa6>

08004318 <__exponent>:
 8004318:	b5f7      	push	{r0, r1, r2, r4, r5, r6, r7, lr}
 800431a:	4603      	mov	r3, r0
 800431c:	2900      	cmp	r1, #0
 800431e:	bfb8      	it	lt
 8004320:	4249      	neglt	r1, r1
 8004322:	f803 2b02 	strb.w	r2, [r3], #2
 8004326:	bfb4      	ite	lt
 8004328:	222d      	movlt	r2, #45	; 0x2d
 800432a:	222b      	movge	r2, #43	; 0x2b
 800432c:	2909      	cmp	r1, #9
 800432e:	7042      	strb	r2, [r0, #1]
 8004330:	dd2a      	ble.n	8004388 <__exponent+0x70>
 8004332:	f10d 0207 	add.w	r2, sp, #7
 8004336:	4617      	mov	r7, r2
 8004338:	260a      	movs	r6, #10
 800433a:	4694      	mov	ip, r2
 800433c:	fb91 f5f6 	sdiv	r5, r1, r6
 8004340:	fb06 1415 	mls	r4, r6, r5, r1
 8004344:	3430      	adds	r4, #48	; 0x30
 8004346:	f80c 4c01 	strb.w	r4, [ip, #-1]
 800434a:	460c      	mov	r4, r1
 800434c:	2c63      	cmp	r4, #99	; 0x63
 800434e:	f102 32ff 	add.w	r2, r2, #4294967295	; 0xffffffff
 8004352:	4629      	mov	r1, r5
 8004354:	dcf1      	bgt.n	800433a <__exponent+0x22>
 8004356:	3130      	adds	r1, #48	; 0x30
 8004358:	f1ac 0402 	sub.w	r4, ip, #2
 800435c:	f802 1c01 	strb.w	r1, [r2, #-1]
 8004360:	1c41      	adds	r1, r0, #1
 8004362:	4622      	mov	r2, r4
 8004364:	42ba      	cmp	r2, r7
 8004366:	d30a      	bcc.n	800437e <__exponent+0x66>
 8004368:	f10d 0209 	add.w	r2, sp, #9
 800436c:	eba2 020c 	sub.w	r2, r2, ip
 8004370:	42bc      	cmp	r4, r7
 8004372:	bf88      	it	hi
 8004374:	2200      	movhi	r2, #0
 8004376:	4413      	add	r3, r2
 8004378:	1a18      	subs	r0, r3, r0
 800437a:	b003      	add	sp, #12
 800437c:	bdf0      	pop	{r4, r5, r6, r7, pc}
 800437e:	f812 5b01 	ldrb.w	r5, [r2], #1
 8004382:	f801 5f01 	strb.w	r5, [r1, #1]!
 8004386:	e7ed      	b.n	8004364 <__exponent+0x4c>
 8004388:	2330      	movs	r3, #48	; 0x30
 800438a:	3130      	adds	r1, #48	; 0x30
 800438c:	7083      	strb	r3, [r0, #2]
 800438e:	70c1      	strb	r1, [r0, #3]
 8004390:	1d03      	adds	r3, r0, #4
 8004392:	e7f1      	b.n	8004378 <__exponent+0x60>

08004394 <_printf_float>:
 8004394:	e92d 4ff0 	stmdb	sp!, {r4, r5, r6, r7, r8, r9, sl, fp, lr}
 8004398:	ed2d 8b02 	vpush	{d8}
 800439c:	b08d      	sub	sp, #52	; 0x34
 800439e:	460c      	mov	r4, r1
 80043a0:	f8dd 8060 	ldr.w	r8, [sp, #96]	; 0x60
 80043a4:	4616      	mov	r6, r2
 80043a6:	461f      	mov	r7, r3
 80043a8:	4605      	mov	r5, r0
 80043aa:	f000 fe0d 	bl	8004fc8 <_localeconv_r>
 80043ae:	f8d0 a000 	ldr.w	sl, [r0]
 80043b2:	4650      	mov	r0, sl
 80043b4:	f7fb ff5c 	bl	8000270 <strlen>
 80043b8:	2300      	movs	r3, #0
 80043ba:	930a      	str	r3, [sp, #40]	; 0x28
 80043bc:	6823      	ldr	r3, [r4, #0]
 80043be:	9305      	str	r3, [sp, #20]
 80043c0:	f8d8 3000 	ldr.w	r3, [r8]
 80043c4:	f894 b018 	ldrb.w	fp, [r4, #24]
 80043c8:	3307      	adds	r3, #7
 80043ca:	f023 0307 	bic.w	r3, r3, #7
 80043ce:	f103 0208 	add.w	r2, r3, #8
 80043d2:	f8c8 2000 	str.w	r2, [r8]
 80043d6:	e9d3 8900 	ldrd	r8, r9, [r3]
 80043da:	f029 4300 	bic.w	r3, r9, #2147483648	; 0x80000000
 80043de:	9307      	str	r3, [sp, #28]
 80043e0:	f8cd 8018 	str.w	r8, [sp, #24]
 80043e4:	ee08 0a10 	vmov	s16, r0
 80043e8:	e9c4 8912 	strd	r8, r9, [r4, #72]	; 0x48
 80043ec:	e9dd 0106 	ldrd	r0, r1, [sp, #24]
 80043f0:	4b9e      	ldr	r3, [pc, #632]	; (800466c <_printf_float+0x2d8>)
 80043f2:	f04f 32ff 	mov.w	r2, #4294967295	; 0xffffffff
 80043f6:	f7fc fb99 	bl	8000b2c <__aeabi_dcmpun>
 80043fa:	bb88      	cbnz	r0, 8004460 <_printf_float+0xcc>
 80043fc:	e9dd 0106 	ldrd	r0, r1, [sp, #24]
 8004400:	4b9a      	ldr	r3, [pc, #616]	; (800466c <_printf_float+0x2d8>)
 8004402:	f04f 32ff 	mov.w	r2, #4294967295	; 0xffffffff
 8004406:	f7fc fb73 	bl	8000af0 <__aeabi_dcmple>
 800440a:	bb48      	cbnz	r0, 8004460 <_printf_float+0xcc>
 800440c:	2200      	movs	r2, #0
 800440e:	2300      	movs	r3, #0
 8004410:	4640      	mov	r0, r8
 8004412:	4649      	mov	r1, r9
 8004414:	f7fc fb62 	bl	8000adc <__aeabi_dcmplt>
 8004418:	b110      	cbz	r0, 8004420 <_printf_float+0x8c>
 800441a:	232d      	movs	r3, #45	; 0x2d
 800441c:	f884 3043 	strb.w	r3, [r4, #67]	; 0x43
 8004420:	4a93      	ldr	r2, [pc, #588]	; (8004670 <_printf_float+0x2dc>)
 8004422:	4b94      	ldr	r3, [pc, #592]	; (8004674 <_printf_float+0x2e0>)
 8004424:	f1bb 0f47 	cmp.w	fp, #71	; 0x47
 8004428:	bf94      	ite	ls
 800442a:	4690      	movls	r8, r2
 800442c:	4698      	movhi	r8, r3
 800442e:	2303      	movs	r3, #3
 8004430:	6123      	str	r3, [r4, #16]
 8004432:	9b05      	ldr	r3, [sp, #20]
 8004434:	f023 0304 	bic.w	r3, r3, #4
 8004438:	6023      	str	r3, [r4, #0]
 800443a:	f04f 0900 	mov.w	r9, #0
 800443e:	9700      	str	r7, [sp, #0]
 8004440:	4633      	mov	r3, r6
 8004442:	aa0b      	add	r2, sp, #44	; 0x2c
 8004444:	4621      	mov	r1, r4
 8004446:	4628      	mov	r0, r5
 8004448:	f000 f9da 	bl	8004800 <_printf_common>
 800444c:	3001      	adds	r0, #1
 800444e:	f040 8090 	bne.w	8004572 <_printf_float+0x1de>
 8004452:	f04f 30ff 	mov.w	r0, #4294967295	; 0xffffffff
 8004456:	b00d      	add	sp, #52	; 0x34
 8004458:	ecbd 8b02 	vpop	{d8}
 800445c:	e8bd 8ff0 	ldmia.w	sp!, {r4, r5, r6, r7, r8, r9, sl, fp, pc}
 8004460:	4642      	mov	r2, r8
 8004462:	464b      	mov	r3, r9
 8004464:	4640      	mov	r0, r8
 8004466:	4649      	mov	r1, r9
 8004468:	f7fc fb60 	bl	8000b2c <__aeabi_dcmpun>
 800446c:	b140      	cbz	r0, 8004480 <_printf_float+0xec>
 800446e:	464b      	mov	r3, r9
 8004470:	2b00      	cmp	r3, #0
 8004472:	bfbc      	itt	lt
 8004474:	232d      	movlt	r3, #45	; 0x2d
 8004476:	f884 3043 	strblt.w	r3, [r4, #67]	; 0x43
 800447a:	4a7f      	ldr	r2, [pc, #508]	; (8004678 <_printf_float+0x2e4>)
 800447c:	4b7f      	ldr	r3, [pc, #508]	; (800467c <_printf_float+0x2e8>)
 800447e:	e7d1      	b.n	8004424 <_printf_float+0x90>
 8004480:	6863      	ldr	r3, [r4, #4]
 8004482:	f00b 02df 	and.w	r2, fp, #223	; 0xdf
 8004486:	9206      	str	r2, [sp, #24]
 8004488:	1c5a      	adds	r2, r3, #1
 800448a:	d13f      	bne.n	800450c <_printf_float+0x178>
 800448c:	2306      	movs	r3, #6
 800448e:	6063      	str	r3, [r4, #4]
 8004490:	9b05      	ldr	r3, [sp, #20]
 8004492:	6861      	ldr	r1, [r4, #4]
 8004494:	f443 6280 	orr.w	r2, r3, #1024	; 0x400
 8004498:	2300      	movs	r3, #0
 800449a:	9303      	str	r3, [sp, #12]
 800449c:	ab0a      	add	r3, sp, #40	; 0x28
 800449e:	e9cd b301 	strd	fp, r3, [sp, #4]
 80044a2:	ab09      	add	r3, sp, #36	; 0x24
 80044a4:	ec49 8b10 	vmov	d0, r8, r9
 80044a8:	9300      	str	r3, [sp, #0]
 80044aa:	6022      	str	r2, [r4, #0]
 80044ac:	f10d 0323 	add.w	r3, sp, #35	; 0x23
 80044b0:	4628      	mov	r0, r5
 80044b2:	f7ff fecf 	bl	8004254 <__cvt>
 80044b6:	9b06      	ldr	r3, [sp, #24]
 80044b8:	9909      	ldr	r1, [sp, #36]	; 0x24
 80044ba:	2b47      	cmp	r3, #71	; 0x47
 80044bc:	4680      	mov	r8, r0
 80044be:	d108      	bne.n	80044d2 <_printf_float+0x13e>
 80044c0:	1cc8      	adds	r0, r1, #3
 80044c2:	db02      	blt.n	80044ca <_printf_float+0x136>
 80044c4:	6863      	ldr	r3, [r4, #4]
 80044c6:	4299      	cmp	r1, r3
 80044c8:	dd41      	ble.n	800454e <_printf_float+0x1ba>
 80044ca:	f1ab 0302 	sub.w	r3, fp, #2
 80044ce:	fa5f fb83 	uxtb.w	fp, r3
 80044d2:	f1bb 0f65 	cmp.w	fp, #101	; 0x65
 80044d6:	d820      	bhi.n	800451a <_printf_float+0x186>
 80044d8:	3901      	subs	r1, #1
 80044da:	465a      	mov	r2, fp
 80044dc:	f104 0050 	add.w	r0, r4, #80	; 0x50
 80044e0:	9109      	str	r1, [sp, #36]	; 0x24
 80044e2:	f7ff ff19 	bl	8004318 <__exponent>
 80044e6:	9a0a      	ldr	r2, [sp, #40]	; 0x28
 80044e8:	1813      	adds	r3, r2, r0
 80044ea:	2a01      	cmp	r2, #1
 80044ec:	4681      	mov	r9, r0
 80044ee:	6123      	str	r3, [r4, #16]
 80044f0:	dc02      	bgt.n	80044f8 <_printf_float+0x164>
 80044f2:	6822      	ldr	r2, [r4, #0]
 80044f4:	07d2      	lsls	r2, r2, #31
 80044f6:	d501      	bpl.n	80044fc <_printf_float+0x168>
 80044f8:	3301      	adds	r3, #1
 80044fa:	6123      	str	r3, [r4, #16]
 80044fc:	f89d 3023 	ldrb.w	r3, [sp, #35]	; 0x23
 8004500:	2b00      	cmp	r3, #0
 8004502:	d09c      	beq.n	800443e <_printf_float+0xaa>
 8004504:	232d      	movs	r3, #45	; 0x2d
 8004506:	f884 3043 	strb.w	r3, [r4, #67]	; 0x43
 800450a:	e798      	b.n	800443e <_printf_float+0xaa>
 800450c:	9a06      	ldr	r2, [sp, #24]
 800450e:	2a47      	cmp	r2, #71	; 0x47
 8004510:	d1be      	bne.n	8004490 <_printf_float+0xfc>
 8004512:	2b00      	cmp	r3, #0
 8004514:	d1bc      	bne.n	8004490 <_printf_float+0xfc>
 8004516:	2301      	movs	r3, #1
 8004518:	e7b9      	b.n	800448e <_printf_float+0xfa>
 800451a:	f1bb 0f66 	cmp.w	fp, #102	; 0x66
 800451e:	d118      	bne.n	8004552 <_printf_float+0x1be>
 8004520:	2900      	cmp	r1, #0
 8004522:	6863      	ldr	r3, [r4, #4]
 8004524:	dd0b      	ble.n	800453e <_printf_float+0x1aa>
 8004526:	6121      	str	r1, [r4, #16]
 8004528:	b913      	cbnz	r3, 8004530 <_printf_float+0x19c>
 800452a:	6822      	ldr	r2, [r4, #0]
 800452c:	07d0      	lsls	r0, r2, #31
 800452e:	d502      	bpl.n	8004536 <_printf_float+0x1a2>
 8004530:	3301      	adds	r3, #1
 8004532:	440b      	add	r3, r1
 8004534:	6123      	str	r3, [r4, #16]
 8004536:	65a1      	str	r1, [r4, #88]	; 0x58
 8004538:	f04f 0900 	mov.w	r9, #0
 800453c:	e7de      	b.n	80044fc <_printf_float+0x168>
 800453e:	b913      	cbnz	r3, 8004546 <_printf_float+0x1b2>
 8004540:	6822      	ldr	r2, [r4, #0]
 8004542:	07d2      	lsls	r2, r2, #31
 8004544:	d501      	bpl.n	800454a <_printf_float+0x1b6>
 8004546:	3302      	adds	r3, #2
 8004548:	e7f4      	b.n	8004534 <_printf_float+0x1a0>
 800454a:	2301      	movs	r3, #1
 800454c:	e7f2      	b.n	8004534 <_printf_float+0x1a0>
 800454e:	f04f 0b67 	mov.w	fp, #103	; 0x67
 8004552:	9b0a      	ldr	r3, [sp, #40]	; 0x28
 8004554:	4299      	cmp	r1, r3
 8004556:	db05      	blt.n	8004564 <_printf_float+0x1d0>
 8004558:	6823      	ldr	r3, [r4, #0]
 800455a:	6121      	str	r1, [r4, #16]
 800455c:	07d8      	lsls	r0, r3, #31
 800455e:	d5ea      	bpl.n	8004536 <_printf_float+0x1a2>
 8004560:	1c4b      	adds	r3, r1, #1
 8004562:	e7e7      	b.n	8004534 <_printf_float+0x1a0>
 8004564:	2900      	cmp	r1, #0
 8004566:	bfd4      	ite	le
 8004568:	f1c1 0202 	rsble	r2, r1, #2
 800456c:	2201      	movgt	r2, #1
 800456e:	4413      	add	r3, r2
 8004570:	e7e0      	b.n	8004534 <_printf_float+0x1a0>
 8004572:	6823      	ldr	r3, [r4, #0]
 8004574:	055a      	lsls	r2, r3, #21
 8004576:	d407      	bmi.n	8004588 <_printf_float+0x1f4>
 8004578:	6923      	ldr	r3, [r4, #16]
 800457a:	4642      	mov	r2, r8
 800457c:	4631      	mov	r1, r6
 800457e:	4628      	mov	r0, r5
 8004580:	47b8      	blx	r7
 8004582:	3001      	adds	r0, #1
 8004584:	d12c      	bne.n	80045e0 <_printf_float+0x24c>
 8004586:	e764      	b.n	8004452 <_printf_float+0xbe>
 8004588:	f1bb 0f65 	cmp.w	fp, #101	; 0x65
 800458c:	f240 80e0 	bls.w	8004750 <_printf_float+0x3bc>
 8004590:	e9d4 0112 	ldrd	r0, r1, [r4, #72]	; 0x48
 8004594:	2200      	movs	r2, #0
 8004596:	2300      	movs	r3, #0
 8004598:	f7fc fa96 	bl	8000ac8 <__aeabi_dcmpeq>
 800459c:	2800      	cmp	r0, #0
 800459e:	d034      	beq.n	800460a <_printf_float+0x276>
 80045a0:	4a37      	ldr	r2, [pc, #220]	; (8004680 <_printf_float+0x2ec>)
 80045a2:	2301      	movs	r3, #1
 80045a4:	4631      	mov	r1, r6
 80045a6:	4628      	mov	r0, r5
 80045a8:	47b8      	blx	r7
 80045aa:	3001      	adds	r0, #1
 80045ac:	f43f af51 	beq.w	8004452 <_printf_float+0xbe>
 80045b0:	e9dd 2309 	ldrd	r2, r3, [sp, #36]	; 0x24
 80045b4:	429a      	cmp	r2, r3
 80045b6:	db02      	blt.n	80045be <_printf_float+0x22a>
 80045b8:	6823      	ldr	r3, [r4, #0]
 80045ba:	07d8      	lsls	r0, r3, #31
 80045bc:	d510      	bpl.n	80045e0 <_printf_float+0x24c>
 80045be:	ee18 3a10 	vmov	r3, s16
 80045c2:	4652      	mov	r2, sl
 80045c4:	4631      	mov	r1, r6
 80045c6:	4628      	mov	r0, r5
 80045c8:	47b8      	blx	r7
 80045ca:	3001      	adds	r0, #1
 80045cc:	f43f af41 	beq.w	8004452 <_printf_float+0xbe>
 80045d0:	f04f 0800 	mov.w	r8, #0
 80045d4:	f104 091a 	add.w	r9, r4, #26
 80045d8:	9b0a      	ldr	r3, [sp, #40]	; 0x28
 80045da:	3b01      	subs	r3, #1
 80045dc:	4543      	cmp	r3, r8
 80045de:	dc09      	bgt.n	80045f4 <_printf_float+0x260>
 80045e0:	6823      	ldr	r3, [r4, #0]
 80045e2:	079b      	lsls	r3, r3, #30
 80045e4:	f100 8107 	bmi.w	80047f6 <_printf_float+0x462>
 80045e8:	68e0      	ldr	r0, [r4, #12]
 80045ea:	9b0b      	ldr	r3, [sp, #44]	; 0x2c
 80045ec:	4298      	cmp	r0, r3
 80045ee:	bfb8      	it	lt
 80045f0:	4618      	movlt	r0, r3
 80045f2:	e730      	b.n	8004456 <_printf_float+0xc2>
 80045f4:	2301      	movs	r3, #1
 80045f6:	464a      	mov	r2, r9
 80045f8:	4631      	mov	r1, r6
 80045fa:	4628      	mov	r0, r5
 80045fc:	47b8      	blx	r7
 80045fe:	3001      	adds	r0, #1
 8004600:	f43f af27 	beq.w	8004452 <_printf_float+0xbe>
 8004604:	f108 0801 	add.w	r8, r8, #1
 8004608:	e7e6      	b.n	80045d8 <_printf_float+0x244>
 800460a:	9b09      	ldr	r3, [sp, #36]	; 0x24
 800460c:	2b00      	cmp	r3, #0
 800460e:	dc39      	bgt.n	8004684 <_printf_float+0x2f0>
 8004610:	4a1b      	ldr	r2, [pc, #108]	; (8004680 <_printf_float+0x2ec>)
 8004612:	2301      	movs	r3, #1
 8004614:	4631      	mov	r1, r6
 8004616:	4628      	mov	r0, r5
 8004618:	47b8      	blx	r7
 800461a:	3001      	adds	r0, #1
 800461c:	f43f af19 	beq.w	8004452 <_printf_float+0xbe>
 8004620:	e9dd 3209 	ldrd	r3, r2, [sp, #36]	; 0x24
 8004624:	4313      	orrs	r3, r2
 8004626:	d102      	bne.n	800462e <_printf_float+0x29a>
 8004628:	6823      	ldr	r3, [r4, #0]
 800462a:	07d9      	lsls	r1, r3, #31
 800462c:	d5d8      	bpl.n	80045e0 <_printf_float+0x24c>
 800462e:	ee18 3a10 	vmov	r3, s16
 8004632:	4652      	mov	r2, sl
 8004634:	4631      	mov	r1, r6
 8004636:	4628      	mov	r0, r5
 8004638:	47b8      	blx	r7
 800463a:	3001      	adds	r0, #1
 800463c:	f43f af09 	beq.w	8004452 <_printf_float+0xbe>
 8004640:	f04f 0900 	mov.w	r9, #0
 8004644:	f104 0a1a 	add.w	sl, r4, #26
 8004648:	9b09      	ldr	r3, [sp, #36]	; 0x24
 800464a:	425b      	negs	r3, r3
 800464c:	454b      	cmp	r3, r9
 800464e:	dc01      	bgt.n	8004654 <_printf_float+0x2c0>
 8004650:	9b0a      	ldr	r3, [sp, #40]	; 0x28
 8004652:	e792      	b.n	800457a <_printf_float+0x1e6>
 8004654:	2301      	movs	r3, #1
 8004656:	4652      	mov	r2, sl
 8004658:	4631      	mov	r1, r6
 800465a:	4628      	mov	r0, r5
 800465c:	47b8      	blx	r7
 800465e:	3001      	adds	r0, #1
 8004660:	f43f aef7 	beq.w	8004452 <_printf_float+0xbe>
 8004664:	f109 0901 	add.w	r9, r9, #1
 8004668:	e7ee      	b.n	8004648 <_printf_float+0x2b4>
 800466a:	bf00      	nop
 800466c:	7fefffff 	.word	0x7fefffff
 8004670:	080073dc 	.word	0x080073dc
 8004674:	080073e0 	.word	0x080073e0
 8004678:	080073e4 	.word	0x080073e4
 800467c:	080073e8 	.word	0x080073e8
 8004680:	080073ec 	.word	0x080073ec
 8004684:	9a0a      	ldr	r2, [sp, #40]	; 0x28
 8004686:	6da3      	ldr	r3, [r4, #88]	; 0x58
 8004688:	429a      	cmp	r2, r3
 800468a:	bfa8      	it	ge
 800468c:	461a      	movge	r2, r3
 800468e:	2a00      	cmp	r2, #0
 8004690:	4691      	mov	r9, r2
 8004692:	dc37      	bgt.n	8004704 <_printf_float+0x370>
 8004694:	f04f 0b00 	mov.w	fp, #0
 8004698:	ea29 79e9 	bic.w	r9, r9, r9, asr #31
 800469c:	f104 021a 	add.w	r2, r4, #26
 80046a0:	6da3      	ldr	r3, [r4, #88]	; 0x58
 80046a2:	9305      	str	r3, [sp, #20]
 80046a4:	eba3 0309 	sub.w	r3, r3, r9
 80046a8:	455b      	cmp	r3, fp
 80046aa:	dc33      	bgt.n	8004714 <_printf_float+0x380>
 80046ac:	e9dd 2309 	ldrd	r2, r3, [sp, #36]	; 0x24
 80046b0:	429a      	cmp	r2, r3
 80046b2:	db3b      	blt.n	800472c <_printf_float+0x398>
 80046b4:	6823      	ldr	r3, [r4, #0]
 80046b6:	07da      	lsls	r2, r3, #31
 80046b8:	d438      	bmi.n	800472c <_printf_float+0x398>
 80046ba:	e9dd 3209 	ldrd	r3, r2, [sp, #36]	; 0x24
 80046be:	eba2 0903 	sub.w	r9, r2, r3
 80046c2:	9b05      	ldr	r3, [sp, #20]
 80046c4:	1ad2      	subs	r2, r2, r3
 80046c6:	4591      	cmp	r9, r2
 80046c8:	bfa8      	it	ge
 80046ca:	4691      	movge	r9, r2
 80046cc:	f1b9 0f00 	cmp.w	r9, #0
 80046d0:	dc35      	bgt.n	800473e <_printf_float+0x3aa>
 80046d2:	f04f 0800 	mov.w	r8, #0
 80046d6:	ea29 79e9 	bic.w	r9, r9, r9, asr #31
 80046da:	f104 0a1a 	add.w	sl, r4, #26
 80046de:	e9dd 2309 	ldrd	r2, r3, [sp, #36]	; 0x24
 80046e2:	1a9b      	subs	r3, r3, r2
 80046e4:	eba3 0309 	sub.w	r3, r3, r9
 80046e8:	4543      	cmp	r3, r8
 80046ea:	f77f af79 	ble.w	80045e0 <_printf_float+0x24c>
 80046ee:	2301      	movs	r3, #1
 80046f0:	4652      	mov	r2, sl
 80046f2:	4631      	mov	r1, r6
 80046f4:	4628      	mov	r0, r5
 80046f6:	47b8      	blx	r7
 80046f8:	3001      	adds	r0, #1
 80046fa:	f43f aeaa 	beq.w	8004452 <_printf_float+0xbe>
 80046fe:	f108 0801 	add.w	r8, r8, #1
 8004702:	e7ec      	b.n	80046de <_printf_float+0x34a>
 8004704:	4613      	mov	r3, r2
 8004706:	4631      	mov	r1, r6
 8004708:	4642      	mov	r2, r8
 800470a:	4628      	mov	r0, r5
 800470c:	47b8      	blx	r7
 800470e:	3001      	adds	r0, #1
 8004710:	d1c0      	bne.n	8004694 <_printf_float+0x300>
 8004712:	e69e      	b.n	8004452 <_printf_float+0xbe>
 8004714:	2301      	movs	r3, #1
 8004716:	4631      	mov	r1, r6
 8004718:	4628      	mov	r0, r5
 800471a:	9205      	str	r2, [sp, #20]
 800471c:	47b8      	blx	r7
 800471e:	3001      	adds	r0, #1
 8004720:	f43f ae97 	beq.w	8004452 <_printf_float+0xbe>
 8004724:	9a05      	ldr	r2, [sp, #20]
 8004726:	f10b 0b01 	add.w	fp, fp, #1
 800472a:	e7b9      	b.n	80046a0 <_printf_float+0x30c>
 800472c:	ee18 3a10 	vmov	r3, s16
 8004730:	4652      	mov	r2, sl
 8004732:	4631      	mov	r1, r6
 8004734:	4628      	mov	r0, r5
 8004736:	47b8      	blx	r7
 8004738:	3001      	adds	r0, #1
 800473a:	d1be      	bne.n	80046ba <_printf_float+0x326>
 800473c:	e689      	b.n	8004452 <_printf_float+0xbe>
 800473e:	9a05      	ldr	r2, [sp, #20]
 8004740:	464b      	mov	r3, r9
 8004742:	4442      	add	r2, r8
 8004744:	4631      	mov	r1, r6
 8004746:	4628      	mov	r0, r5
 8004748:	47b8      	blx	r7
 800474a:	3001      	adds	r0, #1
 800474c:	d1c1      	bne.n	80046d2 <_printf_float+0x33e>
 800474e:	e680      	b.n	8004452 <_printf_float+0xbe>
 8004750:	9a0a      	ldr	r2, [sp, #40]	; 0x28
 8004752:	2a01      	cmp	r2, #1
 8004754:	dc01      	bgt.n	800475a <_printf_float+0x3c6>
 8004756:	07db      	lsls	r3, r3, #31
 8004758:	d53a      	bpl.n	80047d0 <_printf_float+0x43c>
 800475a:	2301      	movs	r3, #1
 800475c:	4642      	mov	r2, r8
 800475e:	4631      	mov	r1, r6
 8004760:	4628      	mov	r0, r5
 8004762:	47b8      	blx	r7
 8004764:	3001      	adds	r0, #1
 8004766:	f43f ae74 	beq.w	8004452 <_printf_float+0xbe>
 800476a:	ee18 3a10 	vmov	r3, s16
 800476e:	4652      	mov	r2, sl
 8004770:	4631      	mov	r1, r6
 8004772:	4628      	mov	r0, r5
 8004774:	47b8      	blx	r7
 8004776:	3001      	adds	r0, #1
 8004778:	f43f ae6b 	beq.w	8004452 <_printf_float+0xbe>
 800477c:	e9d4 0112 	ldrd	r0, r1, [r4, #72]	; 0x48
 8004780:	2200      	movs	r2, #0
 8004782:	2300      	movs	r3, #0
 8004784:	f8dd a028 	ldr.w	sl, [sp, #40]	; 0x28
 8004788:	f7fc f99e 	bl	8000ac8 <__aeabi_dcmpeq>
 800478c:	b9d8      	cbnz	r0, 80047c6 <_printf_float+0x432>
 800478e:	f10a 33ff 	add.w	r3, sl, #4294967295	; 0xffffffff
 8004792:	f108 0201 	add.w	r2, r8, #1
 8004796:	4631      	mov	r1, r6
 8004798:	4628      	mov	r0, r5
 800479a:	47b8      	blx	r7
 800479c:	3001      	adds	r0, #1
 800479e:	d10e      	bne.n	80047be <_printf_float+0x42a>
 80047a0:	e657      	b.n	8004452 <_printf_float+0xbe>
 80047a2:	2301      	movs	r3, #1
 80047a4:	4652      	mov	r2, sl
 80047a6:	4631      	mov	r1, r6
 80047a8:	4628      	mov	r0, r5
 80047aa:	47b8      	blx	r7
 80047ac:	3001      	adds	r0, #1
 80047ae:	f43f ae50 	beq.w	8004452 <_printf_float+0xbe>
 80047b2:	f108 0801 	add.w	r8, r8, #1
 80047b6:	9b0a      	ldr	r3, [sp, #40]	; 0x28
 80047b8:	3b01      	subs	r3, #1
 80047ba:	4543      	cmp	r3, r8
 80047bc:	dcf1      	bgt.n	80047a2 <_printf_float+0x40e>
 80047be:	464b      	mov	r3, r9
 80047c0:	f104 0250 	add.w	r2, r4, #80	; 0x50
 80047c4:	e6da      	b.n	800457c <_printf_float+0x1e8>
 80047c6:	f04f 0800 	mov.w	r8, #0
 80047ca:	f104 0a1a 	add.w	sl, r4, #26
 80047ce:	e7f2      	b.n	80047b6 <_printf_float+0x422>
 80047d0:	2301      	movs	r3, #1
 80047d2:	4642      	mov	r2, r8
 80047d4:	e7df      	b.n	8004796 <_printf_float+0x402>
 80047d6:	2301      	movs	r3, #1
 80047d8:	464a      	mov	r2, r9
 80047da:	4631      	mov	r1, r6
 80047dc:	4628      	mov	r0, r5
 80047de:	47b8      	blx	r7
 80047e0:	3001      	adds	r0, #1
 80047e2:	f43f ae36 	beq.w	8004452 <_printf_float+0xbe>
 80047e6:	f108 0801 	add.w	r8, r8, #1
 80047ea:	68e3      	ldr	r3, [r4, #12]
 80047ec:	990b      	ldr	r1, [sp, #44]	; 0x2c
 80047ee:	1a5b      	subs	r3, r3, r1
 80047f0:	4543      	cmp	r3, r8
 80047f2:	dcf0      	bgt.n	80047d6 <_printf_float+0x442>
 80047f4:	e6f8      	b.n	80045e8 <_printf_float+0x254>
 80047f6:	f04f 0800 	mov.w	r8, #0
 80047fa:	f104 0919 	add.w	r9, r4, #25
 80047fe:	e7f4      	b.n	80047ea <_printf_float+0x456>

08004800 <_printf_common>:
 8004800:	e92d 47f0 	stmdb	sp!, {r4, r5, r6, r7, r8, r9, sl, lr}
 8004804:	4616      	mov	r6, r2
 8004806:	4699      	mov	r9, r3
 8004808:	688a      	ldr	r2, [r1, #8]
 800480a:	690b      	ldr	r3, [r1, #16]
 800480c:	f8dd 8020 	ldr.w	r8, [sp, #32]
 8004810:	4293      	cmp	r3, r2
 8004812:	bfb8      	it	lt
 8004814:	4613      	movlt	r3, r2
 8004816:	6033      	str	r3, [r6, #0]
 8004818:	f891 2043 	ldrb.w	r2, [r1, #67]	; 0x43
 800481c:	4607      	mov	r7, r0
 800481e:	460c      	mov	r4, r1
 8004820:	b10a      	cbz	r2, 8004826 <_printf_common+0x26>
 8004822:	3301      	adds	r3, #1
 8004824:	6033      	str	r3, [r6, #0]
 8004826:	6823      	ldr	r3, [r4, #0]
 8004828:	0699      	lsls	r1, r3, #26
 800482a:	bf42      	ittt	mi
 800482c:	6833      	ldrmi	r3, [r6, #0]
 800482e:	3302      	addmi	r3, #2
 8004830:	6033      	strmi	r3, [r6, #0]
 8004832:	6825      	ldr	r5, [r4, #0]
 8004834:	f015 0506 	ands.w	r5, r5, #6
 8004838:	d106      	bne.n	8004848 <_printf_common+0x48>
 800483a:	f104 0a19 	add.w	sl, r4, #25
 800483e:	68e3      	ldr	r3, [r4, #12]
 8004840:	6832      	ldr	r2, [r6, #0]
 8004842:	1a9b      	subs	r3, r3, r2
 8004844:	42ab      	cmp	r3, r5
 8004846:	dc26      	bgt.n	8004896 <_printf_common+0x96>
 8004848:	f894 2043 	ldrb.w	r2, [r4, #67]	; 0x43
 800484c:	1e13      	subs	r3, r2, #0
 800484e:	6822      	ldr	r2, [r4, #0]
 8004850:	bf18      	it	ne
 8004852:	2301      	movne	r3, #1
 8004854:	0692      	lsls	r2, r2, #26
 8004856:	d42b      	bmi.n	80048b0 <_printf_common+0xb0>
 8004858:	f104 0243 	add.w	r2, r4, #67	; 0x43
 800485c:	4649      	mov	r1, r9
 800485e:	4638      	mov	r0, r7
 8004860:	47c0      	blx	r8
 8004862:	3001      	adds	r0, #1
 8004864:	d01e      	beq.n	80048a4 <_printf_common+0xa4>
 8004866:	6823      	ldr	r3, [r4, #0]
 8004868:	6922      	ldr	r2, [r4, #16]
 800486a:	f003 0306 	and.w	r3, r3, #6
 800486e:	2b04      	cmp	r3, #4
 8004870:	bf02      	ittt	eq
 8004872:	68e5      	ldreq	r5, [r4, #12]
 8004874:	6833      	ldreq	r3, [r6, #0]
 8004876:	1aed      	subeq	r5, r5, r3
 8004878:	68a3      	ldr	r3, [r4, #8]
 800487a:	bf0c      	ite	eq
 800487c:	ea25 75e5 	biceq.w	r5, r5, r5, asr #31
 8004880:	2500      	movne	r5, #0
 8004882:	4293      	cmp	r3, r2
 8004884:	bfc4      	itt	gt
 8004886:	1a9b      	subgt	r3, r3, r2
 8004888:	18ed      	addgt	r5, r5, r3
 800488a:	2600      	movs	r6, #0
 800488c:	341a      	adds	r4, #26
 800488e:	42b5      	cmp	r5, r6
 8004890:	d11a      	bne.n	80048c8 <_printf_common+0xc8>
 8004892:	2000      	movs	r0, #0
 8004894:	e008      	b.n	80048a8 <_printf_common+0xa8>
 8004896:	2301      	movs	r3, #1
 8004898:	4652      	mov	r2, sl
 800489a:	4649      	mov	r1, r9
 800489c:	4638      	mov	r0, r7
 800489e:	47c0      	blx	r8
 80048a0:	3001      	adds	r0, #1
 80048a2:	d103      	bne.n	80048ac <_printf_common+0xac>
 80048a4:	f04f 30ff 	mov.w	r0, #4294967295	; 0xffffffff
 80048a8:	e8bd 87f0 	ldmia.w	sp!, {r4, r5, r6, r7, r8, r9, sl, pc}
 80048ac:	3501      	adds	r5, #1
 80048ae:	e7c6      	b.n	800483e <_printf_common+0x3e>
 80048b0:	18e1      	adds	r1, r4, r3
 80048b2:	1c5a      	adds	r2, r3, #1
 80048b4:	2030      	movs	r0, #48	; 0x30
 80048b6:	f881 0043 	strb.w	r0, [r1, #67]	; 0x43
 80048ba:	4422      	add	r2, r4
 80048bc:	f894 1045 	ldrb.w	r1, [r4, #69]	; 0x45
 80048c0:	f882 1043 	strb.w	r1, [r2, #67]	; 0x43
 80048c4:	3302      	adds	r3, #2
 80048c6:	e7c7      	b.n	8004858 <_printf_common+0x58>
 80048c8:	2301      	movs	r3, #1
 80048ca:	4622      	mov	r2, r4
 80048cc:	4649      	mov	r1, r9
 80048ce:	4638      	mov	r0, r7
 80048d0:	47c0      	blx	r8
 80048d2:	3001      	adds	r0, #1
 80048d4:	d0e6      	beq.n	80048a4 <_printf_common+0xa4>
 80048d6:	3601      	adds	r6, #1
 80048d8:	e7d9      	b.n	800488e <_printf_common+0x8e>
	...

080048dc <_printf_i>:
 80048dc:	e92d 47ff 	stmdb	sp!, {r0, r1, r2, r3, r4, r5, r6, r7, r8, r9, sl, lr}
 80048e0:	7e0f      	ldrb	r7, [r1, #24]
 80048e2:	9d0c      	ldr	r5, [sp, #48]	; 0x30
 80048e4:	2f78      	cmp	r7, #120	; 0x78
 80048e6:	4691      	mov	r9, r2
 80048e8:	4680      	mov	r8, r0
 80048ea:	460c      	mov	r4, r1
 80048ec:	469a      	mov	sl, r3
 80048ee:	f101 0243 	add.w	r2, r1, #67	; 0x43
 80048f2:	d807      	bhi.n	8004904 <_printf_i+0x28>
 80048f4:	2f62      	cmp	r7, #98	; 0x62
 80048f6:	d80a      	bhi.n	800490e <_printf_i+0x32>
 80048f8:	2f00      	cmp	r7, #0
 80048fa:	f000 80d4 	beq.w	8004aa6 <_printf_i+0x1ca>
 80048fe:	2f58      	cmp	r7, #88	; 0x58
 8004900:	f000 80c0 	beq.w	8004a84 <_printf_i+0x1a8>
 8004904:	f104 0542 	add.w	r5, r4, #66	; 0x42
 8004908:	f884 7042 	strb.w	r7, [r4, #66]	; 0x42
 800490c:	e03a      	b.n	8004984 <_printf_i+0xa8>
 800490e:	f1a7 0363 	sub.w	r3, r7, #99	; 0x63
 8004912:	2b15      	cmp	r3, #21
 8004914:	d8f6      	bhi.n	8004904 <_printf_i+0x28>
 8004916:	a101      	add	r1, pc, #4	; (adr r1, 800491c <_printf_i+0x40>)
 8004918:	f851 f023 	ldr.w	pc, [r1, r3, lsl #2]
 800491c:	08004975 	.word	0x08004975
 8004920:	08004989 	.word	0x08004989
 8004924:	08004905 	.word	0x08004905
 8004928:	08004905 	.word	0x08004905
 800492c:	08004905 	.word	0x08004905
 8004930:	08004905 	.word	0x08004905
 8004934:	08004989 	.word	0x08004989
 8004938:	08004905 	.word	0x08004905
 800493c:	08004905 	.word	0x08004905
 8004940:	08004905 	.word	0x08004905
 8004944:	08004905 	.word	0x08004905
 8004948:	08004a8d 	.word	0x08004a8d
 800494c:	080049b5 	.word	0x080049b5
 8004950:	08004a47 	.word	0x08004a47
 8004954:	08004905 	.word	0x08004905
 8004958:	08004905 	.word	0x08004905
 800495c:	08004aaf 	.word	0x08004aaf
 8004960:	08004905 	.word	0x08004905
 8004964:	080049b5 	.word	0x080049b5
 8004968:	08004905 	.word	0x08004905
 800496c:	08004905 	.word	0x08004905
 8004970:	08004a4f 	.word	0x08004a4f
 8004974:	682b      	ldr	r3, [r5, #0]
 8004976:	1d1a      	adds	r2, r3, #4
 8004978:	681b      	ldr	r3, [r3, #0]
 800497a:	602a      	str	r2, [r5, #0]
 800497c:	f104 0542 	add.w	r5, r4, #66	; 0x42
 8004980:	f884 3042 	strb.w	r3, [r4, #66]	; 0x42
 8004984:	2301      	movs	r3, #1
 8004986:	e09f      	b.n	8004ac8 <_printf_i+0x1ec>
 8004988:	6820      	ldr	r0, [r4, #0]
 800498a:	682b      	ldr	r3, [r5, #0]
 800498c:	0607      	lsls	r7, r0, #24
 800498e:	f103 0104 	add.w	r1, r3, #4
 8004992:	6029      	str	r1, [r5, #0]
 8004994:	d501      	bpl.n	800499a <_printf_i+0xbe>
 8004996:	681e      	ldr	r6, [r3, #0]
 8004998:	e003      	b.n	80049a2 <_printf_i+0xc6>
 800499a:	0646      	lsls	r6, r0, #25
 800499c:	d5fb      	bpl.n	8004996 <_printf_i+0xba>
 800499e:	f9b3 6000 	ldrsh.w	r6, [r3]
 80049a2:	2e00      	cmp	r6, #0
 80049a4:	da03      	bge.n	80049ae <_printf_i+0xd2>
 80049a6:	232d      	movs	r3, #45	; 0x2d
 80049a8:	4276      	negs	r6, r6
 80049aa:	f884 3043 	strb.w	r3, [r4, #67]	; 0x43
 80049ae:	485a      	ldr	r0, [pc, #360]	; (8004b18 <_printf_i+0x23c>)
 80049b0:	230a      	movs	r3, #10
 80049b2:	e012      	b.n	80049da <_printf_i+0xfe>
 80049b4:	682b      	ldr	r3, [r5, #0]
 80049b6:	6820      	ldr	r0, [r4, #0]
 80049b8:	1d19      	adds	r1, r3, #4
 80049ba:	6029      	str	r1, [r5, #0]
 80049bc:	0605      	lsls	r5, r0, #24
 80049be:	d501      	bpl.n	80049c4 <_printf_i+0xe8>
 80049c0:	681e      	ldr	r6, [r3, #0]
 80049c2:	e002      	b.n	80049ca <_printf_i+0xee>
 80049c4:	0641      	lsls	r1, r0, #25
 80049c6:	d5fb      	bpl.n	80049c0 <_printf_i+0xe4>
 80049c8:	881e      	ldrh	r6, [r3, #0]
 80049ca:	4853      	ldr	r0, [pc, #332]	; (8004b18 <_printf_i+0x23c>)
 80049cc:	2f6f      	cmp	r7, #111	; 0x6f
 80049ce:	bf0c      	ite	eq
 80049d0:	2308      	moveq	r3, #8
 80049d2:	230a      	movne	r3, #10
 80049d4:	2100      	movs	r1, #0
 80049d6:	f884 1043 	strb.w	r1, [r4, #67]	; 0x43
 80049da:	6865      	ldr	r5, [r4, #4]
 80049dc:	60a5      	str	r5, [r4, #8]
 80049de:	2d00      	cmp	r5, #0
 80049e0:	bfa2      	ittt	ge
 80049e2:	6821      	ldrge	r1, [r4, #0]
 80049e4:	f021 0104 	bicge.w	r1, r1, #4
 80049e8:	6021      	strge	r1, [r4, #0]
 80049ea:	b90e      	cbnz	r6, 80049f0 <_printf_i+0x114>
 80049ec:	2d00      	cmp	r5, #0
 80049ee:	d04b      	beq.n	8004a88 <_printf_i+0x1ac>
 80049f0:	4615      	mov	r5, r2
 80049f2:	fbb6 f1f3 	udiv	r1, r6, r3
 80049f6:	fb03 6711 	mls	r7, r3, r1, r6
 80049fa:	5dc7      	ldrb	r7, [r0, r7]
 80049fc:	f805 7d01 	strb.w	r7, [r5, #-1]!
 8004a00:	4637      	mov	r7, r6
 8004a02:	42bb      	cmp	r3, r7
 8004a04:	460e      	mov	r6, r1
 8004a06:	d9f4      	bls.n	80049f2 <_printf_i+0x116>
 8004a08:	2b08      	cmp	r3, #8
 8004a0a:	d10b      	bne.n	8004a24 <_printf_i+0x148>
 8004a0c:	6823      	ldr	r3, [r4, #0]
 8004a0e:	07de      	lsls	r6, r3, #31
 8004a10:	d508      	bpl.n	8004a24 <_printf_i+0x148>
 8004a12:	6923      	ldr	r3, [r4, #16]
 8004a14:	6861      	ldr	r1, [r4, #4]
 8004a16:	4299      	cmp	r1, r3
 8004a18:	bfde      	ittt	le
 8004a1a:	2330      	movle	r3, #48	; 0x30
 8004a1c:	f805 3c01 	strble.w	r3, [r5, #-1]
 8004a20:	f105 35ff 	addle.w	r5, r5, #4294967295	; 0xffffffff
 8004a24:	1b52      	subs	r2, r2, r5
 8004a26:	6122      	str	r2, [r4, #16]
 8004a28:	f8cd a000 	str.w	sl, [sp]
 8004a2c:	464b      	mov	r3, r9
 8004a2e:	aa03      	add	r2, sp, #12
 8004a30:	4621      	mov	r1, r4
 8004a32:	4640      	mov	r0, r8
 8004a34:	f7ff fee4 	bl	8004800 <_printf_common>
 8004a38:	3001      	adds	r0, #1
 8004a3a:	d14a      	bne.n	8004ad2 <_printf_i+0x1f6>
 8004a3c:	f04f 30ff 	mov.w	r0, #4294967295	; 0xffffffff
 8004a40:	b004      	add	sp, #16
 8004a42:	e8bd 87f0 	ldmia.w	sp!, {r4, r5, r6, r7, r8, r9, sl, pc}
 8004a46:	6823      	ldr	r3, [r4, #0]
 8004a48:	f043 0320 	orr.w	r3, r3, #32
 8004a4c:	6023      	str	r3, [r4, #0]
 8004a4e:	4833      	ldr	r0, [pc, #204]	; (8004b1c <_printf_i+0x240>)
 8004a50:	2778      	movs	r7, #120	; 0x78
 8004a52:	f884 7045 	strb.w	r7, [r4, #69]	; 0x45
 8004a56:	6823      	ldr	r3, [r4, #0]
 8004a58:	6829      	ldr	r1, [r5, #0]
 8004a5a:	061f      	lsls	r7, r3, #24
 8004a5c:	f851 6b04 	ldr.w	r6, [r1], #4
 8004a60:	d402      	bmi.n	8004a68 <_printf_i+0x18c>
 8004a62:	065f      	lsls	r7, r3, #25
 8004a64:	bf48      	it	mi
 8004a66:	b2b6      	uxthmi	r6, r6
 8004a68:	07df      	lsls	r7, r3, #31
 8004a6a:	bf48      	it	mi
 8004a6c:	f043 0320 	orrmi.w	r3, r3, #32
 8004a70:	6029      	str	r1, [r5, #0]
 8004a72:	bf48      	it	mi
 8004a74:	6023      	strmi	r3, [r4, #0]
 8004a76:	b91e      	cbnz	r6, 8004a80 <_printf_i+0x1a4>
 8004a78:	6823      	ldr	r3, [r4, #0]
 8004a7a:	f023 0320 	bic.w	r3, r3, #32
 8004a7e:	6023      	str	r3, [r4, #0]
 8004a80:	2310      	movs	r3, #16
 8004a82:	e7a7      	b.n	80049d4 <_printf_i+0xf8>
 8004a84:	4824      	ldr	r0, [pc, #144]	; (8004b18 <_printf_i+0x23c>)
 8004a86:	e7e4      	b.n	8004a52 <_printf_i+0x176>
 8004a88:	4615      	mov	r5, r2
 8004a8a:	e7bd      	b.n	8004a08 <_printf_i+0x12c>
 8004a8c:	682b      	ldr	r3, [r5, #0]
 8004a8e:	6826      	ldr	r6, [r4, #0]
 8004a90:	6961      	ldr	r1, [r4, #20]
 8004a92:	1d18      	adds	r0, r3, #4
 8004a94:	6028      	str	r0, [r5, #0]
 8004a96:	0635      	lsls	r5, r6, #24
 8004a98:	681b      	ldr	r3, [r3, #0]
 8004a9a:	d501      	bpl.n	8004aa0 <_printf_i+0x1c4>
 8004a9c:	6019      	str	r1, [r3, #0]
 8004a9e:	e002      	b.n	8004aa6 <_printf_i+0x1ca>
 8004aa0:	0670      	lsls	r0, r6, #25
 8004aa2:	d5fb      	bpl.n	8004a9c <_printf_i+0x1c0>
 8004aa4:	8019      	strh	r1, [r3, #0]
 8004aa6:	2300      	movs	r3, #0
 8004aa8:	6123      	str	r3, [r4, #16]
 8004aaa:	4615      	mov	r5, r2
 8004aac:	e7bc      	b.n	8004a28 <_printf_i+0x14c>
 8004aae:	682b      	ldr	r3, [r5, #0]
 8004ab0:	1d1a      	adds	r2, r3, #4
 8004ab2:	602a      	str	r2, [r5, #0]
 8004ab4:	681d      	ldr	r5, [r3, #0]
 8004ab6:	6862      	ldr	r2, [r4, #4]
 8004ab8:	2100      	movs	r1, #0
 8004aba:	4628      	mov	r0, r5
 8004abc:	f7fb fb88 	bl	80001d0 <memchr>
 8004ac0:	b108      	cbz	r0, 8004ac6 <_printf_i+0x1ea>
 8004ac2:	1b40      	subs	r0, r0, r5
 8004ac4:	6060      	str	r0, [r4, #4]
 8004ac6:	6863      	ldr	r3, [r4, #4]
 8004ac8:	6123      	str	r3, [r4, #16]
 8004aca:	2300      	movs	r3, #0
 8004acc:	f884 3043 	strb.w	r3, [r4, #67]	; 0x43
 8004ad0:	e7aa      	b.n	8004a28 <_printf_i+0x14c>
 8004ad2:	6923      	ldr	r3, [r4, #16]
 8004ad4:	462a      	mov	r2, r5
 8004ad6:	4649      	mov	r1, r9
 8004ad8:	4640      	mov	r0, r8
 8004ada:	47d0      	blx	sl
 8004adc:	3001      	adds	r0, #1
 8004ade:	d0ad      	beq.n	8004a3c <_printf_i+0x160>
 8004ae0:	6823      	ldr	r3, [r4, #0]
 8004ae2:	079b      	lsls	r3, r3, #30
 8004ae4:	d413      	bmi.n	8004b0e <_printf_i+0x232>
 8004ae6:	68e0      	ldr	r0, [r4, #12]
 8004ae8:	9b03      	ldr	r3, [sp, #12]
 8004aea:	4298      	cmp	r0, r3
 8004aec:	bfb8      	it	lt
 8004aee:	4618      	movlt	r0, r3
 8004af0:	e7a6      	b.n	8004a40 <_printf_i+0x164>
 8004af2:	2301      	movs	r3, #1
 8004af4:	4632      	mov	r2, r6
 8004af6:	4649      	mov	r1, r9
 8004af8:	4640      	mov	r0, r8
 8004afa:	47d0      	blx	sl
 8004afc:	3001      	adds	r0, #1
 8004afe:	d09d      	beq.n	8004a3c <_printf_i+0x160>
 8004b00:	3501      	adds	r5, #1
 8004b02:	68e3      	ldr	r3, [r4, #12]
 8004b04:	9903      	ldr	r1, [sp, #12]
 8004b06:	1a5b      	subs	r3, r3, r1
 8004b08:	42ab      	cmp	r3, r5
 8004b0a:	dcf2      	bgt.n	8004af2 <_printf_i+0x216>
 8004b0c:	e7eb      	b.n	8004ae6 <_printf_i+0x20a>
 8004b0e:	2500      	movs	r5, #0
 8004b10:	f104 0619 	add.w	r6, r4, #25
 8004b14:	e7f5      	b.n	8004b02 <_printf_i+0x226>
 8004b16:	bf00      	nop
 8004b18:	080073ee 	.word	0x080073ee
 8004b1c:	080073ff 	.word	0x080073ff

08004b20 <std>:
 8004b20:	2300      	movs	r3, #0
 8004b22:	b510      	push	{r4, lr}
 8004b24:	4604      	mov	r4, r0
 8004b26:	e9c0 3300 	strd	r3, r3, [r0]
 8004b2a:	e9c0 3304 	strd	r3, r3, [r0, #16]
 8004b2e:	6083      	str	r3, [r0, #8]
 8004b30:	8181      	strh	r1, [r0, #12]
 8004b32:	6643      	str	r3, [r0, #100]	; 0x64
 8004b34:	81c2      	strh	r2, [r0, #14]
 8004b36:	6183      	str	r3, [r0, #24]
 8004b38:	4619      	mov	r1, r3
 8004b3a:	2208      	movs	r2, #8
 8004b3c:	305c      	adds	r0, #92	; 0x5c
 8004b3e:	f000 fa2b 	bl	8004f98 <memset>
 8004b42:	4b0d      	ldr	r3, [pc, #52]	; (8004b78 <std+0x58>)
 8004b44:	6263      	str	r3, [r4, #36]	; 0x24
 8004b46:	4b0d      	ldr	r3, [pc, #52]	; (8004b7c <std+0x5c>)
 8004b48:	62a3      	str	r3, [r4, #40]	; 0x28
 8004b4a:	4b0d      	ldr	r3, [pc, #52]	; (8004b80 <std+0x60>)
 8004b4c:	62e3      	str	r3, [r4, #44]	; 0x2c
 8004b4e:	4b0d      	ldr	r3, [pc, #52]	; (8004b84 <std+0x64>)
 8004b50:	6323      	str	r3, [r4, #48]	; 0x30
 8004b52:	4b0d      	ldr	r3, [pc, #52]	; (8004b88 <std+0x68>)
 8004b54:	6224      	str	r4, [r4, #32]
 8004b56:	429c      	cmp	r4, r3
 8004b58:	d006      	beq.n	8004b68 <std+0x48>
 8004b5a:	f103 0268 	add.w	r2, r3, #104	; 0x68
 8004b5e:	4294      	cmp	r4, r2
 8004b60:	d002      	beq.n	8004b68 <std+0x48>
 8004b62:	33d0      	adds	r3, #208	; 0xd0
 8004b64:	429c      	cmp	r4, r3
 8004b66:	d105      	bne.n	8004b74 <std+0x54>
 8004b68:	f104 0058 	add.w	r0, r4, #88	; 0x58
 8004b6c:	e8bd 4010 	ldmia.w	sp!, {r4, lr}
 8004b70:	f000 ba9e 	b.w	80050b0 <__retarget_lock_init_recursive>
 8004b74:	bd10      	pop	{r4, pc}
 8004b76:	bf00      	nop
 8004b78:	08004de9 	.word	0x08004de9
 8004b7c:	08004e0b 	.word	0x08004e0b
 8004b80:	08004e43 	.word	0x08004e43
 8004b84:	08004e67 	.word	0x08004e67
 8004b88:	20000400 	.word	0x20000400

08004b8c <stdio_exit_handler>:
 8004b8c:	4a02      	ldr	r2, [pc, #8]	; (8004b98 <stdio_exit_handler+0xc>)
 8004b8e:	4903      	ldr	r1, [pc, #12]	; (8004b9c <stdio_exit_handler+0x10>)
 8004b90:	4803      	ldr	r0, [pc, #12]	; (8004ba0 <stdio_exit_handler+0x14>)
 8004b92:	f000 b869 	b.w	8004c68 <_fwalk_sglue>
 8004b96:	bf00      	nop
 8004b98:	2000000c 	.word	0x2000000c
 8004b9c:	08006cf9 	.word	0x08006cf9
 8004ba0:	20000018 	.word	0x20000018

08004ba4 <cleanup_stdio>:
 8004ba4:	6841      	ldr	r1, [r0, #4]
 8004ba6:	4b0c      	ldr	r3, [pc, #48]	; (8004bd8 <cleanup_stdio+0x34>)
 8004ba8:	4299      	cmp	r1, r3
 8004baa:	b510      	push	{r4, lr}
 8004bac:	4604      	mov	r4, r0
 8004bae:	d001      	beq.n	8004bb4 <cleanup_stdio+0x10>
 8004bb0:	f002 f8a2 	bl	8006cf8 <_fflush_r>
 8004bb4:	68a1      	ldr	r1, [r4, #8]
 8004bb6:	4b09      	ldr	r3, [pc, #36]	; (8004bdc <cleanup_stdio+0x38>)
 8004bb8:	4299      	cmp	r1, r3
 8004bba:	d002      	beq.n	8004bc2 <cleanup_stdio+0x1e>
 8004bbc:	4620      	mov	r0, r4
 8004bbe:	f002 f89b 	bl	8006cf8 <_fflush_r>
 8004bc2:	68e1      	ldr	r1, [r4, #12]
 8004bc4:	4b06      	ldr	r3, [pc, #24]	; (8004be0 <cleanup_stdio+0x3c>)
 8004bc6:	4299      	cmp	r1, r3
 8004bc8:	d004      	beq.n	8004bd4 <cleanup_stdio+0x30>
 8004bca:	4620      	mov	r0, r4
 8004bcc:	e8bd 4010 	ldmia.w	sp!, {r4, lr}
 8004bd0:	f002 b892 	b.w	8006cf8 <_fflush_r>
 8004bd4:	bd10      	pop	{r4, pc}
 8004bd6:	bf00      	nop
 8004bd8:	20000400 	.word	0x20000400
 8004bdc:	20000468 	.word	0x20000468
 8004be0:	200004d0 	.word	0x200004d0

08004be4 <global_stdio_init.part.0>:
 8004be4:	b510      	push	{r4, lr}
 8004be6:	4b0b      	ldr	r3, [pc, #44]	; (8004c14 <global_stdio_init.part.0+0x30>)
 8004be8:	4c0b      	ldr	r4, [pc, #44]	; (8004c18 <global_stdio_init.part.0+0x34>)
 8004bea:	4a0c      	ldr	r2, [pc, #48]	; (8004c1c <global_stdio_init.part.0+0x38>)
 8004bec:	601a      	str	r2, [r3, #0]
 8004bee:	4620      	mov	r0, r4
 8004bf0:	2200      	movs	r2, #0
 8004bf2:	2104      	movs	r1, #4
 8004bf4:	f7ff ff94 	bl	8004b20 <std>
 8004bf8:	f104 0068 	add.w	r0, r4, #104	; 0x68
 8004bfc:	2201      	movs	r2, #1
 8004bfe:	2109      	movs	r1, #9
 8004c00:	f7ff ff8e 	bl	8004b20 <std>
 8004c04:	f104 00d0 	add.w	r0, r4, #208	; 0xd0
 8004c08:	2202      	movs	r2, #2
 8004c0a:	e8bd 4010 	ldmia.w	sp!, {r4, lr}
 8004c0e:	2112      	movs	r1, #18
 8004c10:	f7ff bf86 	b.w	8004b20 <std>
 8004c14:	20000538 	.word	0x20000538
 8004c18:	20000400 	.word	0x20000400
 8004c1c:	08004b8d 	.word	0x08004b8d

08004c20 <__sfp_lock_acquire>:
 8004c20:	4801      	ldr	r0, [pc, #4]	; (8004c28 <__sfp_lock_acquire+0x8>)
 8004c22:	f000 ba46 	b.w	80050b2 <__retarget_lock_acquire_recursive>
 8004c26:	bf00      	nop
 8004c28:	20000541 	.word	0x20000541

08004c2c <__sfp_lock_release>:
 8004c2c:	4801      	ldr	r0, [pc, #4]	; (8004c34 <__sfp_lock_release+0x8>)
 8004c2e:	f000 ba41 	b.w	80050b4 <__retarget_lock_release_recursive>
 8004c32:	bf00      	nop
 8004c34:	20000541 	.word	0x20000541

08004c38 <__sinit>:
 8004c38:	b510      	push	{r4, lr}
 8004c3a:	4604      	mov	r4, r0
 8004c3c:	f7ff fff0 	bl	8004c20 <__sfp_lock_acquire>
 8004c40:	6a23      	ldr	r3, [r4, #32]
 8004c42:	b11b      	cbz	r3, 8004c4c <__sinit+0x14>
 8004c44:	e8bd 4010 	ldmia.w	sp!, {r4, lr}
 8004c48:	f7ff bff0 	b.w	8004c2c <__sfp_lock_release>
 8004c4c:	4b04      	ldr	r3, [pc, #16]	; (8004c60 <__sinit+0x28>)
 8004c4e:	6223      	str	r3, [r4, #32]
 8004c50:	4b04      	ldr	r3, [pc, #16]	; (8004c64 <__sinit+0x2c>)
 8004c52:	681b      	ldr	r3, [r3, #0]
 8004c54:	2b00      	cmp	r3, #0
 8004c56:	d1f5      	bne.n	8004c44 <__sinit+0xc>
 8004c58:	f7ff ffc4 	bl	8004be4 <global_stdio_init.part.0>
 8004c5c:	e7f2      	b.n	8004c44 <__sinit+0xc>
 8004c5e:	bf00      	nop
 8004c60:	08004ba5 	.word	0x08004ba5
 8004c64:	20000538 	.word	0x20000538

08004c68 <_fwalk_sglue>:
 8004c68:	e92d 43f8 	stmdb	sp!, {r3, r4, r5, r6, r7, r8, r9, lr}
 8004c6c:	4607      	mov	r7, r0
 8004c6e:	4688      	mov	r8, r1
 8004c70:	4614      	mov	r4, r2
 8004c72:	2600      	movs	r6, #0
 8004c74:	e9d4 9501 	ldrd	r9, r5, [r4, #4]
 8004c78:	f1b9 0901 	subs.w	r9, r9, #1
 8004c7c:	d505      	bpl.n	8004c8a <_fwalk_sglue+0x22>
 8004c7e:	6824      	ldr	r4, [r4, #0]
 8004c80:	2c00      	cmp	r4, #0
 8004c82:	d1f7      	bne.n	8004c74 <_fwalk_sglue+0xc>
 8004c84:	4630      	mov	r0, r6
 8004c86:	e8bd 83f8 	ldmia.w	sp!, {r3, r4, r5, r6, r7, r8, r9, pc}
 8004c8a:	89ab      	ldrh	r3, [r5, #12]
 8004c8c:	2b01      	cmp	r3, #1
 8004c8e:	d907      	bls.n	8004ca0 <_fwalk_sglue+0x38>
 8004c90:	f9b5 300e 	ldrsh.w	r3, [r5, #14]
 8004c94:	3301      	adds	r3, #1
 8004c96:	d003      	beq.n	8004ca0 <_fwalk_sglue+0x38>
 8004c98:	4629      	mov	r1, r5
 8004c9a:	4638      	mov	r0, r7
 8004c9c:	47c0      	blx	r8
 8004c9e:	4306      	orrs	r6, r0
 8004ca0:	3568      	adds	r5, #104	; 0x68
 8004ca2:	e7e9      	b.n	8004c78 <_fwalk_sglue+0x10>

08004ca4 <iprintf>:
 8004ca4:	b40f      	push	{r0, r1, r2, r3}
 8004ca6:	b507      	push	{r0, r1, r2, lr}
 8004ca8:	4906      	ldr	r1, [pc, #24]	; (8004cc4 <iprintf+0x20>)
 8004caa:	ab04      	add	r3, sp, #16
 8004cac:	6808      	ldr	r0, [r1, #0]
 8004cae:	f853 2b04 	ldr.w	r2, [r3], #4
 8004cb2:	6881      	ldr	r1, [r0, #8]
 8004cb4:	9301      	str	r3, [sp, #4]
 8004cb6:	f001 fe7f 	bl	80069b8 <_vfiprintf_r>
 8004cba:	b003      	add	sp, #12
 8004cbc:	f85d eb04 	ldr.w	lr, [sp], #4
 8004cc0:	b004      	add	sp, #16
 8004cc2:	4770      	bx	lr
 8004cc4:	20000064 	.word	0x20000064

08004cc8 <_puts_r>:
 8004cc8:	6a03      	ldr	r3, [r0, #32]
 8004cca:	b570      	push	{r4, r5, r6, lr}
 8004ccc:	6884      	ldr	r4, [r0, #8]
 8004cce:	4605      	mov	r5, r0
 8004cd0:	460e      	mov	r6, r1
 8004cd2:	b90b      	cbnz	r3, 8004cd8 <_puts_r+0x10>
 8004cd4:	f7ff ffb0 	bl	8004c38 <__sinit>
 8004cd8:	6e63      	ldr	r3, [r4, #100]	; 0x64
 8004cda:	07db      	lsls	r3, r3, #31
 8004cdc:	d405      	bmi.n	8004cea <_puts_r+0x22>
 8004cde:	89a3      	ldrh	r3, [r4, #12]
 8004ce0:	0598      	lsls	r0, r3, #22
 8004ce2:	d402      	bmi.n	8004cea <_puts_r+0x22>
 8004ce4:	6da0      	ldr	r0, [r4, #88]	; 0x58
 8004ce6:	f000 f9e4 	bl	80050b2 <__retarget_lock_acquire_recursive>
 8004cea:	89a3      	ldrh	r3, [r4, #12]
 8004cec:	0719      	lsls	r1, r3, #28
 8004cee:	d513      	bpl.n	8004d18 <_puts_r+0x50>
 8004cf0:	6923      	ldr	r3, [r4, #16]
 8004cf2:	b18b      	cbz	r3, 8004d18 <_puts_r+0x50>
 8004cf4:	3e01      	subs	r6, #1
 8004cf6:	68a3      	ldr	r3, [r4, #8]
 8004cf8:	f816 1f01 	ldrb.w	r1, [r6, #1]!
 8004cfc:	3b01      	subs	r3, #1
 8004cfe:	60a3      	str	r3, [r4, #8]
 8004d00:	b9e9      	cbnz	r1, 8004d3e <_puts_r+0x76>
 8004d02:	2b00      	cmp	r3, #0
 8004d04:	da2e      	bge.n	8004d64 <_puts_r+0x9c>
 8004d06:	4622      	mov	r2, r4
 8004d08:	210a      	movs	r1, #10
 8004d0a:	4628      	mov	r0, r5
 8004d0c:	f000 f8af 	bl	8004e6e <__swbuf_r>
 8004d10:	3001      	adds	r0, #1
 8004d12:	d007      	beq.n	8004d24 <_puts_r+0x5c>
 8004d14:	250a      	movs	r5, #10
 8004d16:	e007      	b.n	8004d28 <_puts_r+0x60>
 8004d18:	4621      	mov	r1, r4
 8004d1a:	4628      	mov	r0, r5
 8004d1c:	f000 f8e4 	bl	8004ee8 <__swsetup_r>
 8004d20:	2800      	cmp	r0, #0
 8004d22:	d0e7      	beq.n	8004cf4 <_puts_r+0x2c>
 8004d24:	f04f 35ff 	mov.w	r5, #4294967295	; 0xffffffff
 8004d28:	6e63      	ldr	r3, [r4, #100]	; 0x64
 8004d2a:	07da      	lsls	r2, r3, #31
 8004d2c:	d405      	bmi.n	8004d3a <_puts_r+0x72>
 8004d2e:	89a3      	ldrh	r3, [r4, #12]
 8004d30:	059b      	lsls	r3, r3, #22
 8004d32:	d402      	bmi.n	8004d3a <_puts_r+0x72>
 8004d34:	6da0      	ldr	r0, [r4, #88]	; 0x58
 8004d36:	f000 f9bd 	bl	80050b4 <__retarget_lock_release_recursive>
 8004d3a:	4628      	mov	r0, r5
 8004d3c:	bd70      	pop	{r4, r5, r6, pc}
 8004d3e:	2b00      	cmp	r3, #0
 8004d40:	da04      	bge.n	8004d4c <_puts_r+0x84>
 8004d42:	69a2      	ldr	r2, [r4, #24]
 8004d44:	429a      	cmp	r2, r3
 8004d46:	dc06      	bgt.n	8004d56 <_puts_r+0x8e>
 8004d48:	290a      	cmp	r1, #10
 8004d4a:	d004      	beq.n	8004d56 <_puts_r+0x8e>
 8004d4c:	6823      	ldr	r3, [r4, #0]
 8004d4e:	1c5a      	adds	r2, r3, #1
 8004d50:	6022      	str	r2, [r4, #0]
 8004d52:	7019      	strb	r1, [r3, #0]
 8004d54:	e7cf      	b.n	8004cf6 <_puts_r+0x2e>
 8004d56:	4622      	mov	r2, r4
 8004d58:	4628      	mov	r0, r5
 8004d5a:	f000 f888 	bl	8004e6e <__swbuf_r>
 8004d5e:	3001      	adds	r0, #1
 8004d60:	d1c9      	bne.n	8004cf6 <_puts_r+0x2e>
 8004d62:	e7df      	b.n	8004d24 <_puts_r+0x5c>
 8004d64:	6823      	ldr	r3, [r4, #0]
 8004d66:	250a      	movs	r5, #10
 8004d68:	1c5a      	adds	r2, r3, #1
 8004d6a:	6022      	str	r2, [r4, #0]
 8004d6c:	701d      	strb	r5, [r3, #0]
 8004d6e:	e7db      	b.n	8004d28 <_puts_r+0x60>

08004d70 <puts>:
 8004d70:	4b02      	ldr	r3, [pc, #8]	; (8004d7c <puts+0xc>)
 8004d72:	4601      	mov	r1, r0
 8004d74:	6818      	ldr	r0, [r3, #0]
 8004d76:	f7ff bfa7 	b.w	8004cc8 <_puts_r>
 8004d7a:	bf00      	nop
 8004d7c:	20000064 	.word	0x20000064

08004d80 <sniprintf>:
 8004d80:	b40c      	push	{r2, r3}
 8004d82:	b530      	push	{r4, r5, lr}
 8004d84:	4b17      	ldr	r3, [pc, #92]	; (8004de4 <sniprintf+0x64>)
 8004d86:	1e0c      	subs	r4, r1, #0
 8004d88:	681d      	ldr	r5, [r3, #0]
 8004d8a:	b09d      	sub	sp, #116	; 0x74
 8004d8c:	da08      	bge.n	8004da0 <sniprintf+0x20>
 8004d8e:	238b      	movs	r3, #139	; 0x8b
 8004d90:	602b      	str	r3, [r5, #0]
 8004d92:	f04f 30ff 	mov.w	r0, #4294967295	; 0xffffffff
 8004d96:	b01d      	add	sp, #116	; 0x74
 8004d98:	e8bd 4030 	ldmia.w	sp!, {r4, r5, lr}
 8004d9c:	b002      	add	sp, #8
 8004d9e:	4770      	bx	lr
 8004da0:	f44f 7302 	mov.w	r3, #520	; 0x208
 8004da4:	f8ad 3014 	strh.w	r3, [sp, #20]
 8004da8:	bf14      	ite	ne
 8004daa:	f104 33ff 	addne.w	r3, r4, #4294967295	; 0xffffffff
 8004dae:	4623      	moveq	r3, r4
 8004db0:	9304      	str	r3, [sp, #16]
 8004db2:	9307      	str	r3, [sp, #28]
 8004db4:	f64f 73ff 	movw	r3, #65535	; 0xffff
 8004db8:	9002      	str	r0, [sp, #8]
 8004dba:	9006      	str	r0, [sp, #24]
 8004dbc:	f8ad 3016 	strh.w	r3, [sp, #22]
 8004dc0:	9a20      	ldr	r2, [sp, #128]	; 0x80
 8004dc2:	ab21      	add	r3, sp, #132	; 0x84
 8004dc4:	a902      	add	r1, sp, #8
 8004dc6:	4628      	mov	r0, r5
 8004dc8:	9301      	str	r3, [sp, #4]
 8004dca:	f001 fccd 	bl	8006768 <_svfiprintf_r>
 8004dce:	1c43      	adds	r3, r0, #1
 8004dd0:	bfbc      	itt	lt
 8004dd2:	238b      	movlt	r3, #139	; 0x8b
 8004dd4:	602b      	strlt	r3, [r5, #0]
 8004dd6:	2c00      	cmp	r4, #0
 8004dd8:	d0dd      	beq.n	8004d96 <sniprintf+0x16>
 8004dda:	9b02      	ldr	r3, [sp, #8]
 8004ddc:	2200      	movs	r2, #0
 8004dde:	701a      	strb	r2, [r3, #0]
 8004de0:	e7d9      	b.n	8004d96 <sniprintf+0x16>
 8004de2:	bf00      	nop
 8004de4:	20000064 	.word	0x20000064

08004de8 <__sread>:
 8004de8:	b510      	push	{r4, lr}
 8004dea:	460c      	mov	r4, r1
 8004dec:	f9b1 100e 	ldrsh.w	r1, [r1, #14]
 8004df0:	f000 f910 	bl	8005014 <_read_r>
 8004df4:	2800      	cmp	r0, #0
 8004df6:	bfab      	itete	ge
 8004df8:	6d63      	ldrge	r3, [r4, #84]	; 0x54
 8004dfa:	89a3      	ldrhlt	r3, [r4, #12]
 8004dfc:	181b      	addge	r3, r3, r0
 8004dfe:	f423 5380 	biclt.w	r3, r3, #4096	; 0x1000
 8004e02:	bfac      	ite	ge
 8004e04:	6563      	strge	r3, [r4, #84]	; 0x54
 8004e06:	81a3      	strhlt	r3, [r4, #12]
 8004e08:	bd10      	pop	{r4, pc}

08004e0a <__swrite>:
 8004e0a:	e92d 41f0 	stmdb	sp!, {r4, r5, r6, r7, r8, lr}
 8004e0e:	461f      	mov	r7, r3
 8004e10:	898b      	ldrh	r3, [r1, #12]
 8004e12:	05db      	lsls	r3, r3, #23
 8004e14:	4605      	mov	r5, r0
 8004e16:	460c      	mov	r4, r1
 8004e18:	4616      	mov	r6, r2
 8004e1a:	d505      	bpl.n	8004e28 <__swrite+0x1e>
 8004e1c:	f9b1 100e 	ldrsh.w	r1, [r1, #14]
 8004e20:	2302      	movs	r3, #2
 8004e22:	2200      	movs	r2, #0
 8004e24:	f000 f8e4 	bl	8004ff0 <_lseek_r>
 8004e28:	89a3      	ldrh	r3, [r4, #12]
 8004e2a:	f9b4 100e 	ldrsh.w	r1, [r4, #14]
 8004e2e:	f423 5380 	bic.w	r3, r3, #4096	; 0x1000
 8004e32:	81a3      	strh	r3, [r4, #12]
 8004e34:	4632      	mov	r2, r6
 8004e36:	463b      	mov	r3, r7
 8004e38:	4628      	mov	r0, r5
 8004e3a:	e8bd 41f0 	ldmia.w	sp!, {r4, r5, r6, r7, r8, lr}
 8004e3e:	f000 b8fb 	b.w	8005038 <_write_r>

08004e42 <__sseek>:
 8004e42:	b510      	push	{r4, lr}
 8004e44:	460c      	mov	r4, r1
 8004e46:	f9b1 100e 	ldrsh.w	r1, [r1, #14]
 8004e4a:	f000 f8d1 	bl	8004ff0 <_lseek_r>
 8004e4e:	1c43      	adds	r3, r0, #1
 8004e50:	89a3      	ldrh	r3, [r4, #12]
 8004e52:	bf15      	itete	ne
 8004e54:	6560      	strne	r0, [r4, #84]	; 0x54
 8004e56:	f423 5380 	biceq.w	r3, r3, #4096	; 0x1000
 8004e5a:	f443 5380 	orrne.w	r3, r3, #4096	; 0x1000
 8004e5e:	81a3      	strheq	r3, [r4, #12]
 8004e60:	bf18      	it	ne
 8004e62:	81a3      	strhne	r3, [r4, #12]
 8004e64:	bd10      	pop	{r4, pc}

08004e66 <__sclose>:
 8004e66:	f9b1 100e 	ldrsh.w	r1, [r1, #14]
 8004e6a:	f000 b8b1 	b.w	8004fd0 <_close_r>

08004e6e <__swbuf_r>:
 8004e6e:	b5f8      	push	{r3, r4, r5, r6, r7, lr}
 8004e70:	460e      	mov	r6, r1
 8004e72:	4614      	mov	r4, r2
 8004e74:	4605      	mov	r5, r0
 8004e76:	b118      	cbz	r0, 8004e80 <__swbuf_r+0x12>
 8004e78:	6a03      	ldr	r3, [r0, #32]
 8004e7a:	b90b      	cbnz	r3, 8004e80 <__swbuf_r+0x12>
 8004e7c:	f7ff fedc 	bl	8004c38 <__sinit>
 8004e80:	69a3      	ldr	r3, [r4, #24]
 8004e82:	60a3      	str	r3, [r4, #8]
 8004e84:	89a3      	ldrh	r3, [r4, #12]
 8004e86:	071a      	lsls	r2, r3, #28
 8004e88:	d525      	bpl.n	8004ed6 <__swbuf_r+0x68>
 8004e8a:	6923      	ldr	r3, [r4, #16]
 8004e8c:	b31b      	cbz	r3, 8004ed6 <__swbuf_r+0x68>
 8004e8e:	6823      	ldr	r3, [r4, #0]
 8004e90:	6922      	ldr	r2, [r4, #16]
 8004e92:	1a98      	subs	r0, r3, r2
 8004e94:	6963      	ldr	r3, [r4, #20]
 8004e96:	b2f6      	uxtb	r6, r6
 8004e98:	4283      	cmp	r3, r0
 8004e9a:	4637      	mov	r7, r6
 8004e9c:	dc04      	bgt.n	8004ea8 <__swbuf_r+0x3a>
 8004e9e:	4621      	mov	r1, r4
 8004ea0:	4628      	mov	r0, r5
 8004ea2:	f001 ff29 	bl	8006cf8 <_fflush_r>
 8004ea6:	b9e0      	cbnz	r0, 8004ee2 <__swbuf_r+0x74>
 8004ea8:	68a3      	ldr	r3, [r4, #8]
 8004eaa:	3b01      	subs	r3, #1
 8004eac:	60a3      	str	r3, [r4, #8]
 8004eae:	6823      	ldr	r3, [r4, #0]
 8004eb0:	1c5a      	adds	r2, r3, #1
 8004eb2:	6022      	str	r2, [r4, #0]
 8004eb4:	701e      	strb	r6, [r3, #0]
 8004eb6:	6962      	ldr	r2, [r4, #20]
 8004eb8:	1c43      	adds	r3, r0, #1
 8004eba:	429a      	cmp	r2, r3
 8004ebc:	d004      	beq.n	8004ec8 <__swbuf_r+0x5a>
 8004ebe:	89a3      	ldrh	r3, [r4, #12]
 8004ec0:	07db      	lsls	r3, r3, #31
 8004ec2:	d506      	bpl.n	8004ed2 <__swbuf_r+0x64>
 8004ec4:	2e0a      	cmp	r6, #10
 8004ec6:	d104      	bne.n	8004ed2 <__swbuf_r+0x64>
 8004ec8:	4621      	mov	r1, r4
 8004eca:	4628      	mov	r0, r5
 8004ecc:	f001 ff14 	bl	8006cf8 <_fflush_r>
 8004ed0:	b938      	cbnz	r0, 8004ee2 <__swbuf_r+0x74>
 8004ed2:	4638      	mov	r0, r7
 8004ed4:	bdf8      	pop	{r3, r4, r5, r6, r7, pc}
 8004ed6:	4621      	mov	r1, r4
 8004ed8:	4628      	mov	r0, r5
 8004eda:	f000 f805 	bl	8004ee8 <__swsetup_r>
 8004ede:	2800      	cmp	r0, #0
 8004ee0:	d0d5      	beq.n	8004e8e <__swbuf_r+0x20>
 8004ee2:	f04f 37ff 	mov.w	r7, #4294967295	; 0xffffffff
 8004ee6:	e7f4      	b.n	8004ed2 <__swbuf_r+0x64>

08004ee8 <__swsetup_r>:
 8004ee8:	b538      	push	{r3, r4, r5, lr}
 8004eea:	4b2a      	ldr	r3, [pc, #168]	; (8004f94 <__swsetup_r+0xac>)
 8004eec:	4605      	mov	r5, r0
 8004eee:	6818      	ldr	r0, [r3, #0]
 8004ef0:	460c      	mov	r4, r1
 8004ef2:	b118      	cbz	r0, 8004efc <__swsetup_r+0x14>
 8004ef4:	6a03      	ldr	r3, [r0, #32]
 8004ef6:	b90b      	cbnz	r3, 8004efc <__swsetup_r+0x14>
 8004ef8:	f7ff fe9e 	bl	8004c38 <__sinit>
 8004efc:	89a3      	ldrh	r3, [r4, #12]
 8004efe:	f9b4 200c 	ldrsh.w	r2, [r4, #12]
 8004f02:	0718      	lsls	r0, r3, #28
 8004f04:	d422      	bmi.n	8004f4c <__swsetup_r+0x64>
 8004f06:	06d9      	lsls	r1, r3, #27
 8004f08:	d407      	bmi.n	8004f1a <__swsetup_r+0x32>
 8004f0a:	2309      	movs	r3, #9
 8004f0c:	602b      	str	r3, [r5, #0]
 8004f0e:	f042 0340 	orr.w	r3, r2, #64	; 0x40
 8004f12:	81a3      	strh	r3, [r4, #12]
 8004f14:	f04f 30ff 	mov.w	r0, #4294967295	; 0xffffffff
 8004f18:	e034      	b.n	8004f84 <__swsetup_r+0x9c>
 8004f1a:	0758      	lsls	r0, r3, #29
 8004f1c:	d512      	bpl.n	8004f44 <__swsetup_r+0x5c>
 8004f1e:	6b61      	ldr	r1, [r4, #52]	; 0x34
 8004f20:	b141      	cbz	r1, 8004f34 <__swsetup_r+0x4c>
 8004f22:	f104 0344 	add.w	r3, r4, #68	; 0x44
 8004f26:	4299      	cmp	r1, r3
 8004f28:	d002      	beq.n	8004f30 <__swsetup_r+0x48>
 8004f2a:	4628      	mov	r0, r5
 8004f2c:	f000 ff46 	bl	8005dbc <_free_r>
 8004f30:	2300      	movs	r3, #0
 8004f32:	6363      	str	r3, [r4, #52]	; 0x34
 8004f34:	89a3      	ldrh	r3, [r4, #12]
 8004f36:	f023 0324 	bic.w	r3, r3, #36	; 0x24
 8004f3a:	81a3      	strh	r3, [r4, #12]
 8004f3c:	2300      	movs	r3, #0
 8004f3e:	6063      	str	r3, [r4, #4]
 8004f40:	6923      	ldr	r3, [r4, #16]
 8004f42:	6023      	str	r3, [r4, #0]
 8004f44:	89a3      	ldrh	r3, [r4, #12]
 8004f46:	f043 0308 	orr.w	r3, r3, #8
 8004f4a:	81a3      	strh	r3, [r4, #12]
 8004f4c:	6923      	ldr	r3, [r4, #16]
 8004f4e:	b94b      	cbnz	r3, 8004f64 <__swsetup_r+0x7c>
 8004f50:	89a3      	ldrh	r3, [r4, #12]
 8004f52:	f403 7320 	and.w	r3, r3, #640	; 0x280
 8004f56:	f5b3 7f00 	cmp.w	r3, #512	; 0x200
 8004f5a:	d003      	beq.n	8004f64 <__swsetup_r+0x7c>
 8004f5c:	4621      	mov	r1, r4
 8004f5e:	4628      	mov	r0, r5
 8004f60:	f001 ff18 	bl	8006d94 <__smakebuf_r>
 8004f64:	89a0      	ldrh	r0, [r4, #12]
 8004f66:	f9b4 200c 	ldrsh.w	r2, [r4, #12]
 8004f6a:	f010 0301 	ands.w	r3, r0, #1
 8004f6e:	d00a      	beq.n	8004f86 <__swsetup_r+0x9e>
 8004f70:	2300      	movs	r3, #0
 8004f72:	60a3      	str	r3, [r4, #8]
 8004f74:	6963      	ldr	r3, [r4, #20]
 8004f76:	425b      	negs	r3, r3
 8004f78:	61a3      	str	r3, [r4, #24]
 8004f7a:	6923      	ldr	r3, [r4, #16]
 8004f7c:	b943      	cbnz	r3, 8004f90 <__swsetup_r+0xa8>
 8004f7e:	f010 0080 	ands.w	r0, r0, #128	; 0x80
 8004f82:	d1c4      	bne.n	8004f0e <__swsetup_r+0x26>
 8004f84:	bd38      	pop	{r3, r4, r5, pc}
 8004f86:	0781      	lsls	r1, r0, #30
 8004f88:	bf58      	it	pl
 8004f8a:	6963      	ldrpl	r3, [r4, #20]
 8004f8c:	60a3      	str	r3, [r4, #8]
 8004f8e:	e7f4      	b.n	8004f7a <__swsetup_r+0x92>
 8004f90:	2000      	movs	r0, #0
 8004f92:	e7f7      	b.n	8004f84 <__swsetup_r+0x9c>
 8004f94:	20000064 	.word	0x20000064

08004f98 <memset>:
 8004f98:	4402      	add	r2, r0
 8004f9a:	4603      	mov	r3, r0
 8004f9c:	4293      	cmp	r3, r2
 8004f9e:	d100      	bne.n	8004fa2 <memset+0xa>
 8004fa0:	4770      	bx	lr
 8004fa2:	f803 1b01 	strb.w	r1, [r3], #1
 8004fa6:	e7f9      	b.n	8004f9c <memset+0x4>

08004fa8 <strcat>:
 8004fa8:	b510      	push	{r4, lr}
 8004faa:	4602      	mov	r2, r0
 8004fac:	7814      	ldrb	r4, [r2, #0]
 8004fae:	4613      	mov	r3, r2
 8004fb0:	3201      	adds	r2, #1
 8004fb2:	2c00      	cmp	r4, #0
 8004fb4:	d1fa      	bne.n	8004fac <strcat+0x4>
 8004fb6:	3b01      	subs	r3, #1
 8004fb8:	f811 2b01 	ldrb.w	r2, [r1], #1
 8004fbc:	f803 2f01 	strb.w	r2, [r3, #1]!
 8004fc0:	2a00      	cmp	r2, #0
 8004fc2:	d1f9      	bne.n	8004fb8 <strcat+0x10>
 8004fc4:	bd10      	pop	{r4, pc}
	...

08004fc8 <_localeconv_r>:
 8004fc8:	4800      	ldr	r0, [pc, #0]	; (8004fcc <_localeconv_r+0x4>)
 8004fca:	4770      	bx	lr
 8004fcc:	20000158 	.word	0x20000158

08004fd0 <_close_r>:
 8004fd0:	b538      	push	{r3, r4, r5, lr}
 8004fd2:	4d06      	ldr	r5, [pc, #24]	; (8004fec <_close_r+0x1c>)
 8004fd4:	2300      	movs	r3, #0
 8004fd6:	4604      	mov	r4, r0
 8004fd8:	4608      	mov	r0, r1
 8004fda:	602b      	str	r3, [r5, #0]
 8004fdc:	f7fc fe6a 	bl	8001cb4 <_close>
 8004fe0:	1c43      	adds	r3, r0, #1
 8004fe2:	d102      	bne.n	8004fea <_close_r+0x1a>
 8004fe4:	682b      	ldr	r3, [r5, #0]
 8004fe6:	b103      	cbz	r3, 8004fea <_close_r+0x1a>
 8004fe8:	6023      	str	r3, [r4, #0]
 8004fea:	bd38      	pop	{r3, r4, r5, pc}
 8004fec:	2000053c 	.word	0x2000053c

08004ff0 <_lseek_r>:
 8004ff0:	b538      	push	{r3, r4, r5, lr}
 8004ff2:	4d07      	ldr	r5, [pc, #28]	; (8005010 <_lseek_r+0x20>)
 8004ff4:	4604      	mov	r4, r0
 8004ff6:	4608      	mov	r0, r1
 8004ff8:	4611      	mov	r1, r2
 8004ffa:	2200      	movs	r2, #0
 8004ffc:	602a      	str	r2, [r5, #0]
 8004ffe:	461a      	mov	r2, r3
 8005000:	f7fc fe62 	bl	8001cc8 <_lseek>
 8005004:	1c43      	adds	r3, r0, #1
 8005006:	d102      	bne.n	800500e <_lseek_r+0x1e>
 8005008:	682b      	ldr	r3, [r5, #0]
 800500a:	b103      	cbz	r3, 800500e <_lseek_r+0x1e>
 800500c:	6023      	str	r3, [r4, #0]
 800500e:	bd38      	pop	{r3, r4, r5, pc}
 8005010:	2000053c 	.word	0x2000053c

08005014 <_read_r>:
 8005014:	b538      	push	{r3, r4, r5, lr}
 8005016:	4d07      	ldr	r5, [pc, #28]	; (8005034 <_read_r+0x20>)
 8005018:	4604      	mov	r4, r0
 800501a:	4608      	mov	r0, r1
 800501c:	4611      	mov	r1, r2
 800501e:	2200      	movs	r2, #0
 8005020:	602a      	str	r2, [r5, #0]
 8005022:	461a      	mov	r2, r3
 8005024:	f7fc fe38 	bl	8001c98 <_read>
 8005028:	1c43      	adds	r3, r0, #1
 800502a:	d102      	bne.n	8005032 <_read_r+0x1e>
 800502c:	682b      	ldr	r3, [r5, #0]
 800502e:	b103      	cbz	r3, 8005032 <_read_r+0x1e>
 8005030:	6023      	str	r3, [r4, #0]
 8005032:	bd38      	pop	{r3, r4, r5, pc}
 8005034:	2000053c 	.word	0x2000053c

08005038 <_write_r>:
 8005038:	b538      	push	{r3, r4, r5, lr}
 800503a:	4d07      	ldr	r5, [pc, #28]	; (8005058 <_write_r+0x20>)
 800503c:	4604      	mov	r4, r0
 800503e:	4608      	mov	r0, r1
 8005040:	4611      	mov	r1, r2
 8005042:	2200      	movs	r2, #0
 8005044:	602a      	str	r2, [r5, #0]
 8005046:	461a      	mov	r2, r3
 8005048:	f7fc f974 	bl	8001334 <_write>
 800504c:	1c43      	adds	r3, r0, #1
 800504e:	d102      	bne.n	8005056 <_write_r+0x1e>
 8005050:	682b      	ldr	r3, [r5, #0]
 8005052:	b103      	cbz	r3, 8005056 <_write_r+0x1e>
 8005054:	6023      	str	r3, [r4, #0]
 8005056:	bd38      	pop	{r3, r4, r5, pc}
 8005058:	2000053c 	.word	0x2000053c

0800505c <__errno>:
 800505c:	4b01      	ldr	r3, [pc, #4]	; (8005064 <__errno+0x8>)
 800505e:	6818      	ldr	r0, [r3, #0]
 8005060:	4770      	bx	lr
 8005062:	bf00      	nop
 8005064:	20000064 	.word	0x20000064

08005068 <__libc_init_array>:
 8005068:	b570      	push	{r4, r5, r6, lr}
 800506a:	4d0d      	ldr	r5, [pc, #52]	; (80050a0 <__libc_init_array+0x38>)
 800506c:	4c0d      	ldr	r4, [pc, #52]	; (80050a4 <__libc_init_array+0x3c>)
 800506e:	1b64      	subs	r4, r4, r5
 8005070:	10a4      	asrs	r4, r4, #2
 8005072:	2600      	movs	r6, #0
 8005074:	42a6      	cmp	r6, r4
 8005076:	d109      	bne.n	800508c <__libc_init_array+0x24>
 8005078:	4d0b      	ldr	r5, [pc, #44]	; (80050a8 <__libc_init_array+0x40>)
 800507a:	4c0c      	ldr	r4, [pc, #48]	; (80050ac <__libc_init_array+0x44>)
 800507c:	f002 f808 	bl	8007090 <_init>
 8005080:	1b64      	subs	r4, r4, r5
 8005082:	10a4      	asrs	r4, r4, #2
 8005084:	2600      	movs	r6, #0
 8005086:	42a6      	cmp	r6, r4
 8005088:	d105      	bne.n	8005096 <__libc_init_array+0x2e>
 800508a:	bd70      	pop	{r4, r5, r6, pc}
 800508c:	f855 3b04 	ldr.w	r3, [r5], #4
 8005090:	4798      	blx	r3
 8005092:	3601      	adds	r6, #1
 8005094:	e7ee      	b.n	8005074 <__libc_init_array+0xc>
 8005096:	f855 3b04 	ldr.w	r3, [r5], #4
 800509a:	4798      	blx	r3
 800509c:	3601      	adds	r6, #1
 800509e:	e7f2      	b.n	8005086 <__libc_init_array+0x1e>
 80050a0:	08007754 	.word	0x08007754
 80050a4:	08007754 	.word	0x08007754
 80050a8:	08007754 	.word	0x08007754
 80050ac:	08007758 	.word	0x08007758

080050b0 <__retarget_lock_init_recursive>:
 80050b0:	4770      	bx	lr

080050b2 <__retarget_lock_acquire_recursive>:
 80050b2:	4770      	bx	lr

080050b4 <__retarget_lock_release_recursive>:
 80050b4:	4770      	bx	lr

080050b6 <strcpy>:
 80050b6:	4603      	mov	r3, r0
 80050b8:	f811 2b01 	ldrb.w	r2, [r1], #1
 80050bc:	f803 2b01 	strb.w	r2, [r3], #1
 80050c0:	2a00      	cmp	r2, #0
 80050c2:	d1f9      	bne.n	80050b8 <strcpy+0x2>
 80050c4:	4770      	bx	lr

080050c6 <quorem>:
 80050c6:	e92d 4ff7 	stmdb	sp!, {r0, r1, r2, r4, r5, r6, r7, r8, r9, sl, fp, lr}
 80050ca:	6903      	ldr	r3, [r0, #16]
 80050cc:	690c      	ldr	r4, [r1, #16]
 80050ce:	42a3      	cmp	r3, r4
 80050d0:	4607      	mov	r7, r0
 80050d2:	db7e      	blt.n	80051d2 <quorem+0x10c>
 80050d4:	3c01      	subs	r4, #1
 80050d6:	f101 0814 	add.w	r8, r1, #20
 80050da:	f100 0514 	add.w	r5, r0, #20
 80050de:	eb05 0384 	add.w	r3, r5, r4, lsl #2
 80050e2:	9301      	str	r3, [sp, #4]
 80050e4:	f858 3024 	ldr.w	r3, [r8, r4, lsl #2]
 80050e8:	f855 2024 	ldr.w	r2, [r5, r4, lsl #2]
 80050ec:	3301      	adds	r3, #1
 80050ee:	429a      	cmp	r2, r3
 80050f0:	ea4f 0b84 	mov.w	fp, r4, lsl #2
 80050f4:	eb08 0984 	add.w	r9, r8, r4, lsl #2
 80050f8:	fbb2 f6f3 	udiv	r6, r2, r3
 80050fc:	d331      	bcc.n	8005162 <quorem+0x9c>
 80050fe:	f04f 0e00 	mov.w	lr, #0
 8005102:	4640      	mov	r0, r8
 8005104:	46ac      	mov	ip, r5
 8005106:	46f2      	mov	sl, lr
 8005108:	f850 2b04 	ldr.w	r2, [r0], #4
 800510c:	b293      	uxth	r3, r2
 800510e:	fb06 e303 	mla	r3, r6, r3, lr
 8005112:	ea4f 4e12 	mov.w	lr, r2, lsr #16
 8005116:	0c1a      	lsrs	r2, r3, #16
 8005118:	b29b      	uxth	r3, r3
 800511a:	ebaa 0303 	sub.w	r3, sl, r3
 800511e:	f8dc a000 	ldr.w	sl, [ip]
 8005122:	fa13 f38a 	uxtah	r3, r3, sl
 8005126:	fb06 220e 	mla	r2, r6, lr, r2
 800512a:	9300      	str	r3, [sp, #0]
 800512c:	9b00      	ldr	r3, [sp, #0]
 800512e:	ea4f 4e12 	mov.w	lr, r2, lsr #16
 8005132:	b292      	uxth	r2, r2
 8005134:	ebc2 421a 	rsb	r2, r2, sl, lsr #16
 8005138:	eb02 4223 	add.w	r2, r2, r3, asr #16
 800513c:	f8bd 3000 	ldrh.w	r3, [sp]
 8005140:	4581      	cmp	r9, r0
 8005142:	ea43 4302 	orr.w	r3, r3, r2, lsl #16
 8005146:	f84c 3b04 	str.w	r3, [ip], #4
 800514a:	ea4f 4a22 	mov.w	sl, r2, asr #16
 800514e:	d2db      	bcs.n	8005108 <quorem+0x42>
 8005150:	f855 300b 	ldr.w	r3, [r5, fp]
 8005154:	b92b      	cbnz	r3, 8005162 <quorem+0x9c>
 8005156:	9b01      	ldr	r3, [sp, #4]
 8005158:	3b04      	subs	r3, #4
 800515a:	429d      	cmp	r5, r3
 800515c:	461a      	mov	r2, r3
 800515e:	d32c      	bcc.n	80051ba <quorem+0xf4>
 8005160:	613c      	str	r4, [r7, #16]
 8005162:	4638      	mov	r0, r7
 8005164:	f001 f9a6 	bl	80064b4 <__mcmp>
 8005168:	2800      	cmp	r0, #0
 800516a:	db22      	blt.n	80051b2 <quorem+0xec>
 800516c:	3601      	adds	r6, #1
 800516e:	4629      	mov	r1, r5
 8005170:	2000      	movs	r0, #0
 8005172:	f858 2b04 	ldr.w	r2, [r8], #4
 8005176:	f8d1 c000 	ldr.w	ip, [r1]
 800517a:	b293      	uxth	r3, r2
 800517c:	1ac3      	subs	r3, r0, r3
 800517e:	0c12      	lsrs	r2, r2, #16
 8005180:	fa13 f38c 	uxtah	r3, r3, ip
 8005184:	ebc2 421c 	rsb	r2, r2, ip, lsr #16
 8005188:	eb02 4223 	add.w	r2, r2, r3, asr #16
 800518c:	b29b      	uxth	r3, r3
 800518e:	ea43 4302 	orr.w	r3, r3, r2, lsl #16
 8005192:	45c1      	cmp	r9, r8
 8005194:	f841 3b04 	str.w	r3, [r1], #4
 8005198:	ea4f 4022 	mov.w	r0, r2, asr #16
 800519c:	d2e9      	bcs.n	8005172 <quorem+0xac>
 800519e:	f855 2024 	ldr.w	r2, [r5, r4, lsl #2]
 80051a2:	eb05 0384 	add.w	r3, r5, r4, lsl #2
 80051a6:	b922      	cbnz	r2, 80051b2 <quorem+0xec>
 80051a8:	3b04      	subs	r3, #4
 80051aa:	429d      	cmp	r5, r3
 80051ac:	461a      	mov	r2, r3
 80051ae:	d30a      	bcc.n	80051c6 <quorem+0x100>
 80051b0:	613c      	str	r4, [r7, #16]
 80051b2:	4630      	mov	r0, r6
 80051b4:	b003      	add	sp, #12
 80051b6:	e8bd 8ff0 	ldmia.w	sp!, {r4, r5, r6, r7, r8, r9, sl, fp, pc}
 80051ba:	6812      	ldr	r2, [r2, #0]
 80051bc:	3b04      	subs	r3, #4
 80051be:	2a00      	cmp	r2, #0
 80051c0:	d1ce      	bne.n	8005160 <quorem+0x9a>
 80051c2:	3c01      	subs	r4, #1
 80051c4:	e7c9      	b.n	800515a <quorem+0x94>
 80051c6:	6812      	ldr	r2, [r2, #0]
 80051c8:	3b04      	subs	r3, #4
 80051ca:	2a00      	cmp	r2, #0
 80051cc:	d1f0      	bne.n	80051b0 <quorem+0xea>
 80051ce:	3c01      	subs	r4, #1
 80051d0:	e7eb      	b.n	80051aa <quorem+0xe4>
 80051d2:	2000      	movs	r0, #0
 80051d4:	e7ee      	b.n	80051b4 <quorem+0xee>
	...

080051d8 <_dtoa_r>:
 80051d8:	e92d 4ff0 	stmdb	sp!, {r4, r5, r6, r7, r8, r9, sl, fp, lr}
 80051dc:	ed2d 8b04 	vpush	{d8-d9}
 80051e0:	69c5      	ldr	r5, [r0, #28]
 80051e2:	b093      	sub	sp, #76	; 0x4c
 80051e4:	ed8d 0b02 	vstr	d0, [sp, #8]
 80051e8:	ec57 6b10 	vmov	r6, r7, d0
 80051ec:	f8dd 8080 	ldr.w	r8, [sp, #128]	; 0x80
 80051f0:	9107      	str	r1, [sp, #28]
 80051f2:	4604      	mov	r4, r0
 80051f4:	920a      	str	r2, [sp, #40]	; 0x28
 80051f6:	930d      	str	r3, [sp, #52]	; 0x34
 80051f8:	b975      	cbnz	r5, 8005218 <_dtoa_r+0x40>
 80051fa:	2010      	movs	r0, #16
 80051fc:	f000 fe2a 	bl	8005e54 <malloc>
 8005200:	4602      	mov	r2, r0
 8005202:	61e0      	str	r0, [r4, #28]
 8005204:	b920      	cbnz	r0, 8005210 <_dtoa_r+0x38>
 8005206:	4bae      	ldr	r3, [pc, #696]	; (80054c0 <_dtoa_r+0x2e8>)
 8005208:	21ef      	movs	r1, #239	; 0xef
 800520a:	48ae      	ldr	r0, [pc, #696]	; (80054c4 <_dtoa_r+0x2ec>)
 800520c:	f001 fe58 	bl	8006ec0 <__assert_func>
 8005210:	e9c0 5501 	strd	r5, r5, [r0, #4]
 8005214:	6005      	str	r5, [r0, #0]
 8005216:	60c5      	str	r5, [r0, #12]
 8005218:	69e3      	ldr	r3, [r4, #28]
 800521a:	6819      	ldr	r1, [r3, #0]
 800521c:	b151      	cbz	r1, 8005234 <_dtoa_r+0x5c>
 800521e:	685a      	ldr	r2, [r3, #4]
 8005220:	604a      	str	r2, [r1, #4]
 8005222:	2301      	movs	r3, #1
 8005224:	4093      	lsls	r3, r2
 8005226:	608b      	str	r3, [r1, #8]
 8005228:	4620      	mov	r0, r4
 800522a:	f000 ff07 	bl	800603c <_Bfree>
 800522e:	69e3      	ldr	r3, [r4, #28]
 8005230:	2200      	movs	r2, #0
 8005232:	601a      	str	r2, [r3, #0]
 8005234:	1e3b      	subs	r3, r7, #0
 8005236:	bfbb      	ittet	lt
 8005238:	f023 4300 	biclt.w	r3, r3, #2147483648	; 0x80000000
 800523c:	9303      	strlt	r3, [sp, #12]
 800523e:	2300      	movge	r3, #0
 8005240:	2201      	movlt	r2, #1
 8005242:	bfac      	ite	ge
 8005244:	f8c8 3000 	strge.w	r3, [r8]
 8005248:	f8c8 2000 	strlt.w	r2, [r8]
 800524c:	4b9e      	ldr	r3, [pc, #632]	; (80054c8 <_dtoa_r+0x2f0>)
 800524e:	f8dd 800c 	ldr.w	r8, [sp, #12]
 8005252:	ea33 0308 	bics.w	r3, r3, r8
 8005256:	d11b      	bne.n	8005290 <_dtoa_r+0xb8>
 8005258:	9a0d      	ldr	r2, [sp, #52]	; 0x34
 800525a:	f242 730f 	movw	r3, #9999	; 0x270f
 800525e:	6013      	str	r3, [r2, #0]
 8005260:	f3c8 0313 	ubfx	r3, r8, #0, #20
 8005264:	4333      	orrs	r3, r6
 8005266:	f000 8593 	beq.w	8005d90 <_dtoa_r+0xbb8>
 800526a:	9b21      	ldr	r3, [sp, #132]	; 0x84
 800526c:	b963      	cbnz	r3, 8005288 <_dtoa_r+0xb0>
 800526e:	4b97      	ldr	r3, [pc, #604]	; (80054cc <_dtoa_r+0x2f4>)
 8005270:	e027      	b.n	80052c2 <_dtoa_r+0xea>
 8005272:	4b97      	ldr	r3, [pc, #604]	; (80054d0 <_dtoa_r+0x2f8>)
 8005274:	9300      	str	r3, [sp, #0]
 8005276:	3308      	adds	r3, #8
 8005278:	9a21      	ldr	r2, [sp, #132]	; 0x84
 800527a:	6013      	str	r3, [r2, #0]
 800527c:	9800      	ldr	r0, [sp, #0]
 800527e:	b013      	add	sp, #76	; 0x4c
 8005280:	ecbd 8b04 	vpop	{d8-d9}
 8005284:	e8bd 8ff0 	ldmia.w	sp!, {r4, r5, r6, r7, r8, r9, sl, fp, pc}
 8005288:	4b90      	ldr	r3, [pc, #576]	; (80054cc <_dtoa_r+0x2f4>)
 800528a:	9300      	str	r3, [sp, #0]
 800528c:	3303      	adds	r3, #3
 800528e:	e7f3      	b.n	8005278 <_dtoa_r+0xa0>
 8005290:	ed9d 7b02 	vldr	d7, [sp, #8]
 8005294:	2200      	movs	r2, #0
 8005296:	ec51 0b17 	vmov	r0, r1, d7
 800529a:	eeb0 8a47 	vmov.f32	s16, s14
 800529e:	eef0 8a67 	vmov.f32	s17, s15
 80052a2:	2300      	movs	r3, #0
 80052a4:	f7fb fc10 	bl	8000ac8 <__aeabi_dcmpeq>
 80052a8:	4681      	mov	r9, r0
 80052aa:	b160      	cbz	r0, 80052c6 <_dtoa_r+0xee>
 80052ac:	9a0d      	ldr	r2, [sp, #52]	; 0x34
 80052ae:	2301      	movs	r3, #1
 80052b0:	6013      	str	r3, [r2, #0]
 80052b2:	9b21      	ldr	r3, [sp, #132]	; 0x84
 80052b4:	2b00      	cmp	r3, #0
 80052b6:	f000 8568 	beq.w	8005d8a <_dtoa_r+0xbb2>
 80052ba:	4b86      	ldr	r3, [pc, #536]	; (80054d4 <_dtoa_r+0x2fc>)
 80052bc:	9a21      	ldr	r2, [sp, #132]	; 0x84
 80052be:	6013      	str	r3, [r2, #0]
 80052c0:	3b01      	subs	r3, #1
 80052c2:	9300      	str	r3, [sp, #0]
 80052c4:	e7da      	b.n	800527c <_dtoa_r+0xa4>
 80052c6:	aa10      	add	r2, sp, #64	; 0x40
 80052c8:	a911      	add	r1, sp, #68	; 0x44
 80052ca:	4620      	mov	r0, r4
 80052cc:	eeb0 0a48 	vmov.f32	s0, s16
 80052d0:	eef0 0a68 	vmov.f32	s1, s17
 80052d4:	f001 f994 	bl	8006600 <__d2b>
 80052d8:	f3c8 550a 	ubfx	r5, r8, #20, #11
 80052dc:	4682      	mov	sl, r0
 80052de:	2d00      	cmp	r5, #0
 80052e0:	d07f      	beq.n	80053e2 <_dtoa_r+0x20a>
 80052e2:	ee18 3a90 	vmov	r3, s17
 80052e6:	f3c3 0313 	ubfx	r3, r3, #0, #20
 80052ea:	f043 537f 	orr.w	r3, r3, #1069547520	; 0x3fc00000
 80052ee:	ec51 0b18 	vmov	r0, r1, d8
 80052f2:	f443 1340 	orr.w	r3, r3, #3145728	; 0x300000
 80052f6:	f2a5 35ff 	subw	r5, r5, #1023	; 0x3ff
 80052fa:	f8cd 9038 	str.w	r9, [sp, #56]	; 0x38
 80052fe:	4619      	mov	r1, r3
 8005300:	2200      	movs	r2, #0
 8005302:	4b75      	ldr	r3, [pc, #468]	; (80054d8 <_dtoa_r+0x300>)
 8005304:	f7fa ffc0 	bl	8000288 <__aeabi_dsub>
 8005308:	a367      	add	r3, pc, #412	; (adr r3, 80054a8 <_dtoa_r+0x2d0>)
 800530a:	e9d3 2300 	ldrd	r2, r3, [r3]
 800530e:	f7fb f973 	bl	80005f8 <__aeabi_dmul>
 8005312:	a367      	add	r3, pc, #412	; (adr r3, 80054b0 <_dtoa_r+0x2d8>)
 8005314:	e9d3 2300 	ldrd	r2, r3, [r3]
 8005318:	f7fa ffb8 	bl	800028c <__adddf3>
 800531c:	4606      	mov	r6, r0
 800531e:	4628      	mov	r0, r5
 8005320:	460f      	mov	r7, r1
 8005322:	f7fb f8ff 	bl	8000524 <__aeabi_i2d>
 8005326:	a364      	add	r3, pc, #400	; (adr r3, 80054b8 <_dtoa_r+0x2e0>)
 8005328:	e9d3 2300 	ldrd	r2, r3, [r3]
 800532c:	f7fb f964 	bl	80005f8 <__aeabi_dmul>
 8005330:	4602      	mov	r2, r0
 8005332:	460b      	mov	r3, r1
 8005334:	4630      	mov	r0, r6
 8005336:	4639      	mov	r1, r7
 8005338:	f7fa ffa8 	bl	800028c <__adddf3>
 800533c:	4606      	mov	r6, r0
 800533e:	460f      	mov	r7, r1
 8005340:	f7fb fc0a 	bl	8000b58 <__aeabi_d2iz>
 8005344:	2200      	movs	r2, #0
 8005346:	4683      	mov	fp, r0
 8005348:	2300      	movs	r3, #0
 800534a:	4630      	mov	r0, r6
 800534c:	4639      	mov	r1, r7
 800534e:	f7fb fbc5 	bl	8000adc <__aeabi_dcmplt>
 8005352:	b148      	cbz	r0, 8005368 <_dtoa_r+0x190>
 8005354:	4658      	mov	r0, fp
 8005356:	f7fb f8e5 	bl	8000524 <__aeabi_i2d>
 800535a:	4632      	mov	r2, r6
 800535c:	463b      	mov	r3, r7
 800535e:	f7fb fbb3 	bl	8000ac8 <__aeabi_dcmpeq>
 8005362:	b908      	cbnz	r0, 8005368 <_dtoa_r+0x190>
 8005364:	f10b 3bff 	add.w	fp, fp, #4294967295	; 0xffffffff
 8005368:	f1bb 0f16 	cmp.w	fp, #22
 800536c:	d857      	bhi.n	800541e <_dtoa_r+0x246>
 800536e:	4b5b      	ldr	r3, [pc, #364]	; (80054dc <_dtoa_r+0x304>)
 8005370:	eb03 03cb 	add.w	r3, r3, fp, lsl #3
 8005374:	e9d3 2300 	ldrd	r2, r3, [r3]
 8005378:	ec51 0b18 	vmov	r0, r1, d8
 800537c:	f7fb fbae 	bl	8000adc <__aeabi_dcmplt>
 8005380:	2800      	cmp	r0, #0
 8005382:	d04e      	beq.n	8005422 <_dtoa_r+0x24a>
 8005384:	f10b 3bff 	add.w	fp, fp, #4294967295	; 0xffffffff
 8005388:	2300      	movs	r3, #0
 800538a:	930c      	str	r3, [sp, #48]	; 0x30
 800538c:	9b10      	ldr	r3, [sp, #64]	; 0x40
 800538e:	1b5b      	subs	r3, r3, r5
 8005390:	1e5a      	subs	r2, r3, #1
 8005392:	bf45      	ittet	mi
 8005394:	f1c3 0301 	rsbmi	r3, r3, #1
 8005398:	9305      	strmi	r3, [sp, #20]
 800539a:	2300      	movpl	r3, #0
 800539c:	2300      	movmi	r3, #0
 800539e:	9206      	str	r2, [sp, #24]
 80053a0:	bf54      	ite	pl
 80053a2:	9305      	strpl	r3, [sp, #20]
 80053a4:	9306      	strmi	r3, [sp, #24]
 80053a6:	f1bb 0f00 	cmp.w	fp, #0
 80053aa:	db3c      	blt.n	8005426 <_dtoa_r+0x24e>
 80053ac:	9b06      	ldr	r3, [sp, #24]
 80053ae:	f8cd b02c 	str.w	fp, [sp, #44]	; 0x2c
 80053b2:	445b      	add	r3, fp
 80053b4:	9306      	str	r3, [sp, #24]
 80053b6:	2300      	movs	r3, #0
 80053b8:	9308      	str	r3, [sp, #32]
 80053ba:	9b07      	ldr	r3, [sp, #28]
 80053bc:	2b09      	cmp	r3, #9
 80053be:	d868      	bhi.n	8005492 <_dtoa_r+0x2ba>
 80053c0:	2b05      	cmp	r3, #5
 80053c2:	bfc4      	itt	gt
 80053c4:	3b04      	subgt	r3, #4
 80053c6:	9307      	strgt	r3, [sp, #28]
 80053c8:	9b07      	ldr	r3, [sp, #28]
 80053ca:	f1a3 0302 	sub.w	r3, r3, #2
 80053ce:	bfcc      	ite	gt
 80053d0:	2500      	movgt	r5, #0
 80053d2:	2501      	movle	r5, #1
 80053d4:	2b03      	cmp	r3, #3
 80053d6:	f200 8085 	bhi.w	80054e4 <_dtoa_r+0x30c>
 80053da:	e8df f003 	tbb	[pc, r3]
 80053de:	3b2e      	.short	0x3b2e
 80053e0:	5839      	.short	0x5839
 80053e2:	e9dd 5310 	ldrd	r5, r3, [sp, #64]	; 0x40
 80053e6:	441d      	add	r5, r3
 80053e8:	f205 4332 	addw	r3, r5, #1074	; 0x432
 80053ec:	2b20      	cmp	r3, #32
 80053ee:	bfc1      	itttt	gt
 80053f0:	f1c3 0340 	rsbgt	r3, r3, #64	; 0x40
 80053f4:	fa08 f803 	lslgt.w	r8, r8, r3
 80053f8:	f205 4312 	addwgt	r3, r5, #1042	; 0x412
 80053fc:	fa26 f303 	lsrgt.w	r3, r6, r3
 8005400:	bfd6      	itet	le
 8005402:	f1c3 0320 	rsble	r3, r3, #32
 8005406:	ea48 0003 	orrgt.w	r0, r8, r3
 800540a:	fa06 f003 	lslle.w	r0, r6, r3
 800540e:	f7fb f879 	bl	8000504 <__aeabi_ui2d>
 8005412:	2201      	movs	r2, #1
 8005414:	f1a1 73f8 	sub.w	r3, r1, #32505856	; 0x1f00000
 8005418:	3d01      	subs	r5, #1
 800541a:	920e      	str	r2, [sp, #56]	; 0x38
 800541c:	e76f      	b.n	80052fe <_dtoa_r+0x126>
 800541e:	2301      	movs	r3, #1
 8005420:	e7b3      	b.n	800538a <_dtoa_r+0x1b2>
 8005422:	900c      	str	r0, [sp, #48]	; 0x30
 8005424:	e7b2      	b.n	800538c <_dtoa_r+0x1b4>
 8005426:	9b05      	ldr	r3, [sp, #20]
 8005428:	eba3 030b 	sub.w	r3, r3, fp
 800542c:	9305      	str	r3, [sp, #20]
 800542e:	f1cb 0300 	rsb	r3, fp, #0
 8005432:	9308      	str	r3, [sp, #32]
 8005434:	2300      	movs	r3, #0
 8005436:	930b      	str	r3, [sp, #44]	; 0x2c
 8005438:	e7bf      	b.n	80053ba <_dtoa_r+0x1e2>
 800543a:	2300      	movs	r3, #0
 800543c:	9309      	str	r3, [sp, #36]	; 0x24
 800543e:	9b0a      	ldr	r3, [sp, #40]	; 0x28
 8005440:	2b00      	cmp	r3, #0
 8005442:	dc52      	bgt.n	80054ea <_dtoa_r+0x312>
 8005444:	2301      	movs	r3, #1
 8005446:	9301      	str	r3, [sp, #4]
 8005448:	9304      	str	r3, [sp, #16]
 800544a:	461a      	mov	r2, r3
 800544c:	920a      	str	r2, [sp, #40]	; 0x28
 800544e:	e00b      	b.n	8005468 <_dtoa_r+0x290>
 8005450:	2301      	movs	r3, #1
 8005452:	e7f3      	b.n	800543c <_dtoa_r+0x264>
 8005454:	2300      	movs	r3, #0
 8005456:	9309      	str	r3, [sp, #36]	; 0x24
 8005458:	9b0a      	ldr	r3, [sp, #40]	; 0x28
 800545a:	445b      	add	r3, fp
 800545c:	9301      	str	r3, [sp, #4]
 800545e:	3301      	adds	r3, #1
 8005460:	2b01      	cmp	r3, #1
 8005462:	9304      	str	r3, [sp, #16]
 8005464:	bfb8      	it	lt
 8005466:	2301      	movlt	r3, #1
 8005468:	69e0      	ldr	r0, [r4, #28]
 800546a:	2100      	movs	r1, #0
 800546c:	2204      	movs	r2, #4
 800546e:	f102 0614 	add.w	r6, r2, #20
 8005472:	429e      	cmp	r6, r3
 8005474:	d93d      	bls.n	80054f2 <_dtoa_r+0x31a>
 8005476:	6041      	str	r1, [r0, #4]
 8005478:	4620      	mov	r0, r4
 800547a:	f000 fd9f 	bl	8005fbc <_Balloc>
 800547e:	9000      	str	r0, [sp, #0]
 8005480:	2800      	cmp	r0, #0
 8005482:	d139      	bne.n	80054f8 <_dtoa_r+0x320>
 8005484:	4b16      	ldr	r3, [pc, #88]	; (80054e0 <_dtoa_r+0x308>)
 8005486:	4602      	mov	r2, r0
 8005488:	f240 11af 	movw	r1, #431	; 0x1af
 800548c:	e6bd      	b.n	800520a <_dtoa_r+0x32>
 800548e:	2301      	movs	r3, #1
 8005490:	e7e1      	b.n	8005456 <_dtoa_r+0x27e>
 8005492:	2501      	movs	r5, #1
 8005494:	2300      	movs	r3, #0
 8005496:	9307      	str	r3, [sp, #28]
 8005498:	9509      	str	r5, [sp, #36]	; 0x24
 800549a:	f04f 33ff 	mov.w	r3, #4294967295	; 0xffffffff
 800549e:	9301      	str	r3, [sp, #4]
 80054a0:	9304      	str	r3, [sp, #16]
 80054a2:	2200      	movs	r2, #0
 80054a4:	2312      	movs	r3, #18
 80054a6:	e7d1      	b.n	800544c <_dtoa_r+0x274>
 80054a8:	636f4361 	.word	0x636f4361
 80054ac:	3fd287a7 	.word	0x3fd287a7
 80054b0:	8b60c8b3 	.word	0x8b60c8b3
 80054b4:	3fc68a28 	.word	0x3fc68a28
 80054b8:	509f79fb 	.word	0x509f79fb
 80054bc:	3fd34413 	.word	0x3fd34413
 80054c0:	0800741d 	.word	0x0800741d
 80054c4:	08007434 	.word	0x08007434
 80054c8:	7ff00000 	.word	0x7ff00000
 80054cc:	08007419 	.word	0x08007419
 80054d0:	08007410 	.word	0x08007410
 80054d4:	080073ed 	.word	0x080073ed
 80054d8:	3ff80000 	.word	0x3ff80000
 80054dc:	08007520 	.word	0x08007520
 80054e0:	0800748c 	.word	0x0800748c
 80054e4:	2301      	movs	r3, #1
 80054e6:	9309      	str	r3, [sp, #36]	; 0x24
 80054e8:	e7d7      	b.n	800549a <_dtoa_r+0x2c2>
 80054ea:	9b0a      	ldr	r3, [sp, #40]	; 0x28
 80054ec:	9301      	str	r3, [sp, #4]
 80054ee:	9304      	str	r3, [sp, #16]
 80054f0:	e7ba      	b.n	8005468 <_dtoa_r+0x290>
 80054f2:	3101      	adds	r1, #1
 80054f4:	0052      	lsls	r2, r2, #1
 80054f6:	e7ba      	b.n	800546e <_dtoa_r+0x296>
 80054f8:	69e3      	ldr	r3, [r4, #28]
 80054fa:	9a00      	ldr	r2, [sp, #0]
 80054fc:	601a      	str	r2, [r3, #0]
 80054fe:	9b04      	ldr	r3, [sp, #16]
 8005500:	2b0e      	cmp	r3, #14
 8005502:	f200 80a8 	bhi.w	8005656 <_dtoa_r+0x47e>
 8005506:	2d00      	cmp	r5, #0
 8005508:	f000 80a5 	beq.w	8005656 <_dtoa_r+0x47e>
 800550c:	f1bb 0f00 	cmp.w	fp, #0
 8005510:	dd38      	ble.n	8005584 <_dtoa_r+0x3ac>
 8005512:	4bc0      	ldr	r3, [pc, #768]	; (8005814 <_dtoa_r+0x63c>)
 8005514:	f00b 020f 	and.w	r2, fp, #15
 8005518:	eb03 03c2 	add.w	r3, r3, r2, lsl #3
 800551c:	f41b 7f80 	tst.w	fp, #256	; 0x100
 8005520:	e9d3 6700 	ldrd	r6, r7, [r3]
 8005524:	ea4f 182b 	mov.w	r8, fp, asr #4
 8005528:	d019      	beq.n	800555e <_dtoa_r+0x386>
 800552a:	4bbb      	ldr	r3, [pc, #748]	; (8005818 <_dtoa_r+0x640>)
 800552c:	ec51 0b18 	vmov	r0, r1, d8
 8005530:	e9d3 2308 	ldrd	r2, r3, [r3, #32]
 8005534:	f7fb f98a 	bl	800084c <__aeabi_ddiv>
 8005538:	e9cd 0102 	strd	r0, r1, [sp, #8]
 800553c:	f008 080f 	and.w	r8, r8, #15
 8005540:	2503      	movs	r5, #3
 8005542:	f8df 92d4 	ldr.w	r9, [pc, #724]	; 8005818 <_dtoa_r+0x640>
 8005546:	f1b8 0f00 	cmp.w	r8, #0
 800554a:	d10a      	bne.n	8005562 <_dtoa_r+0x38a>
 800554c:	e9dd 0102 	ldrd	r0, r1, [sp, #8]
 8005550:	4632      	mov	r2, r6
 8005552:	463b      	mov	r3, r7
 8005554:	f7fb f97a 	bl	800084c <__aeabi_ddiv>
 8005558:	e9cd 0102 	strd	r0, r1, [sp, #8]
 800555c:	e02b      	b.n	80055b6 <_dtoa_r+0x3de>
 800555e:	2502      	movs	r5, #2
 8005560:	e7ef      	b.n	8005542 <_dtoa_r+0x36a>
 8005562:	f018 0f01 	tst.w	r8, #1
 8005566:	d008      	beq.n	800557a <_dtoa_r+0x3a2>
 8005568:	4630      	mov	r0, r6
 800556a:	4639      	mov	r1, r7
 800556c:	e9d9 2300 	ldrd	r2, r3, [r9]
 8005570:	f7fb f842 	bl	80005f8 <__aeabi_dmul>
 8005574:	3501      	adds	r5, #1
 8005576:	4606      	mov	r6, r0
 8005578:	460f      	mov	r7, r1
 800557a:	ea4f 0868 	mov.w	r8, r8, asr #1
 800557e:	f109 0908 	add.w	r9, r9, #8
 8005582:	e7e0      	b.n	8005546 <_dtoa_r+0x36e>
 8005584:	f000 809f 	beq.w	80056c6 <_dtoa_r+0x4ee>
 8005588:	f1cb 0600 	rsb	r6, fp, #0
 800558c:	4ba1      	ldr	r3, [pc, #644]	; (8005814 <_dtoa_r+0x63c>)
 800558e:	4fa2      	ldr	r7, [pc, #648]	; (8005818 <_dtoa_r+0x640>)
 8005590:	f006 020f 	and.w	r2, r6, #15
 8005594:	eb03 03c2 	add.w	r3, r3, r2, lsl #3
 8005598:	e9d3 2300 	ldrd	r2, r3, [r3]
 800559c:	ec51 0b18 	vmov	r0, r1, d8
 80055a0:	f7fb f82a 	bl	80005f8 <__aeabi_dmul>
 80055a4:	e9cd 0102 	strd	r0, r1, [sp, #8]
 80055a8:	1136      	asrs	r6, r6, #4
 80055aa:	2300      	movs	r3, #0
 80055ac:	2502      	movs	r5, #2
 80055ae:	2e00      	cmp	r6, #0
 80055b0:	d17e      	bne.n	80056b0 <_dtoa_r+0x4d8>
 80055b2:	2b00      	cmp	r3, #0
 80055b4:	d1d0      	bne.n	8005558 <_dtoa_r+0x380>
 80055b6:	9b0c      	ldr	r3, [sp, #48]	; 0x30
 80055b8:	e9dd 8902 	ldrd	r8, r9, [sp, #8]
 80055bc:	2b00      	cmp	r3, #0
 80055be:	f000 8084 	beq.w	80056ca <_dtoa_r+0x4f2>
 80055c2:	4b96      	ldr	r3, [pc, #600]	; (800581c <_dtoa_r+0x644>)
 80055c4:	2200      	movs	r2, #0
 80055c6:	4640      	mov	r0, r8
 80055c8:	4649      	mov	r1, r9
 80055ca:	f7fb fa87 	bl	8000adc <__aeabi_dcmplt>
 80055ce:	2800      	cmp	r0, #0
 80055d0:	d07b      	beq.n	80056ca <_dtoa_r+0x4f2>
 80055d2:	9b04      	ldr	r3, [sp, #16]
 80055d4:	2b00      	cmp	r3, #0
 80055d6:	d078      	beq.n	80056ca <_dtoa_r+0x4f2>
 80055d8:	9b01      	ldr	r3, [sp, #4]
 80055da:	2b00      	cmp	r3, #0
 80055dc:	dd39      	ble.n	8005652 <_dtoa_r+0x47a>
 80055de:	4b90      	ldr	r3, [pc, #576]	; (8005820 <_dtoa_r+0x648>)
 80055e0:	2200      	movs	r2, #0
 80055e2:	4640      	mov	r0, r8
 80055e4:	4649      	mov	r1, r9
 80055e6:	f7fb f807 	bl	80005f8 <__aeabi_dmul>
 80055ea:	e9cd 0102 	strd	r0, r1, [sp, #8]
 80055ee:	9e01      	ldr	r6, [sp, #4]
 80055f0:	f10b 37ff 	add.w	r7, fp, #4294967295	; 0xffffffff
 80055f4:	3501      	adds	r5, #1
 80055f6:	e9dd 8902 	ldrd	r8, r9, [sp, #8]
 80055fa:	4628      	mov	r0, r5
 80055fc:	f7fa ff92 	bl	8000524 <__aeabi_i2d>
 8005600:	4642      	mov	r2, r8
 8005602:	464b      	mov	r3, r9
 8005604:	f7fa fff8 	bl	80005f8 <__aeabi_dmul>
 8005608:	4b86      	ldr	r3, [pc, #536]	; (8005824 <_dtoa_r+0x64c>)
 800560a:	2200      	movs	r2, #0
 800560c:	f7fa fe3e 	bl	800028c <__adddf3>
 8005610:	f1a1 7350 	sub.w	r3, r1, #54525952	; 0x3400000
 8005614:	e9cd 0102 	strd	r0, r1, [sp, #8]
 8005618:	9303      	str	r3, [sp, #12]
 800561a:	2e00      	cmp	r6, #0
 800561c:	d158      	bne.n	80056d0 <_dtoa_r+0x4f8>
 800561e:	4b82      	ldr	r3, [pc, #520]	; (8005828 <_dtoa_r+0x650>)
 8005620:	2200      	movs	r2, #0
 8005622:	4640      	mov	r0, r8
 8005624:	4649      	mov	r1, r9
 8005626:	f7fa fe2f 	bl	8000288 <__aeabi_dsub>
 800562a:	e9dd 2302 	ldrd	r2, r3, [sp, #8]
 800562e:	4680      	mov	r8, r0
 8005630:	4689      	mov	r9, r1
 8005632:	f7fb fa71 	bl	8000b18 <__aeabi_dcmpgt>
 8005636:	2800      	cmp	r0, #0
 8005638:	f040 8296 	bne.w	8005b68 <_dtoa_r+0x990>
 800563c:	e9dd 2102 	ldrd	r2, r1, [sp, #8]
 8005640:	4640      	mov	r0, r8
 8005642:	f101 4300 	add.w	r3, r1, #2147483648	; 0x80000000
 8005646:	4649      	mov	r1, r9
 8005648:	f7fb fa48 	bl	8000adc <__aeabi_dcmplt>
 800564c:	2800      	cmp	r0, #0
 800564e:	f040 8289 	bne.w	8005b64 <_dtoa_r+0x98c>
 8005652:	ed8d 8b02 	vstr	d8, [sp, #8]
 8005656:	9b11      	ldr	r3, [sp, #68]	; 0x44
 8005658:	2b00      	cmp	r3, #0
 800565a:	f2c0 814e 	blt.w	80058fa <_dtoa_r+0x722>
 800565e:	f1bb 0f0e 	cmp.w	fp, #14
 8005662:	f300 814a 	bgt.w	80058fa <_dtoa_r+0x722>
 8005666:	4b6b      	ldr	r3, [pc, #428]	; (8005814 <_dtoa_r+0x63c>)
 8005668:	eb03 03cb 	add.w	r3, r3, fp, lsl #3
 800566c:	e9d3 8900 	ldrd	r8, r9, [r3]
 8005670:	9b0a      	ldr	r3, [sp, #40]	; 0x28
 8005672:	2b00      	cmp	r3, #0
 8005674:	f280 80dc 	bge.w	8005830 <_dtoa_r+0x658>
 8005678:	9b04      	ldr	r3, [sp, #16]
 800567a:	2b00      	cmp	r3, #0
 800567c:	f300 80d8 	bgt.w	8005830 <_dtoa_r+0x658>
 8005680:	f040 826f 	bne.w	8005b62 <_dtoa_r+0x98a>
 8005684:	4b68      	ldr	r3, [pc, #416]	; (8005828 <_dtoa_r+0x650>)
 8005686:	2200      	movs	r2, #0
 8005688:	4640      	mov	r0, r8
 800568a:	4649      	mov	r1, r9
 800568c:	f7fa ffb4 	bl	80005f8 <__aeabi_dmul>
 8005690:	e9dd 2302 	ldrd	r2, r3, [sp, #8]
 8005694:	f7fb fa36 	bl	8000b04 <__aeabi_dcmpge>
 8005698:	9e04      	ldr	r6, [sp, #16]
 800569a:	4637      	mov	r7, r6
 800569c:	2800      	cmp	r0, #0
 800569e:	f040 8245 	bne.w	8005b2c <_dtoa_r+0x954>
 80056a2:	9d00      	ldr	r5, [sp, #0]
 80056a4:	2331      	movs	r3, #49	; 0x31
 80056a6:	f805 3b01 	strb.w	r3, [r5], #1
 80056aa:	f10b 0b01 	add.w	fp, fp, #1
 80056ae:	e241      	b.n	8005b34 <_dtoa_r+0x95c>
 80056b0:	07f2      	lsls	r2, r6, #31
 80056b2:	d505      	bpl.n	80056c0 <_dtoa_r+0x4e8>
 80056b4:	e9d7 2300 	ldrd	r2, r3, [r7]
 80056b8:	f7fa ff9e 	bl	80005f8 <__aeabi_dmul>
 80056bc:	3501      	adds	r5, #1
 80056be:	2301      	movs	r3, #1
 80056c0:	1076      	asrs	r6, r6, #1
 80056c2:	3708      	adds	r7, #8
 80056c4:	e773      	b.n	80055ae <_dtoa_r+0x3d6>
 80056c6:	2502      	movs	r5, #2
 80056c8:	e775      	b.n	80055b6 <_dtoa_r+0x3de>
 80056ca:	9e04      	ldr	r6, [sp, #16]
 80056cc:	465f      	mov	r7, fp
 80056ce:	e792      	b.n	80055f6 <_dtoa_r+0x41e>
 80056d0:	9900      	ldr	r1, [sp, #0]
 80056d2:	4b50      	ldr	r3, [pc, #320]	; (8005814 <_dtoa_r+0x63c>)
 80056d4:	ed9d 7b02 	vldr	d7, [sp, #8]
 80056d8:	4431      	add	r1, r6
 80056da:	9102      	str	r1, [sp, #8]
 80056dc:	9909      	ldr	r1, [sp, #36]	; 0x24
 80056de:	eeb0 9a47 	vmov.f32	s18, s14
 80056e2:	eef0 9a67 	vmov.f32	s19, s15
 80056e6:	eb03 03c6 	add.w	r3, r3, r6, lsl #3
 80056ea:	e953 2302 	ldrd	r2, r3, [r3, #-8]
 80056ee:	2900      	cmp	r1, #0
 80056f0:	d044      	beq.n	800577c <_dtoa_r+0x5a4>
 80056f2:	494e      	ldr	r1, [pc, #312]	; (800582c <_dtoa_r+0x654>)
 80056f4:	2000      	movs	r0, #0
 80056f6:	f7fb f8a9 	bl	800084c <__aeabi_ddiv>
 80056fa:	ec53 2b19 	vmov	r2, r3, d9
 80056fe:	f7fa fdc3 	bl	8000288 <__aeabi_dsub>
 8005702:	9d00      	ldr	r5, [sp, #0]
 8005704:	ec41 0b19 	vmov	d9, r0, r1
 8005708:	4649      	mov	r1, r9
 800570a:	4640      	mov	r0, r8
 800570c:	f7fb fa24 	bl	8000b58 <__aeabi_d2iz>
 8005710:	4606      	mov	r6, r0
 8005712:	f7fa ff07 	bl	8000524 <__aeabi_i2d>
 8005716:	4602      	mov	r2, r0
 8005718:	460b      	mov	r3, r1
 800571a:	4640      	mov	r0, r8
 800571c:	4649      	mov	r1, r9
 800571e:	f7fa fdb3 	bl	8000288 <__aeabi_dsub>
 8005722:	3630      	adds	r6, #48	; 0x30
 8005724:	f805 6b01 	strb.w	r6, [r5], #1
 8005728:	ec53 2b19 	vmov	r2, r3, d9
 800572c:	4680      	mov	r8, r0
 800572e:	4689      	mov	r9, r1
 8005730:	f7fb f9d4 	bl	8000adc <__aeabi_dcmplt>
 8005734:	2800      	cmp	r0, #0
 8005736:	d164      	bne.n	8005802 <_dtoa_r+0x62a>
 8005738:	4642      	mov	r2, r8
 800573a:	464b      	mov	r3, r9
 800573c:	4937      	ldr	r1, [pc, #220]	; (800581c <_dtoa_r+0x644>)
 800573e:	2000      	movs	r0, #0
 8005740:	f7fa fda2 	bl	8000288 <__aeabi_dsub>
 8005744:	ec53 2b19 	vmov	r2, r3, d9
 8005748:	f7fb f9c8 	bl	8000adc <__aeabi_dcmplt>
 800574c:	2800      	cmp	r0, #0
 800574e:	f040 80b6 	bne.w	80058be <_dtoa_r+0x6e6>
 8005752:	9b02      	ldr	r3, [sp, #8]
 8005754:	429d      	cmp	r5, r3
 8005756:	f43f af7c 	beq.w	8005652 <_dtoa_r+0x47a>
 800575a:	4b31      	ldr	r3, [pc, #196]	; (8005820 <_dtoa_r+0x648>)
 800575c:	ec51 0b19 	vmov	r0, r1, d9
 8005760:	2200      	movs	r2, #0
 8005762:	f7fa ff49 	bl	80005f8 <__aeabi_dmul>
 8005766:	4b2e      	ldr	r3, [pc, #184]	; (8005820 <_dtoa_r+0x648>)
 8005768:	ec41 0b19 	vmov	d9, r0, r1
 800576c:	2200      	movs	r2, #0
 800576e:	4640      	mov	r0, r8
 8005770:	4649      	mov	r1, r9
 8005772:	f7fa ff41 	bl	80005f8 <__aeabi_dmul>
 8005776:	4680      	mov	r8, r0
 8005778:	4689      	mov	r9, r1
 800577a:	e7c5      	b.n	8005708 <_dtoa_r+0x530>
 800577c:	ec51 0b17 	vmov	r0, r1, d7
 8005780:	f7fa ff3a 	bl	80005f8 <__aeabi_dmul>
 8005784:	9b02      	ldr	r3, [sp, #8]
 8005786:	9d00      	ldr	r5, [sp, #0]
 8005788:	930f      	str	r3, [sp, #60]	; 0x3c
 800578a:	ec41 0b19 	vmov	d9, r0, r1
 800578e:	4649      	mov	r1, r9
 8005790:	4640      	mov	r0, r8
 8005792:	f7fb f9e1 	bl	8000b58 <__aeabi_d2iz>
 8005796:	4606      	mov	r6, r0
 8005798:	f7fa fec4 	bl	8000524 <__aeabi_i2d>
 800579c:	3630      	adds	r6, #48	; 0x30
 800579e:	4602      	mov	r2, r0
 80057a0:	460b      	mov	r3, r1
 80057a2:	4640      	mov	r0, r8
 80057a4:	4649      	mov	r1, r9
 80057a6:	f7fa fd6f 	bl	8000288 <__aeabi_dsub>
 80057aa:	f805 6b01 	strb.w	r6, [r5], #1
 80057ae:	9b02      	ldr	r3, [sp, #8]
 80057b0:	429d      	cmp	r5, r3
 80057b2:	4680      	mov	r8, r0
 80057b4:	4689      	mov	r9, r1
 80057b6:	f04f 0200 	mov.w	r2, #0
 80057ba:	d124      	bne.n	8005806 <_dtoa_r+0x62e>
 80057bc:	4b1b      	ldr	r3, [pc, #108]	; (800582c <_dtoa_r+0x654>)
 80057be:	ec51 0b19 	vmov	r0, r1, d9
 80057c2:	f7fa fd63 	bl	800028c <__adddf3>
 80057c6:	4602      	mov	r2, r0
 80057c8:	460b      	mov	r3, r1
 80057ca:	4640      	mov	r0, r8
 80057cc:	4649      	mov	r1, r9
 80057ce:	f7fb f9a3 	bl	8000b18 <__aeabi_dcmpgt>
 80057d2:	2800      	cmp	r0, #0
 80057d4:	d173      	bne.n	80058be <_dtoa_r+0x6e6>
 80057d6:	ec53 2b19 	vmov	r2, r3, d9
 80057da:	4914      	ldr	r1, [pc, #80]	; (800582c <_dtoa_r+0x654>)
 80057dc:	2000      	movs	r0, #0
 80057de:	f7fa fd53 	bl	8000288 <__aeabi_dsub>
 80057e2:	4602      	mov	r2, r0
 80057e4:	460b      	mov	r3, r1
 80057e6:	4640      	mov	r0, r8
 80057e8:	4649      	mov	r1, r9
 80057ea:	f7fb f977 	bl	8000adc <__aeabi_dcmplt>
 80057ee:	2800      	cmp	r0, #0
 80057f0:	f43f af2f 	beq.w	8005652 <_dtoa_r+0x47a>
 80057f4:	9d0f      	ldr	r5, [sp, #60]	; 0x3c
 80057f6:	1e6b      	subs	r3, r5, #1
 80057f8:	930f      	str	r3, [sp, #60]	; 0x3c
 80057fa:	f815 3c01 	ldrb.w	r3, [r5, #-1]
 80057fe:	2b30      	cmp	r3, #48	; 0x30
 8005800:	d0f8      	beq.n	80057f4 <_dtoa_r+0x61c>
 8005802:	46bb      	mov	fp, r7
 8005804:	e04a      	b.n	800589c <_dtoa_r+0x6c4>
 8005806:	4b06      	ldr	r3, [pc, #24]	; (8005820 <_dtoa_r+0x648>)
 8005808:	f7fa fef6 	bl	80005f8 <__aeabi_dmul>
 800580c:	4680      	mov	r8, r0
 800580e:	4689      	mov	r9, r1
 8005810:	e7bd      	b.n	800578e <_dtoa_r+0x5b6>
 8005812:	bf00      	nop
 8005814:	08007520 	.word	0x08007520
 8005818:	080074f8 	.word	0x080074f8
 800581c:	3ff00000 	.word	0x3ff00000
 8005820:	40240000 	.word	0x40240000
 8005824:	401c0000 	.word	0x401c0000
 8005828:	40140000 	.word	0x40140000
 800582c:	3fe00000 	.word	0x3fe00000
 8005830:	e9dd 6702 	ldrd	r6, r7, [sp, #8]
 8005834:	9d00      	ldr	r5, [sp, #0]
 8005836:	4642      	mov	r2, r8
 8005838:	464b      	mov	r3, r9
 800583a:	4630      	mov	r0, r6
 800583c:	4639      	mov	r1, r7
 800583e:	f7fb f805 	bl	800084c <__aeabi_ddiv>
 8005842:	f7fb f989 	bl	8000b58 <__aeabi_d2iz>
 8005846:	9001      	str	r0, [sp, #4]
 8005848:	f7fa fe6c 	bl	8000524 <__aeabi_i2d>
 800584c:	4642      	mov	r2, r8
 800584e:	464b      	mov	r3, r9
 8005850:	f7fa fed2 	bl	80005f8 <__aeabi_dmul>
 8005854:	4602      	mov	r2, r0
 8005856:	460b      	mov	r3, r1
 8005858:	4630      	mov	r0, r6
 800585a:	4639      	mov	r1, r7
 800585c:	f7fa fd14 	bl	8000288 <__aeabi_dsub>
 8005860:	9e01      	ldr	r6, [sp, #4]
 8005862:	9f04      	ldr	r7, [sp, #16]
 8005864:	3630      	adds	r6, #48	; 0x30
 8005866:	f805 6b01 	strb.w	r6, [r5], #1
 800586a:	9e00      	ldr	r6, [sp, #0]
 800586c:	1bae      	subs	r6, r5, r6
 800586e:	42b7      	cmp	r7, r6
 8005870:	4602      	mov	r2, r0
 8005872:	460b      	mov	r3, r1
 8005874:	d134      	bne.n	80058e0 <_dtoa_r+0x708>
 8005876:	f7fa fd09 	bl	800028c <__adddf3>
 800587a:	4642      	mov	r2, r8
 800587c:	464b      	mov	r3, r9
 800587e:	4606      	mov	r6, r0
 8005880:	460f      	mov	r7, r1
 8005882:	f7fb f949 	bl	8000b18 <__aeabi_dcmpgt>
 8005886:	b9c8      	cbnz	r0, 80058bc <_dtoa_r+0x6e4>
 8005888:	4642      	mov	r2, r8
 800588a:	464b      	mov	r3, r9
 800588c:	4630      	mov	r0, r6
 800588e:	4639      	mov	r1, r7
 8005890:	f7fb f91a 	bl	8000ac8 <__aeabi_dcmpeq>
 8005894:	b110      	cbz	r0, 800589c <_dtoa_r+0x6c4>
 8005896:	9b01      	ldr	r3, [sp, #4]
 8005898:	07db      	lsls	r3, r3, #31
 800589a:	d40f      	bmi.n	80058bc <_dtoa_r+0x6e4>
 800589c:	4651      	mov	r1, sl
 800589e:	4620      	mov	r0, r4
 80058a0:	f000 fbcc 	bl	800603c <_Bfree>
 80058a4:	2300      	movs	r3, #0
 80058a6:	9a0d      	ldr	r2, [sp, #52]	; 0x34
 80058a8:	702b      	strb	r3, [r5, #0]
 80058aa:	f10b 0301 	add.w	r3, fp, #1
 80058ae:	6013      	str	r3, [r2, #0]
 80058b0:	9b21      	ldr	r3, [sp, #132]	; 0x84
 80058b2:	2b00      	cmp	r3, #0
 80058b4:	f43f ace2 	beq.w	800527c <_dtoa_r+0xa4>
 80058b8:	601d      	str	r5, [r3, #0]
 80058ba:	e4df      	b.n	800527c <_dtoa_r+0xa4>
 80058bc:	465f      	mov	r7, fp
 80058be:	462b      	mov	r3, r5
 80058c0:	461d      	mov	r5, r3
 80058c2:	f813 2d01 	ldrb.w	r2, [r3, #-1]!
 80058c6:	2a39      	cmp	r2, #57	; 0x39
 80058c8:	d106      	bne.n	80058d8 <_dtoa_r+0x700>
 80058ca:	9a00      	ldr	r2, [sp, #0]
 80058cc:	429a      	cmp	r2, r3
 80058ce:	d1f7      	bne.n	80058c0 <_dtoa_r+0x6e8>
 80058d0:	9900      	ldr	r1, [sp, #0]
 80058d2:	2230      	movs	r2, #48	; 0x30
 80058d4:	3701      	adds	r7, #1
 80058d6:	700a      	strb	r2, [r1, #0]
 80058d8:	781a      	ldrb	r2, [r3, #0]
 80058da:	3201      	adds	r2, #1
 80058dc:	701a      	strb	r2, [r3, #0]
 80058de:	e790      	b.n	8005802 <_dtoa_r+0x62a>
 80058e0:	4ba3      	ldr	r3, [pc, #652]	; (8005b70 <_dtoa_r+0x998>)
 80058e2:	2200      	movs	r2, #0
 80058e4:	f7fa fe88 	bl	80005f8 <__aeabi_dmul>
 80058e8:	2200      	movs	r2, #0
 80058ea:	2300      	movs	r3, #0
 80058ec:	4606      	mov	r6, r0
 80058ee:	460f      	mov	r7, r1
 80058f0:	f7fb f8ea 	bl	8000ac8 <__aeabi_dcmpeq>
 80058f4:	2800      	cmp	r0, #0
 80058f6:	d09e      	beq.n	8005836 <_dtoa_r+0x65e>
 80058f8:	e7d0      	b.n	800589c <_dtoa_r+0x6c4>
 80058fa:	9a09      	ldr	r2, [sp, #36]	; 0x24
 80058fc:	2a00      	cmp	r2, #0
 80058fe:	f000 80ca 	beq.w	8005a96 <_dtoa_r+0x8be>
 8005902:	9a07      	ldr	r2, [sp, #28]
 8005904:	2a01      	cmp	r2, #1
 8005906:	f300 80ad 	bgt.w	8005a64 <_dtoa_r+0x88c>
 800590a:	9a0e      	ldr	r2, [sp, #56]	; 0x38
 800590c:	2a00      	cmp	r2, #0
 800590e:	f000 80a5 	beq.w	8005a5c <_dtoa_r+0x884>
 8005912:	f203 4333 	addw	r3, r3, #1075	; 0x433
 8005916:	9e08      	ldr	r6, [sp, #32]
 8005918:	9d05      	ldr	r5, [sp, #20]
 800591a:	9a05      	ldr	r2, [sp, #20]
 800591c:	441a      	add	r2, r3
 800591e:	9205      	str	r2, [sp, #20]
 8005920:	9a06      	ldr	r2, [sp, #24]
 8005922:	2101      	movs	r1, #1
 8005924:	441a      	add	r2, r3
 8005926:	4620      	mov	r0, r4
 8005928:	9206      	str	r2, [sp, #24]
 800592a:	f000 fc3d 	bl	80061a8 <__i2b>
 800592e:	4607      	mov	r7, r0
 8005930:	b165      	cbz	r5, 800594c <_dtoa_r+0x774>
 8005932:	9b06      	ldr	r3, [sp, #24]
 8005934:	2b00      	cmp	r3, #0
 8005936:	dd09      	ble.n	800594c <_dtoa_r+0x774>
 8005938:	42ab      	cmp	r3, r5
 800593a:	9a05      	ldr	r2, [sp, #20]
 800593c:	bfa8      	it	ge
 800593e:	462b      	movge	r3, r5
 8005940:	1ad2      	subs	r2, r2, r3
 8005942:	9205      	str	r2, [sp, #20]
 8005944:	9a06      	ldr	r2, [sp, #24]
 8005946:	1aed      	subs	r5, r5, r3
 8005948:	1ad3      	subs	r3, r2, r3
 800594a:	9306      	str	r3, [sp, #24]
 800594c:	9b08      	ldr	r3, [sp, #32]
 800594e:	b1f3      	cbz	r3, 800598e <_dtoa_r+0x7b6>
 8005950:	9b09      	ldr	r3, [sp, #36]	; 0x24
 8005952:	2b00      	cmp	r3, #0
 8005954:	f000 80a3 	beq.w	8005a9e <_dtoa_r+0x8c6>
 8005958:	2e00      	cmp	r6, #0
 800595a:	dd10      	ble.n	800597e <_dtoa_r+0x7a6>
 800595c:	4639      	mov	r1, r7
 800595e:	4632      	mov	r2, r6
 8005960:	4620      	mov	r0, r4
 8005962:	f000 fce1 	bl	8006328 <__pow5mult>
 8005966:	4652      	mov	r2, sl
 8005968:	4601      	mov	r1, r0
 800596a:	4607      	mov	r7, r0
 800596c:	4620      	mov	r0, r4
 800596e:	f000 fc31 	bl	80061d4 <__multiply>
 8005972:	4651      	mov	r1, sl
 8005974:	4680      	mov	r8, r0
 8005976:	4620      	mov	r0, r4
 8005978:	f000 fb60 	bl	800603c <_Bfree>
 800597c:	46c2      	mov	sl, r8
 800597e:	9b08      	ldr	r3, [sp, #32]
 8005980:	1b9a      	subs	r2, r3, r6
 8005982:	d004      	beq.n	800598e <_dtoa_r+0x7b6>
 8005984:	4651      	mov	r1, sl
 8005986:	4620      	mov	r0, r4
 8005988:	f000 fcce 	bl	8006328 <__pow5mult>
 800598c:	4682      	mov	sl, r0
 800598e:	2101      	movs	r1, #1
 8005990:	4620      	mov	r0, r4
 8005992:	f000 fc09 	bl	80061a8 <__i2b>
 8005996:	9b0b      	ldr	r3, [sp, #44]	; 0x2c
 8005998:	2b00      	cmp	r3, #0
 800599a:	4606      	mov	r6, r0
 800599c:	f340 8081 	ble.w	8005aa2 <_dtoa_r+0x8ca>
 80059a0:	461a      	mov	r2, r3
 80059a2:	4601      	mov	r1, r0
 80059a4:	4620      	mov	r0, r4
 80059a6:	f000 fcbf 	bl	8006328 <__pow5mult>
 80059aa:	9b07      	ldr	r3, [sp, #28]
 80059ac:	2b01      	cmp	r3, #1
 80059ae:	4606      	mov	r6, r0
 80059b0:	dd7a      	ble.n	8005aa8 <_dtoa_r+0x8d0>
 80059b2:	f04f 0800 	mov.w	r8, #0
 80059b6:	6933      	ldr	r3, [r6, #16]
 80059b8:	eb06 0383 	add.w	r3, r6, r3, lsl #2
 80059bc:	6918      	ldr	r0, [r3, #16]
 80059be:	f000 fba5 	bl	800610c <__hi0bits>
 80059c2:	f1c0 0020 	rsb	r0, r0, #32
 80059c6:	9b06      	ldr	r3, [sp, #24]
 80059c8:	4418      	add	r0, r3
 80059ca:	f010 001f 	ands.w	r0, r0, #31
 80059ce:	f000 8094 	beq.w	8005afa <_dtoa_r+0x922>
 80059d2:	f1c0 0320 	rsb	r3, r0, #32
 80059d6:	2b04      	cmp	r3, #4
 80059d8:	f340 8085 	ble.w	8005ae6 <_dtoa_r+0x90e>
 80059dc:	9b05      	ldr	r3, [sp, #20]
 80059de:	f1c0 001c 	rsb	r0, r0, #28
 80059e2:	4403      	add	r3, r0
 80059e4:	9305      	str	r3, [sp, #20]
 80059e6:	9b06      	ldr	r3, [sp, #24]
 80059e8:	4403      	add	r3, r0
 80059ea:	4405      	add	r5, r0
 80059ec:	9306      	str	r3, [sp, #24]
 80059ee:	9b05      	ldr	r3, [sp, #20]
 80059f0:	2b00      	cmp	r3, #0
 80059f2:	dd05      	ble.n	8005a00 <_dtoa_r+0x828>
 80059f4:	4651      	mov	r1, sl
 80059f6:	461a      	mov	r2, r3
 80059f8:	4620      	mov	r0, r4
 80059fa:	f000 fcef 	bl	80063dc <__lshift>
 80059fe:	4682      	mov	sl, r0
 8005a00:	9b06      	ldr	r3, [sp, #24]
 8005a02:	2b00      	cmp	r3, #0
 8005a04:	dd05      	ble.n	8005a12 <_dtoa_r+0x83a>
 8005a06:	4631      	mov	r1, r6
 8005a08:	461a      	mov	r2, r3
 8005a0a:	4620      	mov	r0, r4
 8005a0c:	f000 fce6 	bl	80063dc <__lshift>
 8005a10:	4606      	mov	r6, r0
 8005a12:	9b0c      	ldr	r3, [sp, #48]	; 0x30
 8005a14:	2b00      	cmp	r3, #0
 8005a16:	d072      	beq.n	8005afe <_dtoa_r+0x926>
 8005a18:	4631      	mov	r1, r6
 8005a1a:	4650      	mov	r0, sl
 8005a1c:	f000 fd4a 	bl	80064b4 <__mcmp>
 8005a20:	2800      	cmp	r0, #0
 8005a22:	da6c      	bge.n	8005afe <_dtoa_r+0x926>
 8005a24:	2300      	movs	r3, #0
 8005a26:	4651      	mov	r1, sl
 8005a28:	220a      	movs	r2, #10
 8005a2a:	4620      	mov	r0, r4
 8005a2c:	f000 fb28 	bl	8006080 <__multadd>
 8005a30:	9b09      	ldr	r3, [sp, #36]	; 0x24
 8005a32:	f10b 3bff 	add.w	fp, fp, #4294967295	; 0xffffffff
 8005a36:	4682      	mov	sl, r0
 8005a38:	2b00      	cmp	r3, #0
 8005a3a:	f000 81b0 	beq.w	8005d9e <_dtoa_r+0xbc6>
 8005a3e:	2300      	movs	r3, #0
 8005a40:	4639      	mov	r1, r7
 8005a42:	220a      	movs	r2, #10
 8005a44:	4620      	mov	r0, r4
 8005a46:	f000 fb1b 	bl	8006080 <__multadd>
 8005a4a:	9b01      	ldr	r3, [sp, #4]
 8005a4c:	2b00      	cmp	r3, #0
 8005a4e:	4607      	mov	r7, r0
 8005a50:	f300 8096 	bgt.w	8005b80 <_dtoa_r+0x9a8>
 8005a54:	9b07      	ldr	r3, [sp, #28]
 8005a56:	2b02      	cmp	r3, #2
 8005a58:	dc59      	bgt.n	8005b0e <_dtoa_r+0x936>
 8005a5a:	e091      	b.n	8005b80 <_dtoa_r+0x9a8>
 8005a5c:	9b10      	ldr	r3, [sp, #64]	; 0x40
 8005a5e:	f1c3 0336 	rsb	r3, r3, #54	; 0x36
 8005a62:	e758      	b.n	8005916 <_dtoa_r+0x73e>
 8005a64:	9b04      	ldr	r3, [sp, #16]
 8005a66:	1e5e      	subs	r6, r3, #1
 8005a68:	9b08      	ldr	r3, [sp, #32]
 8005a6a:	42b3      	cmp	r3, r6
 8005a6c:	bfbf      	itttt	lt
 8005a6e:	9b08      	ldrlt	r3, [sp, #32]
 8005a70:	9a0b      	ldrlt	r2, [sp, #44]	; 0x2c
 8005a72:	9608      	strlt	r6, [sp, #32]
 8005a74:	1af3      	sublt	r3, r6, r3
 8005a76:	bfb4      	ite	lt
 8005a78:	18d2      	addlt	r2, r2, r3
 8005a7a:	1b9e      	subge	r6, r3, r6
 8005a7c:	9b04      	ldr	r3, [sp, #16]
 8005a7e:	bfbc      	itt	lt
 8005a80:	920b      	strlt	r2, [sp, #44]	; 0x2c
 8005a82:	2600      	movlt	r6, #0
 8005a84:	2b00      	cmp	r3, #0
 8005a86:	bfb7      	itett	lt
 8005a88:	e9dd 2304 	ldrdlt	r2, r3, [sp, #16]
 8005a8c:	e9dd 3504 	ldrdge	r3, r5, [sp, #16]
 8005a90:	1a9d      	sublt	r5, r3, r2
 8005a92:	2300      	movlt	r3, #0
 8005a94:	e741      	b.n	800591a <_dtoa_r+0x742>
 8005a96:	9e08      	ldr	r6, [sp, #32]
 8005a98:	9d05      	ldr	r5, [sp, #20]
 8005a9a:	9f09      	ldr	r7, [sp, #36]	; 0x24
 8005a9c:	e748      	b.n	8005930 <_dtoa_r+0x758>
 8005a9e:	9a08      	ldr	r2, [sp, #32]
 8005aa0:	e770      	b.n	8005984 <_dtoa_r+0x7ac>
 8005aa2:	9b07      	ldr	r3, [sp, #28]
 8005aa4:	2b01      	cmp	r3, #1
 8005aa6:	dc19      	bgt.n	8005adc <_dtoa_r+0x904>
 8005aa8:	9b02      	ldr	r3, [sp, #8]
 8005aaa:	b9bb      	cbnz	r3, 8005adc <_dtoa_r+0x904>
 8005aac:	9b03      	ldr	r3, [sp, #12]
 8005aae:	f3c3 0313 	ubfx	r3, r3, #0, #20
 8005ab2:	b99b      	cbnz	r3, 8005adc <_dtoa_r+0x904>
 8005ab4:	9b03      	ldr	r3, [sp, #12]
 8005ab6:	f023 4300 	bic.w	r3, r3, #2147483648	; 0x80000000
 8005aba:	0d1b      	lsrs	r3, r3, #20
 8005abc:	051b      	lsls	r3, r3, #20
 8005abe:	b183      	cbz	r3, 8005ae2 <_dtoa_r+0x90a>
 8005ac0:	9b05      	ldr	r3, [sp, #20]
 8005ac2:	3301      	adds	r3, #1
 8005ac4:	9305      	str	r3, [sp, #20]
 8005ac6:	9b06      	ldr	r3, [sp, #24]
 8005ac8:	3301      	adds	r3, #1
 8005aca:	9306      	str	r3, [sp, #24]
 8005acc:	f04f 0801 	mov.w	r8, #1
 8005ad0:	9b0b      	ldr	r3, [sp, #44]	; 0x2c
 8005ad2:	2b00      	cmp	r3, #0
 8005ad4:	f47f af6f 	bne.w	80059b6 <_dtoa_r+0x7de>
 8005ad8:	2001      	movs	r0, #1
 8005ada:	e774      	b.n	80059c6 <_dtoa_r+0x7ee>
 8005adc:	f04f 0800 	mov.w	r8, #0
 8005ae0:	e7f6      	b.n	8005ad0 <_dtoa_r+0x8f8>
 8005ae2:	4698      	mov	r8, r3
 8005ae4:	e7f4      	b.n	8005ad0 <_dtoa_r+0x8f8>
 8005ae6:	d082      	beq.n	80059ee <_dtoa_r+0x816>
 8005ae8:	9a05      	ldr	r2, [sp, #20]
 8005aea:	331c      	adds	r3, #28
 8005aec:	441a      	add	r2, r3
 8005aee:	9205      	str	r2, [sp, #20]
 8005af0:	9a06      	ldr	r2, [sp, #24]
 8005af2:	441a      	add	r2, r3
 8005af4:	441d      	add	r5, r3
 8005af6:	9206      	str	r2, [sp, #24]
 8005af8:	e779      	b.n	80059ee <_dtoa_r+0x816>
 8005afa:	4603      	mov	r3, r0
 8005afc:	e7f4      	b.n	8005ae8 <_dtoa_r+0x910>
 8005afe:	9b04      	ldr	r3, [sp, #16]
 8005b00:	2b00      	cmp	r3, #0
 8005b02:	dc37      	bgt.n	8005b74 <_dtoa_r+0x99c>
 8005b04:	9b07      	ldr	r3, [sp, #28]
 8005b06:	2b02      	cmp	r3, #2
 8005b08:	dd34      	ble.n	8005b74 <_dtoa_r+0x99c>
 8005b0a:	9b04      	ldr	r3, [sp, #16]
 8005b0c:	9301      	str	r3, [sp, #4]
 8005b0e:	9b01      	ldr	r3, [sp, #4]
 8005b10:	b963      	cbnz	r3, 8005b2c <_dtoa_r+0x954>
 8005b12:	4631      	mov	r1, r6
 8005b14:	2205      	movs	r2, #5
 8005b16:	4620      	mov	r0, r4
 8005b18:	f000 fab2 	bl	8006080 <__multadd>
 8005b1c:	4601      	mov	r1, r0
 8005b1e:	4606      	mov	r6, r0
 8005b20:	4650      	mov	r0, sl
 8005b22:	f000 fcc7 	bl	80064b4 <__mcmp>
 8005b26:	2800      	cmp	r0, #0
 8005b28:	f73f adbb 	bgt.w	80056a2 <_dtoa_r+0x4ca>
 8005b2c:	9b0a      	ldr	r3, [sp, #40]	; 0x28
 8005b2e:	9d00      	ldr	r5, [sp, #0]
 8005b30:	ea6f 0b03 	mvn.w	fp, r3
 8005b34:	f04f 0800 	mov.w	r8, #0
 8005b38:	4631      	mov	r1, r6
 8005b3a:	4620      	mov	r0, r4
 8005b3c:	f000 fa7e 	bl	800603c <_Bfree>
 8005b40:	2f00      	cmp	r7, #0
 8005b42:	f43f aeab 	beq.w	800589c <_dtoa_r+0x6c4>
 8005b46:	f1b8 0f00 	cmp.w	r8, #0
 8005b4a:	d005      	beq.n	8005b58 <_dtoa_r+0x980>
 8005b4c:	45b8      	cmp	r8, r7
 8005b4e:	d003      	beq.n	8005b58 <_dtoa_r+0x980>
 8005b50:	4641      	mov	r1, r8
 8005b52:	4620      	mov	r0, r4
 8005b54:	f000 fa72 	bl	800603c <_Bfree>
 8005b58:	4639      	mov	r1, r7
 8005b5a:	4620      	mov	r0, r4
 8005b5c:	f000 fa6e 	bl	800603c <_Bfree>
 8005b60:	e69c      	b.n	800589c <_dtoa_r+0x6c4>
 8005b62:	2600      	movs	r6, #0
 8005b64:	4637      	mov	r7, r6
 8005b66:	e7e1      	b.n	8005b2c <_dtoa_r+0x954>
 8005b68:	46bb      	mov	fp, r7
 8005b6a:	4637      	mov	r7, r6
 8005b6c:	e599      	b.n	80056a2 <_dtoa_r+0x4ca>
 8005b6e:	bf00      	nop
 8005b70:	40240000 	.word	0x40240000
 8005b74:	9b09      	ldr	r3, [sp, #36]	; 0x24
 8005b76:	2b00      	cmp	r3, #0
 8005b78:	f000 80c8 	beq.w	8005d0c <_dtoa_r+0xb34>
 8005b7c:	9b04      	ldr	r3, [sp, #16]
 8005b7e:	9301      	str	r3, [sp, #4]
 8005b80:	2d00      	cmp	r5, #0
 8005b82:	dd05      	ble.n	8005b90 <_dtoa_r+0x9b8>
 8005b84:	4639      	mov	r1, r7
 8005b86:	462a      	mov	r2, r5
 8005b88:	4620      	mov	r0, r4
 8005b8a:	f000 fc27 	bl	80063dc <__lshift>
 8005b8e:	4607      	mov	r7, r0
 8005b90:	f1b8 0f00 	cmp.w	r8, #0
 8005b94:	d05b      	beq.n	8005c4e <_dtoa_r+0xa76>
 8005b96:	6879      	ldr	r1, [r7, #4]
 8005b98:	4620      	mov	r0, r4
 8005b9a:	f000 fa0f 	bl	8005fbc <_Balloc>
 8005b9e:	4605      	mov	r5, r0
 8005ba0:	b928      	cbnz	r0, 8005bae <_dtoa_r+0x9d6>
 8005ba2:	4b83      	ldr	r3, [pc, #524]	; (8005db0 <_dtoa_r+0xbd8>)
 8005ba4:	4602      	mov	r2, r0
 8005ba6:	f240 21ef 	movw	r1, #751	; 0x2ef
 8005baa:	f7ff bb2e 	b.w	800520a <_dtoa_r+0x32>
 8005bae:	693a      	ldr	r2, [r7, #16]
 8005bb0:	3202      	adds	r2, #2
 8005bb2:	0092      	lsls	r2, r2, #2
 8005bb4:	f107 010c 	add.w	r1, r7, #12
 8005bb8:	300c      	adds	r0, #12
 8005bba:	f001 f973 	bl	8006ea4 <memcpy>
 8005bbe:	2201      	movs	r2, #1
 8005bc0:	4629      	mov	r1, r5
 8005bc2:	4620      	mov	r0, r4
 8005bc4:	f000 fc0a 	bl	80063dc <__lshift>
 8005bc8:	9b00      	ldr	r3, [sp, #0]
 8005bca:	3301      	adds	r3, #1
 8005bcc:	9304      	str	r3, [sp, #16]
 8005bce:	e9dd 2300 	ldrd	r2, r3, [sp]
 8005bd2:	4413      	add	r3, r2
 8005bd4:	9308      	str	r3, [sp, #32]
 8005bd6:	9b02      	ldr	r3, [sp, #8]
 8005bd8:	f003 0301 	and.w	r3, r3, #1
 8005bdc:	46b8      	mov	r8, r7
 8005bde:	9306      	str	r3, [sp, #24]
 8005be0:	4607      	mov	r7, r0
 8005be2:	9b04      	ldr	r3, [sp, #16]
 8005be4:	4631      	mov	r1, r6
 8005be6:	3b01      	subs	r3, #1
 8005be8:	4650      	mov	r0, sl
 8005bea:	9301      	str	r3, [sp, #4]
 8005bec:	f7ff fa6b 	bl	80050c6 <quorem>
 8005bf0:	4641      	mov	r1, r8
 8005bf2:	9002      	str	r0, [sp, #8]
 8005bf4:	f100 0930 	add.w	r9, r0, #48	; 0x30
 8005bf8:	4650      	mov	r0, sl
 8005bfa:	f000 fc5b 	bl	80064b4 <__mcmp>
 8005bfe:	463a      	mov	r2, r7
 8005c00:	9005      	str	r0, [sp, #20]
 8005c02:	4631      	mov	r1, r6
 8005c04:	4620      	mov	r0, r4
 8005c06:	f000 fc71 	bl	80064ec <__mdiff>
 8005c0a:	68c2      	ldr	r2, [r0, #12]
 8005c0c:	4605      	mov	r5, r0
 8005c0e:	bb02      	cbnz	r2, 8005c52 <_dtoa_r+0xa7a>
 8005c10:	4601      	mov	r1, r0
 8005c12:	4650      	mov	r0, sl
 8005c14:	f000 fc4e 	bl	80064b4 <__mcmp>
 8005c18:	4602      	mov	r2, r0
 8005c1a:	4629      	mov	r1, r5
 8005c1c:	4620      	mov	r0, r4
 8005c1e:	9209      	str	r2, [sp, #36]	; 0x24
 8005c20:	f000 fa0c 	bl	800603c <_Bfree>
 8005c24:	9b07      	ldr	r3, [sp, #28]
 8005c26:	9a09      	ldr	r2, [sp, #36]	; 0x24
 8005c28:	9d04      	ldr	r5, [sp, #16]
 8005c2a:	ea43 0102 	orr.w	r1, r3, r2
 8005c2e:	9b06      	ldr	r3, [sp, #24]
 8005c30:	4319      	orrs	r1, r3
 8005c32:	d110      	bne.n	8005c56 <_dtoa_r+0xa7e>
 8005c34:	f1b9 0f39 	cmp.w	r9, #57	; 0x39
 8005c38:	d029      	beq.n	8005c8e <_dtoa_r+0xab6>
 8005c3a:	9b05      	ldr	r3, [sp, #20]
 8005c3c:	2b00      	cmp	r3, #0
 8005c3e:	dd02      	ble.n	8005c46 <_dtoa_r+0xa6e>
 8005c40:	9b02      	ldr	r3, [sp, #8]
 8005c42:	f103 0931 	add.w	r9, r3, #49	; 0x31
 8005c46:	9b01      	ldr	r3, [sp, #4]
 8005c48:	f883 9000 	strb.w	r9, [r3]
 8005c4c:	e774      	b.n	8005b38 <_dtoa_r+0x960>
 8005c4e:	4638      	mov	r0, r7
 8005c50:	e7ba      	b.n	8005bc8 <_dtoa_r+0x9f0>
 8005c52:	2201      	movs	r2, #1
 8005c54:	e7e1      	b.n	8005c1a <_dtoa_r+0xa42>
 8005c56:	9b05      	ldr	r3, [sp, #20]
 8005c58:	2b00      	cmp	r3, #0
 8005c5a:	db04      	blt.n	8005c66 <_dtoa_r+0xa8e>
 8005c5c:	9907      	ldr	r1, [sp, #28]
 8005c5e:	430b      	orrs	r3, r1
 8005c60:	9906      	ldr	r1, [sp, #24]
 8005c62:	430b      	orrs	r3, r1
 8005c64:	d120      	bne.n	8005ca8 <_dtoa_r+0xad0>
 8005c66:	2a00      	cmp	r2, #0
 8005c68:	dded      	ble.n	8005c46 <_dtoa_r+0xa6e>
 8005c6a:	4651      	mov	r1, sl
 8005c6c:	2201      	movs	r2, #1
 8005c6e:	4620      	mov	r0, r4
 8005c70:	f000 fbb4 	bl	80063dc <__lshift>
 8005c74:	4631      	mov	r1, r6
 8005c76:	4682      	mov	sl, r0
 8005c78:	f000 fc1c 	bl	80064b4 <__mcmp>
 8005c7c:	2800      	cmp	r0, #0
 8005c7e:	dc03      	bgt.n	8005c88 <_dtoa_r+0xab0>
 8005c80:	d1e1      	bne.n	8005c46 <_dtoa_r+0xa6e>
 8005c82:	f019 0f01 	tst.w	r9, #1
 8005c86:	d0de      	beq.n	8005c46 <_dtoa_r+0xa6e>
 8005c88:	f1b9 0f39 	cmp.w	r9, #57	; 0x39
 8005c8c:	d1d8      	bne.n	8005c40 <_dtoa_r+0xa68>
 8005c8e:	9a01      	ldr	r2, [sp, #4]
 8005c90:	2339      	movs	r3, #57	; 0x39
 8005c92:	7013      	strb	r3, [r2, #0]
 8005c94:	462b      	mov	r3, r5
 8005c96:	461d      	mov	r5, r3
 8005c98:	3b01      	subs	r3, #1
 8005c9a:	f815 2c01 	ldrb.w	r2, [r5, #-1]
 8005c9e:	2a39      	cmp	r2, #57	; 0x39
 8005ca0:	d06c      	beq.n	8005d7c <_dtoa_r+0xba4>
 8005ca2:	3201      	adds	r2, #1
 8005ca4:	701a      	strb	r2, [r3, #0]
 8005ca6:	e747      	b.n	8005b38 <_dtoa_r+0x960>
 8005ca8:	2a00      	cmp	r2, #0
 8005caa:	dd07      	ble.n	8005cbc <_dtoa_r+0xae4>
 8005cac:	f1b9 0f39 	cmp.w	r9, #57	; 0x39
 8005cb0:	d0ed      	beq.n	8005c8e <_dtoa_r+0xab6>
 8005cb2:	9a01      	ldr	r2, [sp, #4]
 8005cb4:	f109 0301 	add.w	r3, r9, #1
 8005cb8:	7013      	strb	r3, [r2, #0]
 8005cba:	e73d      	b.n	8005b38 <_dtoa_r+0x960>
 8005cbc:	9b04      	ldr	r3, [sp, #16]
 8005cbe:	9a08      	ldr	r2, [sp, #32]
 8005cc0:	f803 9c01 	strb.w	r9, [r3, #-1]
 8005cc4:	4293      	cmp	r3, r2
 8005cc6:	d043      	beq.n	8005d50 <_dtoa_r+0xb78>
 8005cc8:	4651      	mov	r1, sl
 8005cca:	2300      	movs	r3, #0
 8005ccc:	220a      	movs	r2, #10
 8005cce:	4620      	mov	r0, r4
 8005cd0:	f000 f9d6 	bl	8006080 <__multadd>
 8005cd4:	45b8      	cmp	r8, r7
 8005cd6:	4682      	mov	sl, r0
 8005cd8:	f04f 0300 	mov.w	r3, #0
 8005cdc:	f04f 020a 	mov.w	r2, #10
 8005ce0:	4641      	mov	r1, r8
 8005ce2:	4620      	mov	r0, r4
 8005ce4:	d107      	bne.n	8005cf6 <_dtoa_r+0xb1e>
 8005ce6:	f000 f9cb 	bl	8006080 <__multadd>
 8005cea:	4680      	mov	r8, r0
 8005cec:	4607      	mov	r7, r0
 8005cee:	9b04      	ldr	r3, [sp, #16]
 8005cf0:	3301      	adds	r3, #1
 8005cf2:	9304      	str	r3, [sp, #16]
 8005cf4:	e775      	b.n	8005be2 <_dtoa_r+0xa0a>
 8005cf6:	f000 f9c3 	bl	8006080 <__multadd>
 8005cfa:	4639      	mov	r1, r7
 8005cfc:	4680      	mov	r8, r0
 8005cfe:	2300      	movs	r3, #0
 8005d00:	220a      	movs	r2, #10
 8005d02:	4620      	mov	r0, r4
 8005d04:	f000 f9bc 	bl	8006080 <__multadd>
 8005d08:	4607      	mov	r7, r0
 8005d0a:	e7f0      	b.n	8005cee <_dtoa_r+0xb16>
 8005d0c:	9b04      	ldr	r3, [sp, #16]
 8005d0e:	9301      	str	r3, [sp, #4]
 8005d10:	9d00      	ldr	r5, [sp, #0]
 8005d12:	4631      	mov	r1, r6
 8005d14:	4650      	mov	r0, sl
 8005d16:	f7ff f9d6 	bl	80050c6 <quorem>
 8005d1a:	f100 0930 	add.w	r9, r0, #48	; 0x30
 8005d1e:	9b00      	ldr	r3, [sp, #0]
 8005d20:	f805 9b01 	strb.w	r9, [r5], #1
 8005d24:	1aea      	subs	r2, r5, r3
 8005d26:	9b01      	ldr	r3, [sp, #4]
 8005d28:	4293      	cmp	r3, r2
 8005d2a:	dd07      	ble.n	8005d3c <_dtoa_r+0xb64>
 8005d2c:	4651      	mov	r1, sl
 8005d2e:	2300      	movs	r3, #0
 8005d30:	220a      	movs	r2, #10
 8005d32:	4620      	mov	r0, r4
 8005d34:	f000 f9a4 	bl	8006080 <__multadd>
 8005d38:	4682      	mov	sl, r0
 8005d3a:	e7ea      	b.n	8005d12 <_dtoa_r+0xb3a>
 8005d3c:	9b01      	ldr	r3, [sp, #4]
 8005d3e:	2b00      	cmp	r3, #0
 8005d40:	bfc8      	it	gt
 8005d42:	461d      	movgt	r5, r3
 8005d44:	9b00      	ldr	r3, [sp, #0]
 8005d46:	bfd8      	it	le
 8005d48:	2501      	movle	r5, #1
 8005d4a:	441d      	add	r5, r3
 8005d4c:	f04f 0800 	mov.w	r8, #0
 8005d50:	4651      	mov	r1, sl
 8005d52:	2201      	movs	r2, #1
 8005d54:	4620      	mov	r0, r4
 8005d56:	f000 fb41 	bl	80063dc <__lshift>
 8005d5a:	4631      	mov	r1, r6
 8005d5c:	4682      	mov	sl, r0
 8005d5e:	f000 fba9 	bl	80064b4 <__mcmp>
 8005d62:	2800      	cmp	r0, #0
 8005d64:	dc96      	bgt.n	8005c94 <_dtoa_r+0xabc>
 8005d66:	d102      	bne.n	8005d6e <_dtoa_r+0xb96>
 8005d68:	f019 0f01 	tst.w	r9, #1
 8005d6c:	d192      	bne.n	8005c94 <_dtoa_r+0xabc>
 8005d6e:	462b      	mov	r3, r5
 8005d70:	461d      	mov	r5, r3
 8005d72:	f813 2d01 	ldrb.w	r2, [r3, #-1]!
 8005d76:	2a30      	cmp	r2, #48	; 0x30
 8005d78:	d0fa      	beq.n	8005d70 <_dtoa_r+0xb98>
 8005d7a:	e6dd      	b.n	8005b38 <_dtoa_r+0x960>
 8005d7c:	9a00      	ldr	r2, [sp, #0]
 8005d7e:	429a      	cmp	r2, r3
 8005d80:	d189      	bne.n	8005c96 <_dtoa_r+0xabe>
 8005d82:	f10b 0b01 	add.w	fp, fp, #1
 8005d86:	2331      	movs	r3, #49	; 0x31
 8005d88:	e796      	b.n	8005cb8 <_dtoa_r+0xae0>
 8005d8a:	4b0a      	ldr	r3, [pc, #40]	; (8005db4 <_dtoa_r+0xbdc>)
 8005d8c:	f7ff ba99 	b.w	80052c2 <_dtoa_r+0xea>
 8005d90:	9b21      	ldr	r3, [sp, #132]	; 0x84
 8005d92:	2b00      	cmp	r3, #0
 8005d94:	f47f aa6d 	bne.w	8005272 <_dtoa_r+0x9a>
 8005d98:	4b07      	ldr	r3, [pc, #28]	; (8005db8 <_dtoa_r+0xbe0>)
 8005d9a:	f7ff ba92 	b.w	80052c2 <_dtoa_r+0xea>
 8005d9e:	9b01      	ldr	r3, [sp, #4]
 8005da0:	2b00      	cmp	r3, #0
 8005da2:	dcb5      	bgt.n	8005d10 <_dtoa_r+0xb38>
 8005da4:	9b07      	ldr	r3, [sp, #28]
 8005da6:	2b02      	cmp	r3, #2
 8005da8:	f73f aeb1 	bgt.w	8005b0e <_dtoa_r+0x936>
 8005dac:	e7b0      	b.n	8005d10 <_dtoa_r+0xb38>
 8005dae:	bf00      	nop
 8005db0:	0800748c 	.word	0x0800748c
 8005db4:	080073ec 	.word	0x080073ec
 8005db8:	08007410 	.word	0x08007410

08005dbc <_free_r>:
 8005dbc:	b537      	push	{r0, r1, r2, r4, r5, lr}
 8005dbe:	2900      	cmp	r1, #0
 8005dc0:	d044      	beq.n	8005e4c <_free_r+0x90>
 8005dc2:	f851 3c04 	ldr.w	r3, [r1, #-4]
 8005dc6:	9001      	str	r0, [sp, #4]
 8005dc8:	2b00      	cmp	r3, #0
 8005dca:	f1a1 0404 	sub.w	r4, r1, #4
 8005dce:	bfb8      	it	lt
 8005dd0:	18e4      	addlt	r4, r4, r3
 8005dd2:	f000 f8e7 	bl	8005fa4 <__malloc_lock>
 8005dd6:	4a1e      	ldr	r2, [pc, #120]	; (8005e50 <_free_r+0x94>)
 8005dd8:	9801      	ldr	r0, [sp, #4]
 8005dda:	6813      	ldr	r3, [r2, #0]
 8005ddc:	b933      	cbnz	r3, 8005dec <_free_r+0x30>
 8005dde:	6063      	str	r3, [r4, #4]
 8005de0:	6014      	str	r4, [r2, #0]
 8005de2:	b003      	add	sp, #12
 8005de4:	e8bd 4030 	ldmia.w	sp!, {r4, r5, lr}
 8005de8:	f000 b8e2 	b.w	8005fb0 <__malloc_unlock>
 8005dec:	42a3      	cmp	r3, r4
 8005dee:	d908      	bls.n	8005e02 <_free_r+0x46>
 8005df0:	6825      	ldr	r5, [r4, #0]
 8005df2:	1961      	adds	r1, r4, r5
 8005df4:	428b      	cmp	r3, r1
 8005df6:	bf01      	itttt	eq
 8005df8:	6819      	ldreq	r1, [r3, #0]
 8005dfa:	685b      	ldreq	r3, [r3, #4]
 8005dfc:	1949      	addeq	r1, r1, r5
 8005dfe:	6021      	streq	r1, [r4, #0]
 8005e00:	e7ed      	b.n	8005dde <_free_r+0x22>
 8005e02:	461a      	mov	r2, r3
 8005e04:	685b      	ldr	r3, [r3, #4]
 8005e06:	b10b      	cbz	r3, 8005e0c <_free_r+0x50>
 8005e08:	42a3      	cmp	r3, r4
 8005e0a:	d9fa      	bls.n	8005e02 <_free_r+0x46>
 8005e0c:	6811      	ldr	r1, [r2, #0]
 8005e0e:	1855      	adds	r5, r2, r1
 8005e10:	42a5      	cmp	r5, r4
 8005e12:	d10b      	bne.n	8005e2c <_free_r+0x70>
 8005e14:	6824      	ldr	r4, [r4, #0]
 8005e16:	4421      	add	r1, r4
 8005e18:	1854      	adds	r4, r2, r1
 8005e1a:	42a3      	cmp	r3, r4
 8005e1c:	6011      	str	r1, [r2, #0]
 8005e1e:	d1e0      	bne.n	8005de2 <_free_r+0x26>
 8005e20:	681c      	ldr	r4, [r3, #0]
 8005e22:	685b      	ldr	r3, [r3, #4]
 8005e24:	6053      	str	r3, [r2, #4]
 8005e26:	440c      	add	r4, r1
 8005e28:	6014      	str	r4, [r2, #0]
 8005e2a:	e7da      	b.n	8005de2 <_free_r+0x26>
 8005e2c:	d902      	bls.n	8005e34 <_free_r+0x78>
 8005e2e:	230c      	movs	r3, #12
 8005e30:	6003      	str	r3, [r0, #0]
 8005e32:	e7d6      	b.n	8005de2 <_free_r+0x26>
 8005e34:	6825      	ldr	r5, [r4, #0]
 8005e36:	1961      	adds	r1, r4, r5
 8005e38:	428b      	cmp	r3, r1
 8005e3a:	bf04      	itt	eq
 8005e3c:	6819      	ldreq	r1, [r3, #0]
 8005e3e:	685b      	ldreq	r3, [r3, #4]
 8005e40:	6063      	str	r3, [r4, #4]
 8005e42:	bf04      	itt	eq
 8005e44:	1949      	addeq	r1, r1, r5
 8005e46:	6021      	streq	r1, [r4, #0]
 8005e48:	6054      	str	r4, [r2, #4]
 8005e4a:	e7ca      	b.n	8005de2 <_free_r+0x26>
 8005e4c:	b003      	add	sp, #12
 8005e4e:	bd30      	pop	{r4, r5, pc}
 8005e50:	20000544 	.word	0x20000544

08005e54 <malloc>:
 8005e54:	4b02      	ldr	r3, [pc, #8]	; (8005e60 <malloc+0xc>)
 8005e56:	4601      	mov	r1, r0
 8005e58:	6818      	ldr	r0, [r3, #0]
 8005e5a:	f000 b823 	b.w	8005ea4 <_malloc_r>
 8005e5e:	bf00      	nop
 8005e60:	20000064 	.word	0x20000064

08005e64 <sbrk_aligned>:
 8005e64:	b570      	push	{r4, r5, r6, lr}
 8005e66:	4e0e      	ldr	r6, [pc, #56]	; (8005ea0 <sbrk_aligned+0x3c>)
 8005e68:	460c      	mov	r4, r1
 8005e6a:	6831      	ldr	r1, [r6, #0]
 8005e6c:	4605      	mov	r5, r0
 8005e6e:	b911      	cbnz	r1, 8005e76 <sbrk_aligned+0x12>
 8005e70:	f001 f808 	bl	8006e84 <_sbrk_r>
 8005e74:	6030      	str	r0, [r6, #0]
 8005e76:	4621      	mov	r1, r4
 8005e78:	4628      	mov	r0, r5
 8005e7a:	f001 f803 	bl	8006e84 <_sbrk_r>
 8005e7e:	1c43      	adds	r3, r0, #1
 8005e80:	d00a      	beq.n	8005e98 <sbrk_aligned+0x34>
 8005e82:	1cc4      	adds	r4, r0, #3
 8005e84:	f024 0403 	bic.w	r4, r4, #3
 8005e88:	42a0      	cmp	r0, r4
 8005e8a:	d007      	beq.n	8005e9c <sbrk_aligned+0x38>
 8005e8c:	1a21      	subs	r1, r4, r0
 8005e8e:	4628      	mov	r0, r5
 8005e90:	f000 fff8 	bl	8006e84 <_sbrk_r>
 8005e94:	3001      	adds	r0, #1
 8005e96:	d101      	bne.n	8005e9c <sbrk_aligned+0x38>
 8005e98:	f04f 34ff 	mov.w	r4, #4294967295	; 0xffffffff
 8005e9c:	4620      	mov	r0, r4
 8005e9e:	bd70      	pop	{r4, r5, r6, pc}
 8005ea0:	20000548 	.word	0x20000548

08005ea4 <_malloc_r>:
 8005ea4:	e92d 43f8 	stmdb	sp!, {r3, r4, r5, r6, r7, r8, r9, lr}
 8005ea8:	1ccd      	adds	r5, r1, #3
 8005eaa:	f025 0503 	bic.w	r5, r5, #3
 8005eae:	3508      	adds	r5, #8
 8005eb0:	2d0c      	cmp	r5, #12
 8005eb2:	bf38      	it	cc
 8005eb4:	250c      	movcc	r5, #12
 8005eb6:	2d00      	cmp	r5, #0
 8005eb8:	4607      	mov	r7, r0
 8005eba:	db01      	blt.n	8005ec0 <_malloc_r+0x1c>
 8005ebc:	42a9      	cmp	r1, r5
 8005ebe:	d905      	bls.n	8005ecc <_malloc_r+0x28>
 8005ec0:	230c      	movs	r3, #12
 8005ec2:	603b      	str	r3, [r7, #0]
 8005ec4:	2600      	movs	r6, #0
 8005ec6:	4630      	mov	r0, r6
 8005ec8:	e8bd 83f8 	ldmia.w	sp!, {r3, r4, r5, r6, r7, r8, r9, pc}
 8005ecc:	f8df 80d0 	ldr.w	r8, [pc, #208]	; 8005fa0 <_malloc_r+0xfc>
 8005ed0:	f000 f868 	bl	8005fa4 <__malloc_lock>
 8005ed4:	f8d8 3000 	ldr.w	r3, [r8]
 8005ed8:	461c      	mov	r4, r3
 8005eda:	bb5c      	cbnz	r4, 8005f34 <_malloc_r+0x90>
 8005edc:	4629      	mov	r1, r5
 8005ede:	4638      	mov	r0, r7
 8005ee0:	f7ff ffc0 	bl	8005e64 <sbrk_aligned>
 8005ee4:	1c43      	adds	r3, r0, #1
 8005ee6:	4604      	mov	r4, r0
 8005ee8:	d155      	bne.n	8005f96 <_malloc_r+0xf2>
 8005eea:	f8d8 4000 	ldr.w	r4, [r8]
 8005eee:	4626      	mov	r6, r4
 8005ef0:	2e00      	cmp	r6, #0
 8005ef2:	d145      	bne.n	8005f80 <_malloc_r+0xdc>
 8005ef4:	2c00      	cmp	r4, #0
 8005ef6:	d048      	beq.n	8005f8a <_malloc_r+0xe6>
 8005ef8:	6823      	ldr	r3, [r4, #0]
 8005efa:	4631      	mov	r1, r6
 8005efc:	4638      	mov	r0, r7
 8005efe:	eb04 0903 	add.w	r9, r4, r3
 8005f02:	f000 ffbf 	bl	8006e84 <_sbrk_r>
 8005f06:	4581      	cmp	r9, r0
 8005f08:	d13f      	bne.n	8005f8a <_malloc_r+0xe6>
 8005f0a:	6821      	ldr	r1, [r4, #0]
 8005f0c:	1a6d      	subs	r5, r5, r1
 8005f0e:	4629      	mov	r1, r5
 8005f10:	4638      	mov	r0, r7
 8005f12:	f7ff ffa7 	bl	8005e64 <sbrk_aligned>
 8005f16:	3001      	adds	r0, #1
 8005f18:	d037      	beq.n	8005f8a <_malloc_r+0xe6>
 8005f1a:	6823      	ldr	r3, [r4, #0]
 8005f1c:	442b      	add	r3, r5
 8005f1e:	6023      	str	r3, [r4, #0]
 8005f20:	f8d8 3000 	ldr.w	r3, [r8]
 8005f24:	2b00      	cmp	r3, #0
 8005f26:	d038      	beq.n	8005f9a <_malloc_r+0xf6>
 8005f28:	685a      	ldr	r2, [r3, #4]
 8005f2a:	42a2      	cmp	r2, r4
 8005f2c:	d12b      	bne.n	8005f86 <_malloc_r+0xe2>
 8005f2e:	2200      	movs	r2, #0
 8005f30:	605a      	str	r2, [r3, #4]
 8005f32:	e00f      	b.n	8005f54 <_malloc_r+0xb0>
 8005f34:	6822      	ldr	r2, [r4, #0]
 8005f36:	1b52      	subs	r2, r2, r5
 8005f38:	d41f      	bmi.n	8005f7a <_malloc_r+0xd6>
 8005f3a:	2a0b      	cmp	r2, #11
 8005f3c:	d917      	bls.n	8005f6e <_malloc_r+0xca>
 8005f3e:	1961      	adds	r1, r4, r5
 8005f40:	42a3      	cmp	r3, r4
 8005f42:	6025      	str	r5, [r4, #0]
 8005f44:	bf18      	it	ne
 8005f46:	6059      	strne	r1, [r3, #4]
 8005f48:	6863      	ldr	r3, [r4, #4]
 8005f4a:	bf08      	it	eq
 8005f4c:	f8c8 1000 	streq.w	r1, [r8]
 8005f50:	5162      	str	r2, [r4, r5]
 8005f52:	604b      	str	r3, [r1, #4]
 8005f54:	4638      	mov	r0, r7
 8005f56:	f104 060b 	add.w	r6, r4, #11
 8005f5a:	f000 f829 	bl	8005fb0 <__malloc_unlock>
 8005f5e:	f026 0607 	bic.w	r6, r6, #7
 8005f62:	1d23      	adds	r3, r4, #4
 8005f64:	1af2      	subs	r2, r6, r3
 8005f66:	d0ae      	beq.n	8005ec6 <_malloc_r+0x22>
 8005f68:	1b9b      	subs	r3, r3, r6
 8005f6a:	50a3      	str	r3, [r4, r2]
 8005f6c:	e7ab      	b.n	8005ec6 <_malloc_r+0x22>
 8005f6e:	42a3      	cmp	r3, r4
 8005f70:	6862      	ldr	r2, [r4, #4]
 8005f72:	d1dd      	bne.n	8005f30 <_malloc_r+0x8c>
 8005f74:	f8c8 2000 	str.w	r2, [r8]
 8005f78:	e7ec      	b.n	8005f54 <_malloc_r+0xb0>
 8005f7a:	4623      	mov	r3, r4
 8005f7c:	6864      	ldr	r4, [r4, #4]
 8005f7e:	e7ac      	b.n	8005eda <_malloc_r+0x36>
 8005f80:	4634      	mov	r4, r6
 8005f82:	6876      	ldr	r6, [r6, #4]
 8005f84:	e7b4      	b.n	8005ef0 <_malloc_r+0x4c>
 8005f86:	4613      	mov	r3, r2
 8005f88:	e7cc      	b.n	8005f24 <_malloc_r+0x80>
 8005f8a:	230c      	movs	r3, #12
 8005f8c:	603b      	str	r3, [r7, #0]
 8005f8e:	4638      	mov	r0, r7
 8005f90:	f000 f80e 	bl	8005fb0 <__malloc_unlock>
 8005f94:	e797      	b.n	8005ec6 <_malloc_r+0x22>
 8005f96:	6025      	str	r5, [r4, #0]
 8005f98:	e7dc      	b.n	8005f54 <_malloc_r+0xb0>
 8005f9a:	605b      	str	r3, [r3, #4]
 8005f9c:	deff      	udf	#255	; 0xff
 8005f9e:	bf00      	nop
 8005fa0:	20000544 	.word	0x20000544

08005fa4 <__malloc_lock>:
 8005fa4:	4801      	ldr	r0, [pc, #4]	; (8005fac <__malloc_lock+0x8>)
 8005fa6:	f7ff b884 	b.w	80050b2 <__retarget_lock_acquire_recursive>
 8005faa:	bf00      	nop
 8005fac:	20000540 	.word	0x20000540

08005fb0 <__malloc_unlock>:
 8005fb0:	4801      	ldr	r0, [pc, #4]	; (8005fb8 <__malloc_unlock+0x8>)
 8005fb2:	f7ff b87f 	b.w	80050b4 <__retarget_lock_release_recursive>
 8005fb6:	bf00      	nop
 8005fb8:	20000540 	.word	0x20000540

08005fbc <_Balloc>:
 8005fbc:	b570      	push	{r4, r5, r6, lr}
 8005fbe:	69c6      	ldr	r6, [r0, #28]
 8005fc0:	4604      	mov	r4, r0
 8005fc2:	460d      	mov	r5, r1
 8005fc4:	b976      	cbnz	r6, 8005fe4 <_Balloc+0x28>
 8005fc6:	2010      	movs	r0, #16
 8005fc8:	f7ff ff44 	bl	8005e54 <malloc>
 8005fcc:	4602      	mov	r2, r0
 8005fce:	61e0      	str	r0, [r4, #28]
 8005fd0:	b920      	cbnz	r0, 8005fdc <_Balloc+0x20>
 8005fd2:	4b18      	ldr	r3, [pc, #96]	; (8006034 <_Balloc+0x78>)
 8005fd4:	4818      	ldr	r0, [pc, #96]	; (8006038 <_Balloc+0x7c>)
 8005fd6:	216b      	movs	r1, #107	; 0x6b
 8005fd8:	f000 ff72 	bl	8006ec0 <__assert_func>
 8005fdc:	e9c0 6601 	strd	r6, r6, [r0, #4]
 8005fe0:	6006      	str	r6, [r0, #0]
 8005fe2:	60c6      	str	r6, [r0, #12]
 8005fe4:	69e6      	ldr	r6, [r4, #28]
 8005fe6:	68f3      	ldr	r3, [r6, #12]
 8005fe8:	b183      	cbz	r3, 800600c <_Balloc+0x50>
 8005fea:	69e3      	ldr	r3, [r4, #28]
 8005fec:	68db      	ldr	r3, [r3, #12]
 8005fee:	f853 0025 	ldr.w	r0, [r3, r5, lsl #2]
 8005ff2:	b9b8      	cbnz	r0, 8006024 <_Balloc+0x68>
 8005ff4:	2101      	movs	r1, #1
 8005ff6:	fa01 f605 	lsl.w	r6, r1, r5
 8005ffa:	1d72      	adds	r2, r6, #5
 8005ffc:	0092      	lsls	r2, r2, #2
 8005ffe:	4620      	mov	r0, r4
 8006000:	f000 ff7c 	bl	8006efc <_calloc_r>
 8006004:	b160      	cbz	r0, 8006020 <_Balloc+0x64>
 8006006:	e9c0 5601 	strd	r5, r6, [r0, #4]
 800600a:	e00e      	b.n	800602a <_Balloc+0x6e>
 800600c:	2221      	movs	r2, #33	; 0x21
 800600e:	2104      	movs	r1, #4
 8006010:	4620      	mov	r0, r4
 8006012:	f000 ff73 	bl	8006efc <_calloc_r>
 8006016:	69e3      	ldr	r3, [r4, #28]
 8006018:	60f0      	str	r0, [r6, #12]
 800601a:	68db      	ldr	r3, [r3, #12]
 800601c:	2b00      	cmp	r3, #0
 800601e:	d1e4      	bne.n	8005fea <_Balloc+0x2e>
 8006020:	2000      	movs	r0, #0
 8006022:	bd70      	pop	{r4, r5, r6, pc}
 8006024:	6802      	ldr	r2, [r0, #0]
 8006026:	f843 2025 	str.w	r2, [r3, r5, lsl #2]
 800602a:	2300      	movs	r3, #0
 800602c:	e9c0 3303 	strd	r3, r3, [r0, #12]
 8006030:	e7f7      	b.n	8006022 <_Balloc+0x66>
 8006032:	bf00      	nop
 8006034:	0800741d 	.word	0x0800741d
 8006038:	0800749d 	.word	0x0800749d

0800603c <_Bfree>:
 800603c:	b570      	push	{r4, r5, r6, lr}
 800603e:	69c6      	ldr	r6, [r0, #28]
 8006040:	4605      	mov	r5, r0
 8006042:	460c      	mov	r4, r1
 8006044:	b976      	cbnz	r6, 8006064 <_Bfree+0x28>
 8006046:	2010      	movs	r0, #16
 8006048:	f7ff ff04 	bl	8005e54 <malloc>
 800604c:	4602      	mov	r2, r0
 800604e:	61e8      	str	r0, [r5, #28]
 8006050:	b920      	cbnz	r0, 800605c <_Bfree+0x20>
 8006052:	4b09      	ldr	r3, [pc, #36]	; (8006078 <_Bfree+0x3c>)
 8006054:	4809      	ldr	r0, [pc, #36]	; (800607c <_Bfree+0x40>)
 8006056:	218f      	movs	r1, #143	; 0x8f
 8006058:	f000 ff32 	bl	8006ec0 <__assert_func>
 800605c:	e9c0 6601 	strd	r6, r6, [r0, #4]
 8006060:	6006      	str	r6, [r0, #0]
 8006062:	60c6      	str	r6, [r0, #12]
 8006064:	b13c      	cbz	r4, 8006076 <_Bfree+0x3a>
 8006066:	69eb      	ldr	r3, [r5, #28]
 8006068:	6862      	ldr	r2, [r4, #4]
 800606a:	68db      	ldr	r3, [r3, #12]
 800606c:	f853 1022 	ldr.w	r1, [r3, r2, lsl #2]
 8006070:	6021      	str	r1, [r4, #0]
 8006072:	f843 4022 	str.w	r4, [r3, r2, lsl #2]
 8006076:	bd70      	pop	{r4, r5, r6, pc}
 8006078:	0800741d 	.word	0x0800741d
 800607c:	0800749d 	.word	0x0800749d

08006080 <__multadd>:
 8006080:	e92d 41f0 	stmdb	sp!, {r4, r5, r6, r7, r8, lr}
 8006084:	690d      	ldr	r5, [r1, #16]
 8006086:	4607      	mov	r7, r0
 8006088:	460c      	mov	r4, r1
 800608a:	461e      	mov	r6, r3
 800608c:	f101 0c14 	add.w	ip, r1, #20
 8006090:	2000      	movs	r0, #0
 8006092:	f8dc 3000 	ldr.w	r3, [ip]
 8006096:	b299      	uxth	r1, r3
 8006098:	fb02 6101 	mla	r1, r2, r1, r6
 800609c:	0c1e      	lsrs	r6, r3, #16
 800609e:	0c0b      	lsrs	r3, r1, #16
 80060a0:	fb02 3306 	mla	r3, r2, r6, r3
 80060a4:	b289      	uxth	r1, r1
 80060a6:	3001      	adds	r0, #1
 80060a8:	eb01 4103 	add.w	r1, r1, r3, lsl #16
 80060ac:	4285      	cmp	r5, r0
 80060ae:	f84c 1b04 	str.w	r1, [ip], #4
 80060b2:	ea4f 4613 	mov.w	r6, r3, lsr #16
 80060b6:	dcec      	bgt.n	8006092 <__multadd+0x12>
 80060b8:	b30e      	cbz	r6, 80060fe <__multadd+0x7e>
 80060ba:	68a3      	ldr	r3, [r4, #8]
 80060bc:	42ab      	cmp	r3, r5
 80060be:	dc19      	bgt.n	80060f4 <__multadd+0x74>
 80060c0:	6861      	ldr	r1, [r4, #4]
 80060c2:	4638      	mov	r0, r7
 80060c4:	3101      	adds	r1, #1
 80060c6:	f7ff ff79 	bl	8005fbc <_Balloc>
 80060ca:	4680      	mov	r8, r0
 80060cc:	b928      	cbnz	r0, 80060da <__multadd+0x5a>
 80060ce:	4602      	mov	r2, r0
 80060d0:	4b0c      	ldr	r3, [pc, #48]	; (8006104 <__multadd+0x84>)
 80060d2:	480d      	ldr	r0, [pc, #52]	; (8006108 <__multadd+0x88>)
 80060d4:	21ba      	movs	r1, #186	; 0xba
 80060d6:	f000 fef3 	bl	8006ec0 <__assert_func>
 80060da:	6922      	ldr	r2, [r4, #16]
 80060dc:	3202      	adds	r2, #2
 80060de:	f104 010c 	add.w	r1, r4, #12
 80060e2:	0092      	lsls	r2, r2, #2
 80060e4:	300c      	adds	r0, #12
 80060e6:	f000 fedd 	bl	8006ea4 <memcpy>
 80060ea:	4621      	mov	r1, r4
 80060ec:	4638      	mov	r0, r7
 80060ee:	f7ff ffa5 	bl	800603c <_Bfree>
 80060f2:	4644      	mov	r4, r8
 80060f4:	eb04 0385 	add.w	r3, r4, r5, lsl #2
 80060f8:	3501      	adds	r5, #1
 80060fa:	615e      	str	r6, [r3, #20]
 80060fc:	6125      	str	r5, [r4, #16]
 80060fe:	4620      	mov	r0, r4
 8006100:	e8bd 81f0 	ldmia.w	sp!, {r4, r5, r6, r7, r8, pc}
 8006104:	0800748c 	.word	0x0800748c
 8006108:	0800749d 	.word	0x0800749d

0800610c <__hi0bits>:
 800610c:	0c03      	lsrs	r3, r0, #16
 800610e:	041b      	lsls	r3, r3, #16
 8006110:	b9d3      	cbnz	r3, 8006148 <__hi0bits+0x3c>
 8006112:	0400      	lsls	r0, r0, #16
 8006114:	2310      	movs	r3, #16
 8006116:	f010 4f7f 	tst.w	r0, #4278190080	; 0xff000000
 800611a:	bf04      	itt	eq
 800611c:	0200      	lsleq	r0, r0, #8
 800611e:	3308      	addeq	r3, #8
 8006120:	f010 4f70 	tst.w	r0, #4026531840	; 0xf0000000
 8006124:	bf04      	itt	eq
 8006126:	0100      	lsleq	r0, r0, #4
 8006128:	3304      	addeq	r3, #4
 800612a:	f010 4f40 	tst.w	r0, #3221225472	; 0xc0000000
 800612e:	bf04      	itt	eq
 8006130:	0080      	lsleq	r0, r0, #2
 8006132:	3302      	addeq	r3, #2
 8006134:	2800      	cmp	r0, #0
 8006136:	db05      	blt.n	8006144 <__hi0bits+0x38>
 8006138:	f010 4f80 	tst.w	r0, #1073741824	; 0x40000000
 800613c:	f103 0301 	add.w	r3, r3, #1
 8006140:	bf08      	it	eq
 8006142:	2320      	moveq	r3, #32
 8006144:	4618      	mov	r0, r3
 8006146:	4770      	bx	lr
 8006148:	2300      	movs	r3, #0
 800614a:	e7e4      	b.n	8006116 <__hi0bits+0xa>

0800614c <__lo0bits>:
 800614c:	6803      	ldr	r3, [r0, #0]
 800614e:	f013 0207 	ands.w	r2, r3, #7
 8006152:	d00c      	beq.n	800616e <__lo0bits+0x22>
 8006154:	07d9      	lsls	r1, r3, #31
 8006156:	d422      	bmi.n	800619e <__lo0bits+0x52>
 8006158:	079a      	lsls	r2, r3, #30
 800615a:	bf49      	itett	mi
 800615c:	085b      	lsrmi	r3, r3, #1
 800615e:	089b      	lsrpl	r3, r3, #2
 8006160:	6003      	strmi	r3, [r0, #0]
 8006162:	2201      	movmi	r2, #1
 8006164:	bf5c      	itt	pl
 8006166:	6003      	strpl	r3, [r0, #0]
 8006168:	2202      	movpl	r2, #2
 800616a:	4610      	mov	r0, r2
 800616c:	4770      	bx	lr
 800616e:	b299      	uxth	r1, r3
 8006170:	b909      	cbnz	r1, 8006176 <__lo0bits+0x2a>
 8006172:	0c1b      	lsrs	r3, r3, #16
 8006174:	2210      	movs	r2, #16
 8006176:	b2d9      	uxtb	r1, r3
 8006178:	b909      	cbnz	r1, 800617e <__lo0bits+0x32>
 800617a:	3208      	adds	r2, #8
 800617c:	0a1b      	lsrs	r3, r3, #8
 800617e:	0719      	lsls	r1, r3, #28
 8006180:	bf04      	itt	eq
 8006182:	091b      	lsreq	r3, r3, #4
 8006184:	3204      	addeq	r2, #4
 8006186:	0799      	lsls	r1, r3, #30
 8006188:	bf04      	itt	eq
 800618a:	089b      	lsreq	r3, r3, #2
 800618c:	3202      	addeq	r2, #2
 800618e:	07d9      	lsls	r1, r3, #31
 8006190:	d403      	bmi.n	800619a <__lo0bits+0x4e>
 8006192:	085b      	lsrs	r3, r3, #1
 8006194:	f102 0201 	add.w	r2, r2, #1
 8006198:	d003      	beq.n	80061a2 <__lo0bits+0x56>
 800619a:	6003      	str	r3, [r0, #0]
 800619c:	e7e5      	b.n	800616a <__lo0bits+0x1e>
 800619e:	2200      	movs	r2, #0
 80061a0:	e7e3      	b.n	800616a <__lo0bits+0x1e>
 80061a2:	2220      	movs	r2, #32
 80061a4:	e7e1      	b.n	800616a <__lo0bits+0x1e>
	...

080061a8 <__i2b>:
 80061a8:	b510      	push	{r4, lr}
 80061aa:	460c      	mov	r4, r1
 80061ac:	2101      	movs	r1, #1
 80061ae:	f7ff ff05 	bl	8005fbc <_Balloc>
 80061b2:	4602      	mov	r2, r0
 80061b4:	b928      	cbnz	r0, 80061c2 <__i2b+0x1a>
 80061b6:	4b05      	ldr	r3, [pc, #20]	; (80061cc <__i2b+0x24>)
 80061b8:	4805      	ldr	r0, [pc, #20]	; (80061d0 <__i2b+0x28>)
 80061ba:	f240 1145 	movw	r1, #325	; 0x145
 80061be:	f000 fe7f 	bl	8006ec0 <__assert_func>
 80061c2:	2301      	movs	r3, #1
 80061c4:	6144      	str	r4, [r0, #20]
 80061c6:	6103      	str	r3, [r0, #16]
 80061c8:	bd10      	pop	{r4, pc}
 80061ca:	bf00      	nop
 80061cc:	0800748c 	.word	0x0800748c
 80061d0:	0800749d 	.word	0x0800749d

080061d4 <__multiply>:
 80061d4:	e92d 4ff0 	stmdb	sp!, {r4, r5, r6, r7, r8, r9, sl, fp, lr}
 80061d8:	4691      	mov	r9, r2
 80061da:	690a      	ldr	r2, [r1, #16]
 80061dc:	f8d9 3010 	ldr.w	r3, [r9, #16]
 80061e0:	429a      	cmp	r2, r3
 80061e2:	bfb8      	it	lt
 80061e4:	460b      	movlt	r3, r1
 80061e6:	460c      	mov	r4, r1
 80061e8:	bfbc      	itt	lt
 80061ea:	464c      	movlt	r4, r9
 80061ec:	4699      	movlt	r9, r3
 80061ee:	6927      	ldr	r7, [r4, #16]
 80061f0:	f8d9 a010 	ldr.w	sl, [r9, #16]
 80061f4:	68a3      	ldr	r3, [r4, #8]
 80061f6:	6861      	ldr	r1, [r4, #4]
 80061f8:	eb07 060a 	add.w	r6, r7, sl
 80061fc:	42b3      	cmp	r3, r6
 80061fe:	b085      	sub	sp, #20
 8006200:	bfb8      	it	lt
 8006202:	3101      	addlt	r1, #1
 8006204:	f7ff feda 	bl	8005fbc <_Balloc>
 8006208:	b930      	cbnz	r0, 8006218 <__multiply+0x44>
 800620a:	4602      	mov	r2, r0
 800620c:	4b44      	ldr	r3, [pc, #272]	; (8006320 <__multiply+0x14c>)
 800620e:	4845      	ldr	r0, [pc, #276]	; (8006324 <__multiply+0x150>)
 8006210:	f44f 71b1 	mov.w	r1, #354	; 0x162
 8006214:	f000 fe54 	bl	8006ec0 <__assert_func>
 8006218:	f100 0514 	add.w	r5, r0, #20
 800621c:	eb05 0886 	add.w	r8, r5, r6, lsl #2
 8006220:	462b      	mov	r3, r5
 8006222:	2200      	movs	r2, #0
 8006224:	4543      	cmp	r3, r8
 8006226:	d321      	bcc.n	800626c <__multiply+0x98>
 8006228:	f104 0314 	add.w	r3, r4, #20
 800622c:	eb03 0787 	add.w	r7, r3, r7, lsl #2
 8006230:	f109 0314 	add.w	r3, r9, #20
 8006234:	eb03 028a 	add.w	r2, r3, sl, lsl #2
 8006238:	9202      	str	r2, [sp, #8]
 800623a:	1b3a      	subs	r2, r7, r4
 800623c:	3a15      	subs	r2, #21
 800623e:	f022 0203 	bic.w	r2, r2, #3
 8006242:	3204      	adds	r2, #4
 8006244:	f104 0115 	add.w	r1, r4, #21
 8006248:	428f      	cmp	r7, r1
 800624a:	bf38      	it	cc
 800624c:	2204      	movcc	r2, #4
 800624e:	9201      	str	r2, [sp, #4]
 8006250:	9a02      	ldr	r2, [sp, #8]
 8006252:	9303      	str	r3, [sp, #12]
 8006254:	429a      	cmp	r2, r3
 8006256:	d80c      	bhi.n	8006272 <__multiply+0x9e>
 8006258:	2e00      	cmp	r6, #0
 800625a:	dd03      	ble.n	8006264 <__multiply+0x90>
 800625c:	f858 3d04 	ldr.w	r3, [r8, #-4]!
 8006260:	2b00      	cmp	r3, #0
 8006262:	d05b      	beq.n	800631c <__multiply+0x148>
 8006264:	6106      	str	r6, [r0, #16]
 8006266:	b005      	add	sp, #20
 8006268:	e8bd 8ff0 	ldmia.w	sp!, {r4, r5, r6, r7, r8, r9, sl, fp, pc}
 800626c:	f843 2b04 	str.w	r2, [r3], #4
 8006270:	e7d8      	b.n	8006224 <__multiply+0x50>
 8006272:	f8b3 a000 	ldrh.w	sl, [r3]
 8006276:	f1ba 0f00 	cmp.w	sl, #0
 800627a:	d024      	beq.n	80062c6 <__multiply+0xf2>
 800627c:	f104 0e14 	add.w	lr, r4, #20
 8006280:	46a9      	mov	r9, r5
 8006282:	f04f 0c00 	mov.w	ip, #0
 8006286:	f85e 2b04 	ldr.w	r2, [lr], #4
 800628a:	f8d9 1000 	ldr.w	r1, [r9]
 800628e:	fa1f fb82 	uxth.w	fp, r2
 8006292:	b289      	uxth	r1, r1
 8006294:	fb0a 110b 	mla	r1, sl, fp, r1
 8006298:	ea4f 4b12 	mov.w	fp, r2, lsr #16
 800629c:	f8d9 2000 	ldr.w	r2, [r9]
 80062a0:	4461      	add	r1, ip
 80062a2:	ea4f 4c12 	mov.w	ip, r2, lsr #16
 80062a6:	fb0a c20b 	mla	r2, sl, fp, ip
 80062aa:	eb02 4211 	add.w	r2, r2, r1, lsr #16
 80062ae:	b289      	uxth	r1, r1
 80062b0:	ea41 4102 	orr.w	r1, r1, r2, lsl #16
 80062b4:	4577      	cmp	r7, lr
 80062b6:	f849 1b04 	str.w	r1, [r9], #4
 80062ba:	ea4f 4c12 	mov.w	ip, r2, lsr #16
 80062be:	d8e2      	bhi.n	8006286 <__multiply+0xb2>
 80062c0:	9a01      	ldr	r2, [sp, #4]
 80062c2:	f845 c002 	str.w	ip, [r5, r2]
 80062c6:	9a03      	ldr	r2, [sp, #12]
 80062c8:	f8b2 9002 	ldrh.w	r9, [r2, #2]
 80062cc:	3304      	adds	r3, #4
 80062ce:	f1b9 0f00 	cmp.w	r9, #0
 80062d2:	d021      	beq.n	8006318 <__multiply+0x144>
 80062d4:	6829      	ldr	r1, [r5, #0]
 80062d6:	f104 0c14 	add.w	ip, r4, #20
 80062da:	46ae      	mov	lr, r5
 80062dc:	f04f 0a00 	mov.w	sl, #0
 80062e0:	f8bc b000 	ldrh.w	fp, [ip]
 80062e4:	f8be 2002 	ldrh.w	r2, [lr, #2]
 80062e8:	fb09 220b 	mla	r2, r9, fp, r2
 80062ec:	4452      	add	r2, sl
 80062ee:	b289      	uxth	r1, r1
 80062f0:	ea41 4102 	orr.w	r1, r1, r2, lsl #16
 80062f4:	f84e 1b04 	str.w	r1, [lr], #4
 80062f8:	f85c 1b04 	ldr.w	r1, [ip], #4
 80062fc:	ea4f 4a11 	mov.w	sl, r1, lsr #16
 8006300:	f8be 1000 	ldrh.w	r1, [lr]
 8006304:	fb09 110a 	mla	r1, r9, sl, r1
 8006308:	eb01 4112 	add.w	r1, r1, r2, lsr #16
 800630c:	4567      	cmp	r7, ip
 800630e:	ea4f 4a11 	mov.w	sl, r1, lsr #16
 8006312:	d8e5      	bhi.n	80062e0 <__multiply+0x10c>
 8006314:	9a01      	ldr	r2, [sp, #4]
 8006316:	50a9      	str	r1, [r5, r2]
 8006318:	3504      	adds	r5, #4
 800631a:	e799      	b.n	8006250 <__multiply+0x7c>
 800631c:	3e01      	subs	r6, #1
 800631e:	e79b      	b.n	8006258 <__multiply+0x84>
 8006320:	0800748c 	.word	0x0800748c
 8006324:	0800749d 	.word	0x0800749d

08006328 <__pow5mult>:
 8006328:	e92d 43f8 	stmdb	sp!, {r3, r4, r5, r6, r7, r8, r9, lr}
 800632c:	4615      	mov	r5, r2
 800632e:	f012 0203 	ands.w	r2, r2, #3
 8006332:	4606      	mov	r6, r0
 8006334:	460f      	mov	r7, r1
 8006336:	d007      	beq.n	8006348 <__pow5mult+0x20>
 8006338:	4c25      	ldr	r4, [pc, #148]	; (80063d0 <__pow5mult+0xa8>)
 800633a:	3a01      	subs	r2, #1
 800633c:	2300      	movs	r3, #0
 800633e:	f854 2022 	ldr.w	r2, [r4, r2, lsl #2]
 8006342:	f7ff fe9d 	bl	8006080 <__multadd>
 8006346:	4607      	mov	r7, r0
 8006348:	10ad      	asrs	r5, r5, #2
 800634a:	d03d      	beq.n	80063c8 <__pow5mult+0xa0>
 800634c:	69f4      	ldr	r4, [r6, #28]
 800634e:	b97c      	cbnz	r4, 8006370 <__pow5mult+0x48>
 8006350:	2010      	movs	r0, #16
 8006352:	f7ff fd7f 	bl	8005e54 <malloc>
 8006356:	4602      	mov	r2, r0
 8006358:	61f0      	str	r0, [r6, #28]
 800635a:	b928      	cbnz	r0, 8006368 <__pow5mult+0x40>
 800635c:	4b1d      	ldr	r3, [pc, #116]	; (80063d4 <__pow5mult+0xac>)
 800635e:	481e      	ldr	r0, [pc, #120]	; (80063d8 <__pow5mult+0xb0>)
 8006360:	f240 11b3 	movw	r1, #435	; 0x1b3
 8006364:	f000 fdac 	bl	8006ec0 <__assert_func>
 8006368:	e9c0 4401 	strd	r4, r4, [r0, #4]
 800636c:	6004      	str	r4, [r0, #0]
 800636e:	60c4      	str	r4, [r0, #12]
 8006370:	f8d6 801c 	ldr.w	r8, [r6, #28]
 8006374:	f8d8 4008 	ldr.w	r4, [r8, #8]
 8006378:	b94c      	cbnz	r4, 800638e <__pow5mult+0x66>
 800637a:	f240 2171 	movw	r1, #625	; 0x271
 800637e:	4630      	mov	r0, r6
 8006380:	f7ff ff12 	bl	80061a8 <__i2b>
 8006384:	2300      	movs	r3, #0
 8006386:	f8c8 0008 	str.w	r0, [r8, #8]
 800638a:	4604      	mov	r4, r0
 800638c:	6003      	str	r3, [r0, #0]
 800638e:	f04f 0900 	mov.w	r9, #0
 8006392:	07eb      	lsls	r3, r5, #31
 8006394:	d50a      	bpl.n	80063ac <__pow5mult+0x84>
 8006396:	4639      	mov	r1, r7
 8006398:	4622      	mov	r2, r4
 800639a:	4630      	mov	r0, r6
 800639c:	f7ff ff1a 	bl	80061d4 <__multiply>
 80063a0:	4639      	mov	r1, r7
 80063a2:	4680      	mov	r8, r0
 80063a4:	4630      	mov	r0, r6
 80063a6:	f7ff fe49 	bl	800603c <_Bfree>
 80063aa:	4647      	mov	r7, r8
 80063ac:	106d      	asrs	r5, r5, #1
 80063ae:	d00b      	beq.n	80063c8 <__pow5mult+0xa0>
 80063b0:	6820      	ldr	r0, [r4, #0]
 80063b2:	b938      	cbnz	r0, 80063c4 <__pow5mult+0x9c>
 80063b4:	4622      	mov	r2, r4
 80063b6:	4621      	mov	r1, r4
 80063b8:	4630      	mov	r0, r6
 80063ba:	f7ff ff0b 	bl	80061d4 <__multiply>
 80063be:	6020      	str	r0, [r4, #0]
 80063c0:	f8c0 9000 	str.w	r9, [r0]
 80063c4:	4604      	mov	r4, r0
 80063c6:	e7e4      	b.n	8006392 <__pow5mult+0x6a>
 80063c8:	4638      	mov	r0, r7
 80063ca:	e8bd 83f8 	ldmia.w	sp!, {r3, r4, r5, r6, r7, r8, r9, pc}
 80063ce:	bf00      	nop
 80063d0:	080075e8 	.word	0x080075e8
 80063d4:	0800741d 	.word	0x0800741d
 80063d8:	0800749d 	.word	0x0800749d

080063dc <__lshift>:
 80063dc:	e92d 47f0 	stmdb	sp!, {r4, r5, r6, r7, r8, r9, sl, lr}
 80063e0:	460c      	mov	r4, r1
 80063e2:	6849      	ldr	r1, [r1, #4]
 80063e4:	6923      	ldr	r3, [r4, #16]
 80063e6:	eb03 1862 	add.w	r8, r3, r2, asr #5
 80063ea:	68a3      	ldr	r3, [r4, #8]
 80063ec:	4607      	mov	r7, r0
 80063ee:	4691      	mov	r9, r2
 80063f0:	ea4f 1a62 	mov.w	sl, r2, asr #5
 80063f4:	f108 0601 	add.w	r6, r8, #1
 80063f8:	42b3      	cmp	r3, r6
 80063fa:	db0b      	blt.n	8006414 <__lshift+0x38>
 80063fc:	4638      	mov	r0, r7
 80063fe:	f7ff fddd 	bl	8005fbc <_Balloc>
 8006402:	4605      	mov	r5, r0
 8006404:	b948      	cbnz	r0, 800641a <__lshift+0x3e>
 8006406:	4602      	mov	r2, r0
 8006408:	4b28      	ldr	r3, [pc, #160]	; (80064ac <__lshift+0xd0>)
 800640a:	4829      	ldr	r0, [pc, #164]	; (80064b0 <__lshift+0xd4>)
 800640c:	f44f 71ef 	mov.w	r1, #478	; 0x1de
 8006410:	f000 fd56 	bl	8006ec0 <__assert_func>
 8006414:	3101      	adds	r1, #1
 8006416:	005b      	lsls	r3, r3, #1
 8006418:	e7ee      	b.n	80063f8 <__lshift+0x1c>
 800641a:	2300      	movs	r3, #0
 800641c:	f100 0114 	add.w	r1, r0, #20
 8006420:	f100 0210 	add.w	r2, r0, #16
 8006424:	4618      	mov	r0, r3
 8006426:	4553      	cmp	r3, sl
 8006428:	db33      	blt.n	8006492 <__lshift+0xb6>
 800642a:	6920      	ldr	r0, [r4, #16]
 800642c:	ea2a 7aea 	bic.w	sl, sl, sl, asr #31
 8006430:	f104 0314 	add.w	r3, r4, #20
 8006434:	f019 091f 	ands.w	r9, r9, #31
 8006438:	eb01 018a 	add.w	r1, r1, sl, lsl #2
 800643c:	eb03 0c80 	add.w	ip, r3, r0, lsl #2
 8006440:	d02b      	beq.n	800649a <__lshift+0xbe>
 8006442:	f1c9 0e20 	rsb	lr, r9, #32
 8006446:	468a      	mov	sl, r1
 8006448:	2200      	movs	r2, #0
 800644a:	6818      	ldr	r0, [r3, #0]
 800644c:	fa00 f009 	lsl.w	r0, r0, r9
 8006450:	4310      	orrs	r0, r2
 8006452:	f84a 0b04 	str.w	r0, [sl], #4
 8006456:	f853 2b04 	ldr.w	r2, [r3], #4
 800645a:	459c      	cmp	ip, r3
 800645c:	fa22 f20e 	lsr.w	r2, r2, lr
 8006460:	d8f3      	bhi.n	800644a <__lshift+0x6e>
 8006462:	ebac 0304 	sub.w	r3, ip, r4
 8006466:	3b15      	subs	r3, #21
 8006468:	f023 0303 	bic.w	r3, r3, #3
 800646c:	3304      	adds	r3, #4
 800646e:	f104 0015 	add.w	r0, r4, #21
 8006472:	4584      	cmp	ip, r0
 8006474:	bf38      	it	cc
 8006476:	2304      	movcc	r3, #4
 8006478:	50ca      	str	r2, [r1, r3]
 800647a:	b10a      	cbz	r2, 8006480 <__lshift+0xa4>
 800647c:	f108 0602 	add.w	r6, r8, #2
 8006480:	3e01      	subs	r6, #1
 8006482:	4638      	mov	r0, r7
 8006484:	612e      	str	r6, [r5, #16]
 8006486:	4621      	mov	r1, r4
 8006488:	f7ff fdd8 	bl	800603c <_Bfree>
 800648c:	4628      	mov	r0, r5
 800648e:	e8bd 87f0 	ldmia.w	sp!, {r4, r5, r6, r7, r8, r9, sl, pc}
 8006492:	f842 0f04 	str.w	r0, [r2, #4]!
 8006496:	3301      	adds	r3, #1
 8006498:	e7c5      	b.n	8006426 <__lshift+0x4a>
 800649a:	3904      	subs	r1, #4
 800649c:	f853 2b04 	ldr.w	r2, [r3], #4
 80064a0:	f841 2f04 	str.w	r2, [r1, #4]!
 80064a4:	459c      	cmp	ip, r3
 80064a6:	d8f9      	bhi.n	800649c <__lshift+0xc0>
 80064a8:	e7ea      	b.n	8006480 <__lshift+0xa4>
 80064aa:	bf00      	nop
 80064ac:	0800748c 	.word	0x0800748c
 80064b0:	0800749d 	.word	0x0800749d

080064b4 <__mcmp>:
 80064b4:	b530      	push	{r4, r5, lr}
 80064b6:	6902      	ldr	r2, [r0, #16]
 80064b8:	690c      	ldr	r4, [r1, #16]
 80064ba:	1b12      	subs	r2, r2, r4
 80064bc:	d10e      	bne.n	80064dc <__mcmp+0x28>
 80064be:	f100 0314 	add.w	r3, r0, #20
 80064c2:	3114      	adds	r1, #20
 80064c4:	eb03 0084 	add.w	r0, r3, r4, lsl #2
 80064c8:	eb01 0184 	add.w	r1, r1, r4, lsl #2
 80064cc:	f850 5d04 	ldr.w	r5, [r0, #-4]!
 80064d0:	f851 4d04 	ldr.w	r4, [r1, #-4]!
 80064d4:	42a5      	cmp	r5, r4
 80064d6:	d003      	beq.n	80064e0 <__mcmp+0x2c>
 80064d8:	d305      	bcc.n	80064e6 <__mcmp+0x32>
 80064da:	2201      	movs	r2, #1
 80064dc:	4610      	mov	r0, r2
 80064de:	bd30      	pop	{r4, r5, pc}
 80064e0:	4283      	cmp	r3, r0
 80064e2:	d3f3      	bcc.n	80064cc <__mcmp+0x18>
 80064e4:	e7fa      	b.n	80064dc <__mcmp+0x28>
 80064e6:	f04f 32ff 	mov.w	r2, #4294967295	; 0xffffffff
 80064ea:	e7f7      	b.n	80064dc <__mcmp+0x28>

080064ec <__mdiff>:
 80064ec:	e92d 4ff8 	stmdb	sp!, {r3, r4, r5, r6, r7, r8, r9, sl, fp, lr}
 80064f0:	460c      	mov	r4, r1
 80064f2:	4606      	mov	r6, r0
 80064f4:	4611      	mov	r1, r2
 80064f6:	4620      	mov	r0, r4
 80064f8:	4690      	mov	r8, r2
 80064fa:	f7ff ffdb 	bl	80064b4 <__mcmp>
 80064fe:	1e05      	subs	r5, r0, #0
 8006500:	d110      	bne.n	8006524 <__mdiff+0x38>
 8006502:	4629      	mov	r1, r5
 8006504:	4630      	mov	r0, r6
 8006506:	f7ff fd59 	bl	8005fbc <_Balloc>
 800650a:	b930      	cbnz	r0, 800651a <__mdiff+0x2e>
 800650c:	4b3a      	ldr	r3, [pc, #232]	; (80065f8 <__mdiff+0x10c>)
 800650e:	4602      	mov	r2, r0
 8006510:	f240 2137 	movw	r1, #567	; 0x237
 8006514:	4839      	ldr	r0, [pc, #228]	; (80065fc <__mdiff+0x110>)
 8006516:	f000 fcd3 	bl	8006ec0 <__assert_func>
 800651a:	2301      	movs	r3, #1
 800651c:	e9c0 3504 	strd	r3, r5, [r0, #16]
 8006520:	e8bd 8ff8 	ldmia.w	sp!, {r3, r4, r5, r6, r7, r8, r9, sl, fp, pc}
 8006524:	bfa4      	itt	ge
 8006526:	4643      	movge	r3, r8
 8006528:	46a0      	movge	r8, r4
 800652a:	4630      	mov	r0, r6
 800652c:	f8d8 1004 	ldr.w	r1, [r8, #4]
 8006530:	bfa6      	itte	ge
 8006532:	461c      	movge	r4, r3
 8006534:	2500      	movge	r5, #0
 8006536:	2501      	movlt	r5, #1
 8006538:	f7ff fd40 	bl	8005fbc <_Balloc>
 800653c:	b920      	cbnz	r0, 8006548 <__mdiff+0x5c>
 800653e:	4b2e      	ldr	r3, [pc, #184]	; (80065f8 <__mdiff+0x10c>)
 8006540:	4602      	mov	r2, r0
 8006542:	f240 2145 	movw	r1, #581	; 0x245
 8006546:	e7e5      	b.n	8006514 <__mdiff+0x28>
 8006548:	f8d8 7010 	ldr.w	r7, [r8, #16]
 800654c:	6926      	ldr	r6, [r4, #16]
 800654e:	60c5      	str	r5, [r0, #12]
 8006550:	f104 0914 	add.w	r9, r4, #20
 8006554:	f108 0514 	add.w	r5, r8, #20
 8006558:	f100 0e14 	add.w	lr, r0, #20
 800655c:	eb05 0c87 	add.w	ip, r5, r7, lsl #2
 8006560:	eb09 0686 	add.w	r6, r9, r6, lsl #2
 8006564:	f108 0210 	add.w	r2, r8, #16
 8006568:	46f2      	mov	sl, lr
 800656a:	2100      	movs	r1, #0
 800656c:	f859 3b04 	ldr.w	r3, [r9], #4
 8006570:	f852 bf04 	ldr.w	fp, [r2, #4]!
 8006574:	fa11 f88b 	uxtah	r8, r1, fp
 8006578:	b299      	uxth	r1, r3
 800657a:	0c1b      	lsrs	r3, r3, #16
 800657c:	eba8 0801 	sub.w	r8, r8, r1
 8006580:	ebc3 431b 	rsb	r3, r3, fp, lsr #16
 8006584:	eb03 4328 	add.w	r3, r3, r8, asr #16
 8006588:	fa1f f888 	uxth.w	r8, r8
 800658c:	1419      	asrs	r1, r3, #16
 800658e:	454e      	cmp	r6, r9
 8006590:	ea48 4303 	orr.w	r3, r8, r3, lsl #16
 8006594:	f84a 3b04 	str.w	r3, [sl], #4
 8006598:	d8e8      	bhi.n	800656c <__mdiff+0x80>
 800659a:	1b33      	subs	r3, r6, r4
 800659c:	3b15      	subs	r3, #21
 800659e:	f023 0303 	bic.w	r3, r3, #3
 80065a2:	3304      	adds	r3, #4
 80065a4:	3415      	adds	r4, #21
 80065a6:	42a6      	cmp	r6, r4
 80065a8:	bf38      	it	cc
 80065aa:	2304      	movcc	r3, #4
 80065ac:	441d      	add	r5, r3
 80065ae:	4473      	add	r3, lr
 80065b0:	469e      	mov	lr, r3
 80065b2:	462e      	mov	r6, r5
 80065b4:	4566      	cmp	r6, ip
 80065b6:	d30e      	bcc.n	80065d6 <__mdiff+0xea>
 80065b8:	f10c 0203 	add.w	r2, ip, #3
 80065bc:	1b52      	subs	r2, r2, r5
 80065be:	f022 0203 	bic.w	r2, r2, #3
 80065c2:	3d03      	subs	r5, #3
 80065c4:	45ac      	cmp	ip, r5
 80065c6:	bf38      	it	cc
 80065c8:	2200      	movcc	r2, #0
 80065ca:	4413      	add	r3, r2
 80065cc:	f853 2d04 	ldr.w	r2, [r3, #-4]!
 80065d0:	b17a      	cbz	r2, 80065f2 <__mdiff+0x106>
 80065d2:	6107      	str	r7, [r0, #16]
 80065d4:	e7a4      	b.n	8006520 <__mdiff+0x34>
 80065d6:	f856 8b04 	ldr.w	r8, [r6], #4
 80065da:	fa11 f288 	uxtah	r2, r1, r8
 80065de:	1414      	asrs	r4, r2, #16
 80065e0:	eb04 4418 	add.w	r4, r4, r8, lsr #16
 80065e4:	b292      	uxth	r2, r2
 80065e6:	ea42 4204 	orr.w	r2, r2, r4, lsl #16
 80065ea:	f84e 2b04 	str.w	r2, [lr], #4
 80065ee:	1421      	asrs	r1, r4, #16
 80065f0:	e7e0      	b.n	80065b4 <__mdiff+0xc8>
 80065f2:	3f01      	subs	r7, #1
 80065f4:	e7ea      	b.n	80065cc <__mdiff+0xe0>
 80065f6:	bf00      	nop
 80065f8:	0800748c 	.word	0x0800748c
 80065fc:	0800749d 	.word	0x0800749d

08006600 <__d2b>:
 8006600:	e92d 43f7 	stmdb	sp!, {r0, r1, r2, r4, r5, r6, r7, r8, r9, lr}
 8006604:	460f      	mov	r7, r1
 8006606:	2101      	movs	r1, #1
 8006608:	ec59 8b10 	vmov	r8, r9, d0
 800660c:	4616      	mov	r6, r2
 800660e:	f7ff fcd5 	bl	8005fbc <_Balloc>
 8006612:	4604      	mov	r4, r0
 8006614:	b930      	cbnz	r0, 8006624 <__d2b+0x24>
 8006616:	4602      	mov	r2, r0
 8006618:	4b24      	ldr	r3, [pc, #144]	; (80066ac <__d2b+0xac>)
 800661a:	4825      	ldr	r0, [pc, #148]	; (80066b0 <__d2b+0xb0>)
 800661c:	f240 310f 	movw	r1, #783	; 0x30f
 8006620:	f000 fc4e 	bl	8006ec0 <__assert_func>
 8006624:	f3c9 550a 	ubfx	r5, r9, #20, #11
 8006628:	f3c9 0313 	ubfx	r3, r9, #0, #20
 800662c:	bb2d      	cbnz	r5, 800667a <__d2b+0x7a>
 800662e:	9301      	str	r3, [sp, #4]
 8006630:	f1b8 0300 	subs.w	r3, r8, #0
 8006634:	d026      	beq.n	8006684 <__d2b+0x84>
 8006636:	4668      	mov	r0, sp
 8006638:	9300      	str	r3, [sp, #0]
 800663a:	f7ff fd87 	bl	800614c <__lo0bits>
 800663e:	e9dd 1200 	ldrd	r1, r2, [sp]
 8006642:	b1e8      	cbz	r0, 8006680 <__d2b+0x80>
 8006644:	f1c0 0320 	rsb	r3, r0, #32
 8006648:	fa02 f303 	lsl.w	r3, r2, r3
 800664c:	430b      	orrs	r3, r1
 800664e:	40c2      	lsrs	r2, r0
 8006650:	6163      	str	r3, [r4, #20]
 8006652:	9201      	str	r2, [sp, #4]
 8006654:	9b01      	ldr	r3, [sp, #4]
 8006656:	61a3      	str	r3, [r4, #24]
 8006658:	2b00      	cmp	r3, #0
 800665a:	bf14      	ite	ne
 800665c:	2202      	movne	r2, #2
 800665e:	2201      	moveq	r2, #1
 8006660:	6122      	str	r2, [r4, #16]
 8006662:	b1bd      	cbz	r5, 8006694 <__d2b+0x94>
 8006664:	f2a5 4533 	subw	r5, r5, #1075	; 0x433
 8006668:	4405      	add	r5, r0
 800666a:	603d      	str	r5, [r7, #0]
 800666c:	f1c0 0035 	rsb	r0, r0, #53	; 0x35
 8006670:	6030      	str	r0, [r6, #0]
 8006672:	4620      	mov	r0, r4
 8006674:	b003      	add	sp, #12
 8006676:	e8bd 83f0 	ldmia.w	sp!, {r4, r5, r6, r7, r8, r9, pc}
 800667a:	f443 1380 	orr.w	r3, r3, #1048576	; 0x100000
 800667e:	e7d6      	b.n	800662e <__d2b+0x2e>
 8006680:	6161      	str	r1, [r4, #20]
 8006682:	e7e7      	b.n	8006654 <__d2b+0x54>
 8006684:	a801      	add	r0, sp, #4
 8006686:	f7ff fd61 	bl	800614c <__lo0bits>
 800668a:	9b01      	ldr	r3, [sp, #4]
 800668c:	6163      	str	r3, [r4, #20]
 800668e:	3020      	adds	r0, #32
 8006690:	2201      	movs	r2, #1
 8006692:	e7e5      	b.n	8006660 <__d2b+0x60>
 8006694:	eb04 0382 	add.w	r3, r4, r2, lsl #2
 8006698:	f2a0 4032 	subw	r0, r0, #1074	; 0x432
 800669c:	6038      	str	r0, [r7, #0]
 800669e:	6918      	ldr	r0, [r3, #16]
 80066a0:	f7ff fd34 	bl	800610c <__hi0bits>
 80066a4:	ebc0 1042 	rsb	r0, r0, r2, lsl #5
 80066a8:	e7e2      	b.n	8006670 <__d2b+0x70>
 80066aa:	bf00      	nop
 80066ac:	0800748c 	.word	0x0800748c
 80066b0:	0800749d 	.word	0x0800749d

080066b4 <__ssputs_r>:
 80066b4:	e92d 47f0 	stmdb	sp!, {r4, r5, r6, r7, r8, r9, sl, lr}
 80066b8:	688e      	ldr	r6, [r1, #8]
 80066ba:	461f      	mov	r7, r3
 80066bc:	42be      	cmp	r6, r7
 80066be:	680b      	ldr	r3, [r1, #0]
 80066c0:	4682      	mov	sl, r0
 80066c2:	460c      	mov	r4, r1
 80066c4:	4690      	mov	r8, r2
 80066c6:	d82c      	bhi.n	8006722 <__ssputs_r+0x6e>
 80066c8:	898a      	ldrh	r2, [r1, #12]
 80066ca:	f412 6f90 	tst.w	r2, #1152	; 0x480
 80066ce:	d026      	beq.n	800671e <__ssputs_r+0x6a>
 80066d0:	6965      	ldr	r5, [r4, #20]
 80066d2:	6909      	ldr	r1, [r1, #16]
 80066d4:	eb05 0545 	add.w	r5, r5, r5, lsl #1
 80066d8:	eba3 0901 	sub.w	r9, r3, r1
 80066dc:	eb05 75d5 	add.w	r5, r5, r5, lsr #31
 80066e0:	1c7b      	adds	r3, r7, #1
 80066e2:	444b      	add	r3, r9
 80066e4:	106d      	asrs	r5, r5, #1
 80066e6:	429d      	cmp	r5, r3
 80066e8:	bf38      	it	cc
 80066ea:	461d      	movcc	r5, r3
 80066ec:	0553      	lsls	r3, r2, #21
 80066ee:	d527      	bpl.n	8006740 <__ssputs_r+0x8c>
 80066f0:	4629      	mov	r1, r5
 80066f2:	f7ff fbd7 	bl	8005ea4 <_malloc_r>
 80066f6:	4606      	mov	r6, r0
 80066f8:	b360      	cbz	r0, 8006754 <__ssputs_r+0xa0>
 80066fa:	6921      	ldr	r1, [r4, #16]
 80066fc:	464a      	mov	r2, r9
 80066fe:	f000 fbd1 	bl	8006ea4 <memcpy>
 8006702:	89a3      	ldrh	r3, [r4, #12]
 8006704:	f423 6390 	bic.w	r3, r3, #1152	; 0x480
 8006708:	f043 0380 	orr.w	r3, r3, #128	; 0x80
 800670c:	81a3      	strh	r3, [r4, #12]
 800670e:	6126      	str	r6, [r4, #16]
 8006710:	6165      	str	r5, [r4, #20]
 8006712:	444e      	add	r6, r9
 8006714:	eba5 0509 	sub.w	r5, r5, r9
 8006718:	6026      	str	r6, [r4, #0]
 800671a:	60a5      	str	r5, [r4, #8]
 800671c:	463e      	mov	r6, r7
 800671e:	42be      	cmp	r6, r7
 8006720:	d900      	bls.n	8006724 <__ssputs_r+0x70>
 8006722:	463e      	mov	r6, r7
 8006724:	6820      	ldr	r0, [r4, #0]
 8006726:	4632      	mov	r2, r6
 8006728:	4641      	mov	r1, r8
 800672a:	f000 fb6f 	bl	8006e0c <memmove>
 800672e:	68a3      	ldr	r3, [r4, #8]
 8006730:	1b9b      	subs	r3, r3, r6
 8006732:	60a3      	str	r3, [r4, #8]
 8006734:	6823      	ldr	r3, [r4, #0]
 8006736:	4433      	add	r3, r6
 8006738:	6023      	str	r3, [r4, #0]
 800673a:	2000      	movs	r0, #0
 800673c:	e8bd 87f0 	ldmia.w	sp!, {r4, r5, r6, r7, r8, r9, sl, pc}
 8006740:	462a      	mov	r2, r5
 8006742:	f000 fc03 	bl	8006f4c <_realloc_r>
 8006746:	4606      	mov	r6, r0
 8006748:	2800      	cmp	r0, #0
 800674a:	d1e0      	bne.n	800670e <__ssputs_r+0x5a>
 800674c:	6921      	ldr	r1, [r4, #16]
 800674e:	4650      	mov	r0, sl
 8006750:	f7ff fb34 	bl	8005dbc <_free_r>
 8006754:	230c      	movs	r3, #12
 8006756:	f8ca 3000 	str.w	r3, [sl]
 800675a:	89a3      	ldrh	r3, [r4, #12]
 800675c:	f043 0340 	orr.w	r3, r3, #64	; 0x40
 8006760:	81a3      	strh	r3, [r4, #12]
 8006762:	f04f 30ff 	mov.w	r0, #4294967295	; 0xffffffff
 8006766:	e7e9      	b.n	800673c <__ssputs_r+0x88>

08006768 <_svfiprintf_r>:
 8006768:	e92d 4ff0 	stmdb	sp!, {r4, r5, r6, r7, r8, r9, sl, fp, lr}
 800676c:	4698      	mov	r8, r3
 800676e:	898b      	ldrh	r3, [r1, #12]
 8006770:	061b      	lsls	r3, r3, #24
 8006772:	b09d      	sub	sp, #116	; 0x74
 8006774:	4607      	mov	r7, r0
 8006776:	460d      	mov	r5, r1
 8006778:	4614      	mov	r4, r2
 800677a:	d50e      	bpl.n	800679a <_svfiprintf_r+0x32>
 800677c:	690b      	ldr	r3, [r1, #16]
 800677e:	b963      	cbnz	r3, 800679a <_svfiprintf_r+0x32>
 8006780:	2140      	movs	r1, #64	; 0x40
 8006782:	f7ff fb8f 	bl	8005ea4 <_malloc_r>
 8006786:	6028      	str	r0, [r5, #0]
 8006788:	6128      	str	r0, [r5, #16]
 800678a:	b920      	cbnz	r0, 8006796 <_svfiprintf_r+0x2e>
 800678c:	230c      	movs	r3, #12
 800678e:	603b      	str	r3, [r7, #0]
 8006790:	f04f 30ff 	mov.w	r0, #4294967295	; 0xffffffff
 8006794:	e0d0      	b.n	8006938 <_svfiprintf_r+0x1d0>
 8006796:	2340      	movs	r3, #64	; 0x40
 8006798:	616b      	str	r3, [r5, #20]
 800679a:	2300      	movs	r3, #0
 800679c:	9309      	str	r3, [sp, #36]	; 0x24
 800679e:	2320      	movs	r3, #32
 80067a0:	f88d 3029 	strb.w	r3, [sp, #41]	; 0x29
 80067a4:	f8cd 800c 	str.w	r8, [sp, #12]
 80067a8:	2330      	movs	r3, #48	; 0x30
 80067aa:	f8df 81a4 	ldr.w	r8, [pc, #420]	; 8006950 <_svfiprintf_r+0x1e8>
 80067ae:	f88d 302a 	strb.w	r3, [sp, #42]	; 0x2a
 80067b2:	f04f 0901 	mov.w	r9, #1
 80067b6:	4623      	mov	r3, r4
 80067b8:	469a      	mov	sl, r3
 80067ba:	f813 2b01 	ldrb.w	r2, [r3], #1
 80067be:	b10a      	cbz	r2, 80067c4 <_svfiprintf_r+0x5c>
 80067c0:	2a25      	cmp	r2, #37	; 0x25
 80067c2:	d1f9      	bne.n	80067b8 <_svfiprintf_r+0x50>
 80067c4:	ebba 0b04 	subs.w	fp, sl, r4
 80067c8:	d00b      	beq.n	80067e2 <_svfiprintf_r+0x7a>
 80067ca:	465b      	mov	r3, fp
 80067cc:	4622      	mov	r2, r4
 80067ce:	4629      	mov	r1, r5
 80067d0:	4638      	mov	r0, r7
 80067d2:	f7ff ff6f 	bl	80066b4 <__ssputs_r>
 80067d6:	3001      	adds	r0, #1
 80067d8:	f000 80a9 	beq.w	800692e <_svfiprintf_r+0x1c6>
 80067dc:	9a09      	ldr	r2, [sp, #36]	; 0x24
 80067de:	445a      	add	r2, fp
 80067e0:	9209      	str	r2, [sp, #36]	; 0x24
 80067e2:	f89a 3000 	ldrb.w	r3, [sl]
 80067e6:	2b00      	cmp	r3, #0
 80067e8:	f000 80a1 	beq.w	800692e <_svfiprintf_r+0x1c6>
 80067ec:	2300      	movs	r3, #0
 80067ee:	f04f 32ff 	mov.w	r2, #4294967295	; 0xffffffff
 80067f2:	e9cd 2305 	strd	r2, r3, [sp, #20]
 80067f6:	f10a 0a01 	add.w	sl, sl, #1
 80067fa:	9304      	str	r3, [sp, #16]
 80067fc:	9307      	str	r3, [sp, #28]
 80067fe:	f88d 3053 	strb.w	r3, [sp, #83]	; 0x53
 8006802:	931a      	str	r3, [sp, #104]	; 0x68
 8006804:	4654      	mov	r4, sl
 8006806:	2205      	movs	r2, #5
 8006808:	f814 1b01 	ldrb.w	r1, [r4], #1
 800680c:	4850      	ldr	r0, [pc, #320]	; (8006950 <_svfiprintf_r+0x1e8>)
 800680e:	f7f9 fcdf 	bl	80001d0 <memchr>
 8006812:	9a04      	ldr	r2, [sp, #16]
 8006814:	b9d8      	cbnz	r0, 800684e <_svfiprintf_r+0xe6>
 8006816:	06d0      	lsls	r0, r2, #27
 8006818:	bf44      	itt	mi
 800681a:	2320      	movmi	r3, #32
 800681c:	f88d 3053 	strbmi.w	r3, [sp, #83]	; 0x53
 8006820:	0711      	lsls	r1, r2, #28
 8006822:	bf44      	itt	mi
 8006824:	232b      	movmi	r3, #43	; 0x2b
 8006826:	f88d 3053 	strbmi.w	r3, [sp, #83]	; 0x53
 800682a:	f89a 3000 	ldrb.w	r3, [sl]
 800682e:	2b2a      	cmp	r3, #42	; 0x2a
 8006830:	d015      	beq.n	800685e <_svfiprintf_r+0xf6>
 8006832:	9a07      	ldr	r2, [sp, #28]
 8006834:	4654      	mov	r4, sl
 8006836:	2000      	movs	r0, #0
 8006838:	f04f 0c0a 	mov.w	ip, #10
 800683c:	4621      	mov	r1, r4
 800683e:	f811 3b01 	ldrb.w	r3, [r1], #1
 8006842:	3b30      	subs	r3, #48	; 0x30
 8006844:	2b09      	cmp	r3, #9
 8006846:	d94d      	bls.n	80068e4 <_svfiprintf_r+0x17c>
 8006848:	b1b0      	cbz	r0, 8006878 <_svfiprintf_r+0x110>
 800684a:	9207      	str	r2, [sp, #28]
 800684c:	e014      	b.n	8006878 <_svfiprintf_r+0x110>
 800684e:	eba0 0308 	sub.w	r3, r0, r8
 8006852:	fa09 f303 	lsl.w	r3, r9, r3
 8006856:	4313      	orrs	r3, r2
 8006858:	9304      	str	r3, [sp, #16]
 800685a:	46a2      	mov	sl, r4
 800685c:	e7d2      	b.n	8006804 <_svfiprintf_r+0x9c>
 800685e:	9b03      	ldr	r3, [sp, #12]
 8006860:	1d19      	adds	r1, r3, #4
 8006862:	681b      	ldr	r3, [r3, #0]
 8006864:	9103      	str	r1, [sp, #12]
 8006866:	2b00      	cmp	r3, #0
 8006868:	bfbb      	ittet	lt
 800686a:	425b      	neglt	r3, r3
 800686c:	f042 0202 	orrlt.w	r2, r2, #2
 8006870:	9307      	strge	r3, [sp, #28]
 8006872:	9307      	strlt	r3, [sp, #28]
 8006874:	bfb8      	it	lt
 8006876:	9204      	strlt	r2, [sp, #16]
 8006878:	7823      	ldrb	r3, [r4, #0]
 800687a:	2b2e      	cmp	r3, #46	; 0x2e
 800687c:	d10c      	bne.n	8006898 <_svfiprintf_r+0x130>
 800687e:	7863      	ldrb	r3, [r4, #1]
 8006880:	2b2a      	cmp	r3, #42	; 0x2a
 8006882:	d134      	bne.n	80068ee <_svfiprintf_r+0x186>
 8006884:	9b03      	ldr	r3, [sp, #12]
 8006886:	1d1a      	adds	r2, r3, #4
 8006888:	681b      	ldr	r3, [r3, #0]
 800688a:	9203      	str	r2, [sp, #12]
 800688c:	2b00      	cmp	r3, #0
 800688e:	bfb8      	it	lt
 8006890:	f04f 33ff 	movlt.w	r3, #4294967295	; 0xffffffff
 8006894:	3402      	adds	r4, #2
 8006896:	9305      	str	r3, [sp, #20]
 8006898:	f8df a0c4 	ldr.w	sl, [pc, #196]	; 8006960 <_svfiprintf_r+0x1f8>
 800689c:	7821      	ldrb	r1, [r4, #0]
 800689e:	2203      	movs	r2, #3
 80068a0:	4650      	mov	r0, sl
 80068a2:	f7f9 fc95 	bl	80001d0 <memchr>
 80068a6:	b138      	cbz	r0, 80068b8 <_svfiprintf_r+0x150>
 80068a8:	9b04      	ldr	r3, [sp, #16]
 80068aa:	eba0 000a 	sub.w	r0, r0, sl
 80068ae:	2240      	movs	r2, #64	; 0x40
 80068b0:	4082      	lsls	r2, r0
 80068b2:	4313      	orrs	r3, r2
 80068b4:	3401      	adds	r4, #1
 80068b6:	9304      	str	r3, [sp, #16]
 80068b8:	f814 1b01 	ldrb.w	r1, [r4], #1
 80068bc:	4825      	ldr	r0, [pc, #148]	; (8006954 <_svfiprintf_r+0x1ec>)
 80068be:	f88d 1028 	strb.w	r1, [sp, #40]	; 0x28
 80068c2:	2206      	movs	r2, #6
 80068c4:	f7f9 fc84 	bl	80001d0 <memchr>
 80068c8:	2800      	cmp	r0, #0
 80068ca:	d038      	beq.n	800693e <_svfiprintf_r+0x1d6>
 80068cc:	4b22      	ldr	r3, [pc, #136]	; (8006958 <_svfiprintf_r+0x1f0>)
 80068ce:	bb1b      	cbnz	r3, 8006918 <_svfiprintf_r+0x1b0>
 80068d0:	9b03      	ldr	r3, [sp, #12]
 80068d2:	3307      	adds	r3, #7
 80068d4:	f023 0307 	bic.w	r3, r3, #7
 80068d8:	3308      	adds	r3, #8
 80068da:	9303      	str	r3, [sp, #12]
 80068dc:	9b09      	ldr	r3, [sp, #36]	; 0x24
 80068de:	4433      	add	r3, r6
 80068e0:	9309      	str	r3, [sp, #36]	; 0x24
 80068e2:	e768      	b.n	80067b6 <_svfiprintf_r+0x4e>
 80068e4:	fb0c 3202 	mla	r2, ip, r2, r3
 80068e8:	460c      	mov	r4, r1
 80068ea:	2001      	movs	r0, #1
 80068ec:	e7a6      	b.n	800683c <_svfiprintf_r+0xd4>
 80068ee:	2300      	movs	r3, #0
 80068f0:	3401      	adds	r4, #1
 80068f2:	9305      	str	r3, [sp, #20]
 80068f4:	4619      	mov	r1, r3
 80068f6:	f04f 0c0a 	mov.w	ip, #10
 80068fa:	4620      	mov	r0, r4
 80068fc:	f810 2b01 	ldrb.w	r2, [r0], #1
 8006900:	3a30      	subs	r2, #48	; 0x30
 8006902:	2a09      	cmp	r2, #9
 8006904:	d903      	bls.n	800690e <_svfiprintf_r+0x1a6>
 8006906:	2b00      	cmp	r3, #0
 8006908:	d0c6      	beq.n	8006898 <_svfiprintf_r+0x130>
 800690a:	9105      	str	r1, [sp, #20]
 800690c:	e7c4      	b.n	8006898 <_svfiprintf_r+0x130>
 800690e:	fb0c 2101 	mla	r1, ip, r1, r2
 8006912:	4604      	mov	r4, r0
 8006914:	2301      	movs	r3, #1
 8006916:	e7f0      	b.n	80068fa <_svfiprintf_r+0x192>
 8006918:	ab03      	add	r3, sp, #12
 800691a:	9300      	str	r3, [sp, #0]
 800691c:	462a      	mov	r2, r5
 800691e:	4b0f      	ldr	r3, [pc, #60]	; (800695c <_svfiprintf_r+0x1f4>)
 8006920:	a904      	add	r1, sp, #16
 8006922:	4638      	mov	r0, r7
 8006924:	f7fd fd36 	bl	8004394 <_printf_float>
 8006928:	1c42      	adds	r2, r0, #1
 800692a:	4606      	mov	r6, r0
 800692c:	d1d6      	bne.n	80068dc <_svfiprintf_r+0x174>
 800692e:	89ab      	ldrh	r3, [r5, #12]
 8006930:	065b      	lsls	r3, r3, #25
 8006932:	f53f af2d 	bmi.w	8006790 <_svfiprintf_r+0x28>
 8006936:	9809      	ldr	r0, [sp, #36]	; 0x24
 8006938:	b01d      	add	sp, #116	; 0x74
 800693a:	e8bd 8ff0 	ldmia.w	sp!, {r4, r5, r6, r7, r8, r9, sl, fp, pc}
 800693e:	ab03      	add	r3, sp, #12
 8006940:	9300      	str	r3, [sp, #0]
 8006942:	462a      	mov	r2, r5
 8006944:	4b05      	ldr	r3, [pc, #20]	; (800695c <_svfiprintf_r+0x1f4>)
 8006946:	a904      	add	r1, sp, #16
 8006948:	4638      	mov	r0, r7
 800694a:	f7fd ffc7 	bl	80048dc <_printf_i>
 800694e:	e7eb      	b.n	8006928 <_svfiprintf_r+0x1c0>
 8006950:	080075f4 	.word	0x080075f4
 8006954:	080075fe 	.word	0x080075fe
 8006958:	08004395 	.word	0x08004395
 800695c:	080066b5 	.word	0x080066b5
 8006960:	080075fa 	.word	0x080075fa

08006964 <__sfputc_r>:
 8006964:	6893      	ldr	r3, [r2, #8]
 8006966:	3b01      	subs	r3, #1
 8006968:	2b00      	cmp	r3, #0
 800696a:	b410      	push	{r4}
 800696c:	6093      	str	r3, [r2, #8]
 800696e:	da08      	bge.n	8006982 <__sfputc_r+0x1e>
 8006970:	6994      	ldr	r4, [r2, #24]
 8006972:	42a3      	cmp	r3, r4
 8006974:	db01      	blt.n	800697a <__sfputc_r+0x16>
 8006976:	290a      	cmp	r1, #10
 8006978:	d103      	bne.n	8006982 <__sfputc_r+0x1e>
 800697a:	f85d 4b04 	ldr.w	r4, [sp], #4
 800697e:	f7fe ba76 	b.w	8004e6e <__swbuf_r>
 8006982:	6813      	ldr	r3, [r2, #0]
 8006984:	1c58      	adds	r0, r3, #1
 8006986:	6010      	str	r0, [r2, #0]
 8006988:	7019      	strb	r1, [r3, #0]
 800698a:	4608      	mov	r0, r1
 800698c:	f85d 4b04 	ldr.w	r4, [sp], #4
 8006990:	4770      	bx	lr

08006992 <__sfputs_r>:
 8006992:	b5f8      	push	{r3, r4, r5, r6, r7, lr}
 8006994:	4606      	mov	r6, r0
 8006996:	460f      	mov	r7, r1
 8006998:	4614      	mov	r4, r2
 800699a:	18d5      	adds	r5, r2, r3
 800699c:	42ac      	cmp	r4, r5
 800699e:	d101      	bne.n	80069a4 <__sfputs_r+0x12>
 80069a0:	2000      	movs	r0, #0
 80069a2:	e007      	b.n	80069b4 <__sfputs_r+0x22>
 80069a4:	f814 1b01 	ldrb.w	r1, [r4], #1
 80069a8:	463a      	mov	r2, r7
 80069aa:	4630      	mov	r0, r6
 80069ac:	f7ff ffda 	bl	8006964 <__sfputc_r>
 80069b0:	1c43      	adds	r3, r0, #1
 80069b2:	d1f3      	bne.n	800699c <__sfputs_r+0xa>
 80069b4:	bdf8      	pop	{r3, r4, r5, r6, r7, pc}
	...

080069b8 <_vfiprintf_r>:
 80069b8:	e92d 4ff0 	stmdb	sp!, {r4, r5, r6, r7, r8, r9, sl, fp, lr}
 80069bc:	460d      	mov	r5, r1
 80069be:	b09d      	sub	sp, #116	; 0x74
 80069c0:	4614      	mov	r4, r2
 80069c2:	4698      	mov	r8, r3
 80069c4:	4606      	mov	r6, r0
 80069c6:	b118      	cbz	r0, 80069d0 <_vfiprintf_r+0x18>
 80069c8:	6a03      	ldr	r3, [r0, #32]
 80069ca:	b90b      	cbnz	r3, 80069d0 <_vfiprintf_r+0x18>
 80069cc:	f7fe f934 	bl	8004c38 <__sinit>
 80069d0:	6e6b      	ldr	r3, [r5, #100]	; 0x64
 80069d2:	07d9      	lsls	r1, r3, #31
 80069d4:	d405      	bmi.n	80069e2 <_vfiprintf_r+0x2a>
 80069d6:	89ab      	ldrh	r3, [r5, #12]
 80069d8:	059a      	lsls	r2, r3, #22
 80069da:	d402      	bmi.n	80069e2 <_vfiprintf_r+0x2a>
 80069dc:	6da8      	ldr	r0, [r5, #88]	; 0x58
 80069de:	f7fe fb68 	bl	80050b2 <__retarget_lock_acquire_recursive>
 80069e2:	89ab      	ldrh	r3, [r5, #12]
 80069e4:	071b      	lsls	r3, r3, #28
 80069e6:	d501      	bpl.n	80069ec <_vfiprintf_r+0x34>
 80069e8:	692b      	ldr	r3, [r5, #16]
 80069ea:	b99b      	cbnz	r3, 8006a14 <_vfiprintf_r+0x5c>
 80069ec:	4629      	mov	r1, r5
 80069ee:	4630      	mov	r0, r6
 80069f0:	f7fe fa7a 	bl	8004ee8 <__swsetup_r>
 80069f4:	b170      	cbz	r0, 8006a14 <_vfiprintf_r+0x5c>
 80069f6:	6e6b      	ldr	r3, [r5, #100]	; 0x64
 80069f8:	07dc      	lsls	r4, r3, #31
 80069fa:	d504      	bpl.n	8006a06 <_vfiprintf_r+0x4e>
 80069fc:	f04f 30ff 	mov.w	r0, #4294967295	; 0xffffffff
 8006a00:	b01d      	add	sp, #116	; 0x74
 8006a02:	e8bd 8ff0 	ldmia.w	sp!, {r4, r5, r6, r7, r8, r9, sl, fp, pc}
 8006a06:	89ab      	ldrh	r3, [r5, #12]
 8006a08:	0598      	lsls	r0, r3, #22
 8006a0a:	d4f7      	bmi.n	80069fc <_vfiprintf_r+0x44>
 8006a0c:	6da8      	ldr	r0, [r5, #88]	; 0x58
 8006a0e:	f7fe fb51 	bl	80050b4 <__retarget_lock_release_recursive>
 8006a12:	e7f3      	b.n	80069fc <_vfiprintf_r+0x44>
 8006a14:	2300      	movs	r3, #0
 8006a16:	9309      	str	r3, [sp, #36]	; 0x24
 8006a18:	2320      	movs	r3, #32
 8006a1a:	f88d 3029 	strb.w	r3, [sp, #41]	; 0x29
 8006a1e:	f8cd 800c 	str.w	r8, [sp, #12]
 8006a22:	2330      	movs	r3, #48	; 0x30
 8006a24:	f8df 81b0 	ldr.w	r8, [pc, #432]	; 8006bd8 <_vfiprintf_r+0x220>
 8006a28:	f88d 302a 	strb.w	r3, [sp, #42]	; 0x2a
 8006a2c:	f04f 0901 	mov.w	r9, #1
 8006a30:	4623      	mov	r3, r4
 8006a32:	469a      	mov	sl, r3
 8006a34:	f813 2b01 	ldrb.w	r2, [r3], #1
 8006a38:	b10a      	cbz	r2, 8006a3e <_vfiprintf_r+0x86>
 8006a3a:	2a25      	cmp	r2, #37	; 0x25
 8006a3c:	d1f9      	bne.n	8006a32 <_vfiprintf_r+0x7a>
 8006a3e:	ebba 0b04 	subs.w	fp, sl, r4
 8006a42:	d00b      	beq.n	8006a5c <_vfiprintf_r+0xa4>
 8006a44:	465b      	mov	r3, fp
 8006a46:	4622      	mov	r2, r4
 8006a48:	4629      	mov	r1, r5
 8006a4a:	4630      	mov	r0, r6
 8006a4c:	f7ff ffa1 	bl	8006992 <__sfputs_r>
 8006a50:	3001      	adds	r0, #1
 8006a52:	f000 80a9 	beq.w	8006ba8 <_vfiprintf_r+0x1f0>
 8006a56:	9a09      	ldr	r2, [sp, #36]	; 0x24
 8006a58:	445a      	add	r2, fp
 8006a5a:	9209      	str	r2, [sp, #36]	; 0x24
 8006a5c:	f89a 3000 	ldrb.w	r3, [sl]
 8006a60:	2b00      	cmp	r3, #0
 8006a62:	f000 80a1 	beq.w	8006ba8 <_vfiprintf_r+0x1f0>
 8006a66:	2300      	movs	r3, #0
 8006a68:	f04f 32ff 	mov.w	r2, #4294967295	; 0xffffffff
 8006a6c:	e9cd 2305 	strd	r2, r3, [sp, #20]
 8006a70:	f10a 0a01 	add.w	sl, sl, #1
 8006a74:	9304      	str	r3, [sp, #16]
 8006a76:	9307      	str	r3, [sp, #28]
 8006a78:	f88d 3053 	strb.w	r3, [sp, #83]	; 0x53
 8006a7c:	931a      	str	r3, [sp, #104]	; 0x68
 8006a7e:	4654      	mov	r4, sl
 8006a80:	2205      	movs	r2, #5
 8006a82:	f814 1b01 	ldrb.w	r1, [r4], #1
 8006a86:	4854      	ldr	r0, [pc, #336]	; (8006bd8 <_vfiprintf_r+0x220>)
 8006a88:	f7f9 fba2 	bl	80001d0 <memchr>
 8006a8c:	9a04      	ldr	r2, [sp, #16]
 8006a8e:	b9d8      	cbnz	r0, 8006ac8 <_vfiprintf_r+0x110>
 8006a90:	06d1      	lsls	r1, r2, #27
 8006a92:	bf44      	itt	mi
 8006a94:	2320      	movmi	r3, #32
 8006a96:	f88d 3053 	strbmi.w	r3, [sp, #83]	; 0x53
 8006a9a:	0713      	lsls	r3, r2, #28
 8006a9c:	bf44      	itt	mi
 8006a9e:	232b      	movmi	r3, #43	; 0x2b
 8006aa0:	f88d 3053 	strbmi.w	r3, [sp, #83]	; 0x53
 8006aa4:	f89a 3000 	ldrb.w	r3, [sl]
 8006aa8:	2b2a      	cmp	r3, #42	; 0x2a
 8006aaa:	d015      	beq.n	8006ad8 <_vfiprintf_r+0x120>
 8006aac:	9a07      	ldr	r2, [sp, #28]
 8006aae:	4654      	mov	r4, sl
 8006ab0:	2000      	movs	r0, #0
 8006ab2:	f04f 0c0a 	mov.w	ip, #10
 8006ab6:	4621      	mov	r1, r4
 8006ab8:	f811 3b01 	ldrb.w	r3, [r1], #1
 8006abc:	3b30      	subs	r3, #48	; 0x30
 8006abe:	2b09      	cmp	r3, #9
 8006ac0:	d94d      	bls.n	8006b5e <_vfiprintf_r+0x1a6>
 8006ac2:	b1b0      	cbz	r0, 8006af2 <_vfiprintf_r+0x13a>
 8006ac4:	9207      	str	r2, [sp, #28]
 8006ac6:	e014      	b.n	8006af2 <_vfiprintf_r+0x13a>
 8006ac8:	eba0 0308 	sub.w	r3, r0, r8
 8006acc:	fa09 f303 	lsl.w	r3, r9, r3
 8006ad0:	4313      	orrs	r3, r2
 8006ad2:	9304      	str	r3, [sp, #16]
 8006ad4:	46a2      	mov	sl, r4
 8006ad6:	e7d2      	b.n	8006a7e <_vfiprintf_r+0xc6>
 8006ad8:	9b03      	ldr	r3, [sp, #12]
 8006ada:	1d19      	adds	r1, r3, #4
 8006adc:	681b      	ldr	r3, [r3, #0]
 8006ade:	9103      	str	r1, [sp, #12]
 8006ae0:	2b00      	cmp	r3, #0
 8006ae2:	bfbb      	ittet	lt
 8006ae4:	425b      	neglt	r3, r3
 8006ae6:	f042 0202 	orrlt.w	r2, r2, #2
 8006aea:	9307      	strge	r3, [sp, #28]
 8006aec:	9307      	strlt	r3, [sp, #28]
 8006aee:	bfb8      	it	lt
 8006af0:	9204      	strlt	r2, [sp, #16]
 8006af2:	7823      	ldrb	r3, [r4, #0]
 8006af4:	2b2e      	cmp	r3, #46	; 0x2e
 8006af6:	d10c      	bne.n	8006b12 <_vfiprintf_r+0x15a>
 8006af8:	7863      	ldrb	r3, [r4, #1]
 8006afa:	2b2a      	cmp	r3, #42	; 0x2a
 8006afc:	d134      	bne.n	8006b68 <_vfiprintf_r+0x1b0>
 8006afe:	9b03      	ldr	r3, [sp, #12]
 8006b00:	1d1a      	adds	r2, r3, #4
 8006b02:	681b      	ldr	r3, [r3, #0]
 8006b04:	9203      	str	r2, [sp, #12]
 8006b06:	2b00      	cmp	r3, #0
 8006b08:	bfb8      	it	lt
 8006b0a:	f04f 33ff 	movlt.w	r3, #4294967295	; 0xffffffff
 8006b0e:	3402      	adds	r4, #2
 8006b10:	9305      	str	r3, [sp, #20]
 8006b12:	f8df a0d4 	ldr.w	sl, [pc, #212]	; 8006be8 <_vfiprintf_r+0x230>
 8006b16:	7821      	ldrb	r1, [r4, #0]
 8006b18:	2203      	movs	r2, #3
 8006b1a:	4650      	mov	r0, sl
 8006b1c:	f7f9 fb58 	bl	80001d0 <memchr>
 8006b20:	b138      	cbz	r0, 8006b32 <_vfiprintf_r+0x17a>
 8006b22:	9b04      	ldr	r3, [sp, #16]
 8006b24:	eba0 000a 	sub.w	r0, r0, sl
 8006b28:	2240      	movs	r2, #64	; 0x40
 8006b2a:	4082      	lsls	r2, r0
 8006b2c:	4313      	orrs	r3, r2
 8006b2e:	3401      	adds	r4, #1
 8006b30:	9304      	str	r3, [sp, #16]
 8006b32:	f814 1b01 	ldrb.w	r1, [r4], #1
 8006b36:	4829      	ldr	r0, [pc, #164]	; (8006bdc <_vfiprintf_r+0x224>)
 8006b38:	f88d 1028 	strb.w	r1, [sp, #40]	; 0x28
 8006b3c:	2206      	movs	r2, #6
 8006b3e:	f7f9 fb47 	bl	80001d0 <memchr>
 8006b42:	2800      	cmp	r0, #0
 8006b44:	d03f      	beq.n	8006bc6 <_vfiprintf_r+0x20e>
 8006b46:	4b26      	ldr	r3, [pc, #152]	; (8006be0 <_vfiprintf_r+0x228>)
 8006b48:	bb1b      	cbnz	r3, 8006b92 <_vfiprintf_r+0x1da>
 8006b4a:	9b03      	ldr	r3, [sp, #12]
 8006b4c:	3307      	adds	r3, #7
 8006b4e:	f023 0307 	bic.w	r3, r3, #7
 8006b52:	3308      	adds	r3, #8
 8006b54:	9303      	str	r3, [sp, #12]
 8006b56:	9b09      	ldr	r3, [sp, #36]	; 0x24
 8006b58:	443b      	add	r3, r7
 8006b5a:	9309      	str	r3, [sp, #36]	; 0x24
 8006b5c:	e768      	b.n	8006a30 <_vfiprintf_r+0x78>
 8006b5e:	fb0c 3202 	mla	r2, ip, r2, r3
 8006b62:	460c      	mov	r4, r1
 8006b64:	2001      	movs	r0, #1
 8006b66:	e7a6      	b.n	8006ab6 <_vfiprintf_r+0xfe>
 8006b68:	2300      	movs	r3, #0
 8006b6a:	3401      	adds	r4, #1
 8006b6c:	9305      	str	r3, [sp, #20]
 8006b6e:	4619      	mov	r1, r3
 8006b70:	f04f 0c0a 	mov.w	ip, #10
 8006b74:	4620      	mov	r0, r4
 8006b76:	f810 2b01 	ldrb.w	r2, [r0], #1
 8006b7a:	3a30      	subs	r2, #48	; 0x30
 8006b7c:	2a09      	cmp	r2, #9
 8006b7e:	d903      	bls.n	8006b88 <_vfiprintf_r+0x1d0>
 8006b80:	2b00      	cmp	r3, #0
 8006b82:	d0c6      	beq.n	8006b12 <_vfiprintf_r+0x15a>
 8006b84:	9105      	str	r1, [sp, #20]
 8006b86:	e7c4      	b.n	8006b12 <_vfiprintf_r+0x15a>
 8006b88:	fb0c 2101 	mla	r1, ip, r1, r2
 8006b8c:	4604      	mov	r4, r0
 8006b8e:	2301      	movs	r3, #1
 8006b90:	e7f0      	b.n	8006b74 <_vfiprintf_r+0x1bc>
 8006b92:	ab03      	add	r3, sp, #12
 8006b94:	9300      	str	r3, [sp, #0]
 8006b96:	462a      	mov	r2, r5
 8006b98:	4b12      	ldr	r3, [pc, #72]	; (8006be4 <_vfiprintf_r+0x22c>)
 8006b9a:	a904      	add	r1, sp, #16
 8006b9c:	4630      	mov	r0, r6
 8006b9e:	f7fd fbf9 	bl	8004394 <_printf_float>
 8006ba2:	4607      	mov	r7, r0
 8006ba4:	1c78      	adds	r0, r7, #1
 8006ba6:	d1d6      	bne.n	8006b56 <_vfiprintf_r+0x19e>
 8006ba8:	6e6b      	ldr	r3, [r5, #100]	; 0x64
 8006baa:	07d9      	lsls	r1, r3, #31
 8006bac:	d405      	bmi.n	8006bba <_vfiprintf_r+0x202>
 8006bae:	89ab      	ldrh	r3, [r5, #12]
 8006bb0:	059a      	lsls	r2, r3, #22
 8006bb2:	d402      	bmi.n	8006bba <_vfiprintf_r+0x202>
 8006bb4:	6da8      	ldr	r0, [r5, #88]	; 0x58
 8006bb6:	f7fe fa7d 	bl	80050b4 <__retarget_lock_release_recursive>
 8006bba:	89ab      	ldrh	r3, [r5, #12]
 8006bbc:	065b      	lsls	r3, r3, #25
 8006bbe:	f53f af1d 	bmi.w	80069fc <_vfiprintf_r+0x44>
 8006bc2:	9809      	ldr	r0, [sp, #36]	; 0x24
 8006bc4:	e71c      	b.n	8006a00 <_vfiprintf_r+0x48>
 8006bc6:	ab03      	add	r3, sp, #12
 8006bc8:	9300      	str	r3, [sp, #0]
 8006bca:	462a      	mov	r2, r5
 8006bcc:	4b05      	ldr	r3, [pc, #20]	; (8006be4 <_vfiprintf_r+0x22c>)
 8006bce:	a904      	add	r1, sp, #16
 8006bd0:	4630      	mov	r0, r6
 8006bd2:	f7fd fe83 	bl	80048dc <_printf_i>
 8006bd6:	e7e4      	b.n	8006ba2 <_vfiprintf_r+0x1ea>
 8006bd8:	080075f4 	.word	0x080075f4
 8006bdc:	080075fe 	.word	0x080075fe
 8006be0:	08004395 	.word	0x08004395
 8006be4:	08006993 	.word	0x08006993
 8006be8:	080075fa 	.word	0x080075fa

08006bec <__sflush_r>:
 8006bec:	898a      	ldrh	r2, [r1, #12]
 8006bee:	e92d 41f0 	stmdb	sp!, {r4, r5, r6, r7, r8, lr}
 8006bf2:	4605      	mov	r5, r0
 8006bf4:	0710      	lsls	r0, r2, #28
 8006bf6:	460c      	mov	r4, r1
 8006bf8:	d458      	bmi.n	8006cac <__sflush_r+0xc0>
 8006bfa:	684b      	ldr	r3, [r1, #4]
 8006bfc:	2b00      	cmp	r3, #0
 8006bfe:	dc05      	bgt.n	8006c0c <__sflush_r+0x20>
 8006c00:	6c0b      	ldr	r3, [r1, #64]	; 0x40
 8006c02:	2b00      	cmp	r3, #0
 8006c04:	dc02      	bgt.n	8006c0c <__sflush_r+0x20>
 8006c06:	2000      	movs	r0, #0
 8006c08:	e8bd 81f0 	ldmia.w	sp!, {r4, r5, r6, r7, r8, pc}
 8006c0c:	6ae6      	ldr	r6, [r4, #44]	; 0x2c
 8006c0e:	2e00      	cmp	r6, #0
 8006c10:	d0f9      	beq.n	8006c06 <__sflush_r+0x1a>
 8006c12:	2300      	movs	r3, #0
 8006c14:	f412 5280 	ands.w	r2, r2, #4096	; 0x1000
 8006c18:	682f      	ldr	r7, [r5, #0]
 8006c1a:	6a21      	ldr	r1, [r4, #32]
 8006c1c:	602b      	str	r3, [r5, #0]
 8006c1e:	d032      	beq.n	8006c86 <__sflush_r+0x9a>
 8006c20:	6d60      	ldr	r0, [r4, #84]	; 0x54
 8006c22:	89a3      	ldrh	r3, [r4, #12]
 8006c24:	075a      	lsls	r2, r3, #29
 8006c26:	d505      	bpl.n	8006c34 <__sflush_r+0x48>
 8006c28:	6863      	ldr	r3, [r4, #4]
 8006c2a:	1ac0      	subs	r0, r0, r3
 8006c2c:	6b63      	ldr	r3, [r4, #52]	; 0x34
 8006c2e:	b10b      	cbz	r3, 8006c34 <__sflush_r+0x48>
 8006c30:	6c23      	ldr	r3, [r4, #64]	; 0x40
 8006c32:	1ac0      	subs	r0, r0, r3
 8006c34:	2300      	movs	r3, #0
 8006c36:	4602      	mov	r2, r0
 8006c38:	6ae6      	ldr	r6, [r4, #44]	; 0x2c
 8006c3a:	6a21      	ldr	r1, [r4, #32]
 8006c3c:	4628      	mov	r0, r5
 8006c3e:	47b0      	blx	r6
 8006c40:	1c43      	adds	r3, r0, #1
 8006c42:	89a3      	ldrh	r3, [r4, #12]
 8006c44:	d106      	bne.n	8006c54 <__sflush_r+0x68>
 8006c46:	6829      	ldr	r1, [r5, #0]
 8006c48:	291d      	cmp	r1, #29
 8006c4a:	d82b      	bhi.n	8006ca4 <__sflush_r+0xb8>
 8006c4c:	4a29      	ldr	r2, [pc, #164]	; (8006cf4 <__sflush_r+0x108>)
 8006c4e:	410a      	asrs	r2, r1
 8006c50:	07d6      	lsls	r6, r2, #31
 8006c52:	d427      	bmi.n	8006ca4 <__sflush_r+0xb8>
 8006c54:	2200      	movs	r2, #0
 8006c56:	6062      	str	r2, [r4, #4]
 8006c58:	04d9      	lsls	r1, r3, #19
 8006c5a:	6922      	ldr	r2, [r4, #16]
 8006c5c:	6022      	str	r2, [r4, #0]
 8006c5e:	d504      	bpl.n	8006c6a <__sflush_r+0x7e>
 8006c60:	1c42      	adds	r2, r0, #1
 8006c62:	d101      	bne.n	8006c68 <__sflush_r+0x7c>
 8006c64:	682b      	ldr	r3, [r5, #0]
 8006c66:	b903      	cbnz	r3, 8006c6a <__sflush_r+0x7e>
 8006c68:	6560      	str	r0, [r4, #84]	; 0x54
 8006c6a:	6b61      	ldr	r1, [r4, #52]	; 0x34
 8006c6c:	602f      	str	r7, [r5, #0]
 8006c6e:	2900      	cmp	r1, #0
 8006c70:	d0c9      	beq.n	8006c06 <__sflush_r+0x1a>
 8006c72:	f104 0344 	add.w	r3, r4, #68	; 0x44
 8006c76:	4299      	cmp	r1, r3
 8006c78:	d002      	beq.n	8006c80 <__sflush_r+0x94>
 8006c7a:	4628      	mov	r0, r5
 8006c7c:	f7ff f89e 	bl	8005dbc <_free_r>
 8006c80:	2000      	movs	r0, #0
 8006c82:	6360      	str	r0, [r4, #52]	; 0x34
 8006c84:	e7c0      	b.n	8006c08 <__sflush_r+0x1c>
 8006c86:	2301      	movs	r3, #1
 8006c88:	4628      	mov	r0, r5
 8006c8a:	47b0      	blx	r6
 8006c8c:	1c41      	adds	r1, r0, #1
 8006c8e:	d1c8      	bne.n	8006c22 <__sflush_r+0x36>
 8006c90:	682b      	ldr	r3, [r5, #0]
 8006c92:	2b00      	cmp	r3, #0
 8006c94:	d0c5      	beq.n	8006c22 <__sflush_r+0x36>
 8006c96:	2b1d      	cmp	r3, #29
 8006c98:	d001      	beq.n	8006c9e <__sflush_r+0xb2>
 8006c9a:	2b16      	cmp	r3, #22
 8006c9c:	d101      	bne.n	8006ca2 <__sflush_r+0xb6>
 8006c9e:	602f      	str	r7, [r5, #0]
 8006ca0:	e7b1      	b.n	8006c06 <__sflush_r+0x1a>
 8006ca2:	89a3      	ldrh	r3, [r4, #12]
 8006ca4:	f043 0340 	orr.w	r3, r3, #64	; 0x40
 8006ca8:	81a3      	strh	r3, [r4, #12]
 8006caa:	e7ad      	b.n	8006c08 <__sflush_r+0x1c>
 8006cac:	690f      	ldr	r7, [r1, #16]
 8006cae:	2f00      	cmp	r7, #0
 8006cb0:	d0a9      	beq.n	8006c06 <__sflush_r+0x1a>
 8006cb2:	0793      	lsls	r3, r2, #30
 8006cb4:	680e      	ldr	r6, [r1, #0]
 8006cb6:	bf08      	it	eq
 8006cb8:	694b      	ldreq	r3, [r1, #20]
 8006cba:	600f      	str	r7, [r1, #0]
 8006cbc:	bf18      	it	ne
 8006cbe:	2300      	movne	r3, #0
 8006cc0:	eba6 0807 	sub.w	r8, r6, r7
 8006cc4:	608b      	str	r3, [r1, #8]
 8006cc6:	f1b8 0f00 	cmp.w	r8, #0
 8006cca:	dd9c      	ble.n	8006c06 <__sflush_r+0x1a>
 8006ccc:	6a21      	ldr	r1, [r4, #32]
 8006cce:	6aa6      	ldr	r6, [r4, #40]	; 0x28
 8006cd0:	4643      	mov	r3, r8
 8006cd2:	463a      	mov	r2, r7
 8006cd4:	4628      	mov	r0, r5
 8006cd6:	47b0      	blx	r6
 8006cd8:	2800      	cmp	r0, #0
 8006cda:	dc06      	bgt.n	8006cea <__sflush_r+0xfe>
 8006cdc:	89a3      	ldrh	r3, [r4, #12]
 8006cde:	f043 0340 	orr.w	r3, r3, #64	; 0x40
 8006ce2:	81a3      	strh	r3, [r4, #12]
 8006ce4:	f04f 30ff 	mov.w	r0, #4294967295	; 0xffffffff
 8006ce8:	e78e      	b.n	8006c08 <__sflush_r+0x1c>
 8006cea:	4407      	add	r7, r0
 8006cec:	eba8 0800 	sub.w	r8, r8, r0
 8006cf0:	e7e9      	b.n	8006cc6 <__sflush_r+0xda>
 8006cf2:	bf00      	nop
 8006cf4:	dfbffffe 	.word	0xdfbffffe

08006cf8 <_fflush_r>:
 8006cf8:	b538      	push	{r3, r4, r5, lr}
 8006cfa:	690b      	ldr	r3, [r1, #16]
 8006cfc:	4605      	mov	r5, r0
 8006cfe:	460c      	mov	r4, r1
 8006d00:	b913      	cbnz	r3, 8006d08 <_fflush_r+0x10>
 8006d02:	2500      	movs	r5, #0
 8006d04:	4628      	mov	r0, r5
 8006d06:	bd38      	pop	{r3, r4, r5, pc}
 8006d08:	b118      	cbz	r0, 8006d12 <_fflush_r+0x1a>
 8006d0a:	6a03      	ldr	r3, [r0, #32]
 8006d0c:	b90b      	cbnz	r3, 8006d12 <_fflush_r+0x1a>
 8006d0e:	f7fd ff93 	bl	8004c38 <__sinit>
 8006d12:	f9b4 300c 	ldrsh.w	r3, [r4, #12]
 8006d16:	2b00      	cmp	r3, #0
 8006d18:	d0f3      	beq.n	8006d02 <_fflush_r+0xa>
 8006d1a:	6e62      	ldr	r2, [r4, #100]	; 0x64
 8006d1c:	07d0      	lsls	r0, r2, #31
 8006d1e:	d404      	bmi.n	8006d2a <_fflush_r+0x32>
 8006d20:	0599      	lsls	r1, r3, #22
 8006d22:	d402      	bmi.n	8006d2a <_fflush_r+0x32>
 8006d24:	6da0      	ldr	r0, [r4, #88]	; 0x58
 8006d26:	f7fe f9c4 	bl	80050b2 <__retarget_lock_acquire_recursive>
 8006d2a:	4628      	mov	r0, r5
 8006d2c:	4621      	mov	r1, r4
 8006d2e:	f7ff ff5d 	bl	8006bec <__sflush_r>
 8006d32:	6e63      	ldr	r3, [r4, #100]	; 0x64
 8006d34:	07da      	lsls	r2, r3, #31
 8006d36:	4605      	mov	r5, r0
 8006d38:	d4e4      	bmi.n	8006d04 <_fflush_r+0xc>
 8006d3a:	89a3      	ldrh	r3, [r4, #12]
 8006d3c:	059b      	lsls	r3, r3, #22
 8006d3e:	d4e1      	bmi.n	8006d04 <_fflush_r+0xc>
 8006d40:	6da0      	ldr	r0, [r4, #88]	; 0x58
 8006d42:	f7fe f9b7 	bl	80050b4 <__retarget_lock_release_recursive>
 8006d46:	e7dd      	b.n	8006d04 <_fflush_r+0xc>

08006d48 <__swhatbuf_r>:
 8006d48:	b570      	push	{r4, r5, r6, lr}
 8006d4a:	460c      	mov	r4, r1
 8006d4c:	f9b1 100e 	ldrsh.w	r1, [r1, #14]
 8006d50:	2900      	cmp	r1, #0
 8006d52:	b096      	sub	sp, #88	; 0x58
 8006d54:	4615      	mov	r5, r2
 8006d56:	461e      	mov	r6, r3
 8006d58:	da0d      	bge.n	8006d76 <__swhatbuf_r+0x2e>
 8006d5a:	89a3      	ldrh	r3, [r4, #12]
 8006d5c:	f013 0f80 	tst.w	r3, #128	; 0x80
 8006d60:	f04f 0100 	mov.w	r1, #0
 8006d64:	bf0c      	ite	eq
 8006d66:	f44f 6380 	moveq.w	r3, #1024	; 0x400
 8006d6a:	2340      	movne	r3, #64	; 0x40
 8006d6c:	2000      	movs	r0, #0
 8006d6e:	6031      	str	r1, [r6, #0]
 8006d70:	602b      	str	r3, [r5, #0]
 8006d72:	b016      	add	sp, #88	; 0x58
 8006d74:	bd70      	pop	{r4, r5, r6, pc}
 8006d76:	466a      	mov	r2, sp
 8006d78:	f000 f862 	bl	8006e40 <_fstat_r>
 8006d7c:	2800      	cmp	r0, #0
 8006d7e:	dbec      	blt.n	8006d5a <__swhatbuf_r+0x12>
 8006d80:	9901      	ldr	r1, [sp, #4]
 8006d82:	f401 4170 	and.w	r1, r1, #61440	; 0xf000
 8006d86:	f5a1 5300 	sub.w	r3, r1, #8192	; 0x2000
 8006d8a:	4259      	negs	r1, r3
 8006d8c:	4159      	adcs	r1, r3
 8006d8e:	f44f 6380 	mov.w	r3, #1024	; 0x400
 8006d92:	e7eb      	b.n	8006d6c <__swhatbuf_r+0x24>

08006d94 <__smakebuf_r>:
 8006d94:	898b      	ldrh	r3, [r1, #12]
 8006d96:	b573      	push	{r0, r1, r4, r5, r6, lr}
 8006d98:	079d      	lsls	r5, r3, #30
 8006d9a:	4606      	mov	r6, r0
 8006d9c:	460c      	mov	r4, r1
 8006d9e:	d507      	bpl.n	8006db0 <__smakebuf_r+0x1c>
 8006da0:	f104 0347 	add.w	r3, r4, #71	; 0x47
 8006da4:	6023      	str	r3, [r4, #0]
 8006da6:	6123      	str	r3, [r4, #16]
 8006da8:	2301      	movs	r3, #1
 8006daa:	6163      	str	r3, [r4, #20]
 8006dac:	b002      	add	sp, #8
 8006dae:	bd70      	pop	{r4, r5, r6, pc}
 8006db0:	ab01      	add	r3, sp, #4
 8006db2:	466a      	mov	r2, sp
 8006db4:	f7ff ffc8 	bl	8006d48 <__swhatbuf_r>
 8006db8:	9900      	ldr	r1, [sp, #0]
 8006dba:	4605      	mov	r5, r0
 8006dbc:	4630      	mov	r0, r6
 8006dbe:	f7ff f871 	bl	8005ea4 <_malloc_r>
 8006dc2:	b948      	cbnz	r0, 8006dd8 <__smakebuf_r+0x44>
 8006dc4:	f9b4 300c 	ldrsh.w	r3, [r4, #12]
 8006dc8:	059a      	lsls	r2, r3, #22
 8006dca:	d4ef      	bmi.n	8006dac <__smakebuf_r+0x18>
 8006dcc:	f023 0303 	bic.w	r3, r3, #3
 8006dd0:	f043 0302 	orr.w	r3, r3, #2
 8006dd4:	81a3      	strh	r3, [r4, #12]
 8006dd6:	e7e3      	b.n	8006da0 <__smakebuf_r+0xc>
 8006dd8:	89a3      	ldrh	r3, [r4, #12]
 8006dda:	6020      	str	r0, [r4, #0]
 8006ddc:	f043 0380 	orr.w	r3, r3, #128	; 0x80
 8006de0:	81a3      	strh	r3, [r4, #12]
 8006de2:	9b00      	ldr	r3, [sp, #0]
 8006de4:	6163      	str	r3, [r4, #20]
 8006de6:	9b01      	ldr	r3, [sp, #4]
 8006de8:	6120      	str	r0, [r4, #16]
 8006dea:	b15b      	cbz	r3, 8006e04 <__smakebuf_r+0x70>
 8006dec:	f9b4 100e 	ldrsh.w	r1, [r4, #14]
 8006df0:	4630      	mov	r0, r6
 8006df2:	f000 f837 	bl	8006e64 <_isatty_r>
 8006df6:	b128      	cbz	r0, 8006e04 <__smakebuf_r+0x70>
 8006df8:	89a3      	ldrh	r3, [r4, #12]
 8006dfa:	f023 0303 	bic.w	r3, r3, #3
 8006dfe:	f043 0301 	orr.w	r3, r3, #1
 8006e02:	81a3      	strh	r3, [r4, #12]
 8006e04:	89a3      	ldrh	r3, [r4, #12]
 8006e06:	431d      	orrs	r5, r3
 8006e08:	81a5      	strh	r5, [r4, #12]
 8006e0a:	e7cf      	b.n	8006dac <__smakebuf_r+0x18>

08006e0c <memmove>:
 8006e0c:	4288      	cmp	r0, r1
 8006e0e:	b510      	push	{r4, lr}
 8006e10:	eb01 0402 	add.w	r4, r1, r2
 8006e14:	d902      	bls.n	8006e1c <memmove+0x10>
 8006e16:	4284      	cmp	r4, r0
 8006e18:	4623      	mov	r3, r4
 8006e1a:	d807      	bhi.n	8006e2c <memmove+0x20>
 8006e1c:	1e43      	subs	r3, r0, #1
 8006e1e:	42a1      	cmp	r1, r4
 8006e20:	d008      	beq.n	8006e34 <memmove+0x28>
 8006e22:	f811 2b01 	ldrb.w	r2, [r1], #1
 8006e26:	f803 2f01 	strb.w	r2, [r3, #1]!
 8006e2a:	e7f8      	b.n	8006e1e <memmove+0x12>
 8006e2c:	4402      	add	r2, r0
 8006e2e:	4601      	mov	r1, r0
 8006e30:	428a      	cmp	r2, r1
 8006e32:	d100      	bne.n	8006e36 <memmove+0x2a>
 8006e34:	bd10      	pop	{r4, pc}
 8006e36:	f813 4d01 	ldrb.w	r4, [r3, #-1]!
 8006e3a:	f802 4d01 	strb.w	r4, [r2, #-1]!
 8006e3e:	e7f7      	b.n	8006e30 <memmove+0x24>

08006e40 <_fstat_r>:
 8006e40:	b538      	push	{r3, r4, r5, lr}
 8006e42:	4d07      	ldr	r5, [pc, #28]	; (8006e60 <_fstat_r+0x20>)
 8006e44:	2300      	movs	r3, #0
 8006e46:	4604      	mov	r4, r0
 8006e48:	4608      	mov	r0, r1
 8006e4a:	4611      	mov	r1, r2
 8006e4c:	602b      	str	r3, [r5, #0]
 8006e4e:	f7fa ff34 	bl	8001cba <_fstat>
 8006e52:	1c43      	adds	r3, r0, #1
 8006e54:	d102      	bne.n	8006e5c <_fstat_r+0x1c>
 8006e56:	682b      	ldr	r3, [r5, #0]
 8006e58:	b103      	cbz	r3, 8006e5c <_fstat_r+0x1c>
 8006e5a:	6023      	str	r3, [r4, #0]
 8006e5c:	bd38      	pop	{r3, r4, r5, pc}
 8006e5e:	bf00      	nop
 8006e60:	2000053c 	.word	0x2000053c

08006e64 <_isatty_r>:
 8006e64:	b538      	push	{r3, r4, r5, lr}
 8006e66:	4d06      	ldr	r5, [pc, #24]	; (8006e80 <_isatty_r+0x1c>)
 8006e68:	2300      	movs	r3, #0
 8006e6a:	4604      	mov	r4, r0
 8006e6c:	4608      	mov	r0, r1
 8006e6e:	602b      	str	r3, [r5, #0]
 8006e70:	f7fa ff28 	bl	8001cc4 <_isatty>
 8006e74:	1c43      	adds	r3, r0, #1
 8006e76:	d102      	bne.n	8006e7e <_isatty_r+0x1a>
 8006e78:	682b      	ldr	r3, [r5, #0]
 8006e7a:	b103      	cbz	r3, 8006e7e <_isatty_r+0x1a>
 8006e7c:	6023      	str	r3, [r4, #0]
 8006e7e:	bd38      	pop	{r3, r4, r5, pc}
 8006e80:	2000053c 	.word	0x2000053c

08006e84 <_sbrk_r>:
 8006e84:	b538      	push	{r3, r4, r5, lr}
 8006e86:	4d06      	ldr	r5, [pc, #24]	; (8006ea0 <_sbrk_r+0x1c>)
 8006e88:	2300      	movs	r3, #0
 8006e8a:	4604      	mov	r4, r0
 8006e8c:	4608      	mov	r0, r1
 8006e8e:	602b      	str	r3, [r5, #0]
 8006e90:	f7fa ff1c 	bl	8001ccc <_sbrk>
 8006e94:	1c43      	adds	r3, r0, #1
 8006e96:	d102      	bne.n	8006e9e <_sbrk_r+0x1a>
 8006e98:	682b      	ldr	r3, [r5, #0]
 8006e9a:	b103      	cbz	r3, 8006e9e <_sbrk_r+0x1a>
 8006e9c:	6023      	str	r3, [r4, #0]
 8006e9e:	bd38      	pop	{r3, r4, r5, pc}
 8006ea0:	2000053c 	.word	0x2000053c

08006ea4 <memcpy>:
 8006ea4:	440a      	add	r2, r1
 8006ea6:	4291      	cmp	r1, r2
 8006ea8:	f100 33ff 	add.w	r3, r0, #4294967295	; 0xffffffff
 8006eac:	d100      	bne.n	8006eb0 <memcpy+0xc>
 8006eae:	4770      	bx	lr
 8006eb0:	b510      	push	{r4, lr}
 8006eb2:	f811 4b01 	ldrb.w	r4, [r1], #1
 8006eb6:	f803 4f01 	strb.w	r4, [r3, #1]!
 8006eba:	4291      	cmp	r1, r2
 8006ebc:	d1f9      	bne.n	8006eb2 <memcpy+0xe>
 8006ebe:	bd10      	pop	{r4, pc}

08006ec0 <__assert_func>:
 8006ec0:	b51f      	push	{r0, r1, r2, r3, r4, lr}
 8006ec2:	4614      	mov	r4, r2
 8006ec4:	461a      	mov	r2, r3
 8006ec6:	4b09      	ldr	r3, [pc, #36]	; (8006eec <__assert_func+0x2c>)
 8006ec8:	681b      	ldr	r3, [r3, #0]
 8006eca:	4605      	mov	r5, r0
 8006ecc:	68d8      	ldr	r0, [r3, #12]
 8006ece:	b14c      	cbz	r4, 8006ee4 <__assert_func+0x24>
 8006ed0:	4b07      	ldr	r3, [pc, #28]	; (8006ef0 <__assert_func+0x30>)
 8006ed2:	9100      	str	r1, [sp, #0]
 8006ed4:	e9cd 3401 	strd	r3, r4, [sp, #4]
 8006ed8:	4906      	ldr	r1, [pc, #24]	; (8006ef4 <__assert_func+0x34>)
 8006eda:	462b      	mov	r3, r5
 8006edc:	f000 f872 	bl	8006fc4 <fiprintf>
 8006ee0:	f000 f882 	bl	8006fe8 <abort>
 8006ee4:	4b04      	ldr	r3, [pc, #16]	; (8006ef8 <__assert_func+0x38>)
 8006ee6:	461c      	mov	r4, r3
 8006ee8:	e7f3      	b.n	8006ed2 <__assert_func+0x12>
 8006eea:	bf00      	nop
 8006eec:	20000064 	.word	0x20000064
 8006ef0:	0800760f 	.word	0x0800760f
 8006ef4:	0800761c 	.word	0x0800761c
 8006ef8:	080072f7 	.word	0x080072f7

08006efc <_calloc_r>:
 8006efc:	b537      	push	{r0, r1, r2, r4, r5, lr}
 8006efe:	fba1 2402 	umull	r2, r4, r1, r2
 8006f02:	b94c      	cbnz	r4, 8006f18 <_calloc_r+0x1c>
 8006f04:	4611      	mov	r1, r2
 8006f06:	9201      	str	r2, [sp, #4]
 8006f08:	f7fe ffcc 	bl	8005ea4 <_malloc_r>
 8006f0c:	9a01      	ldr	r2, [sp, #4]
 8006f0e:	4605      	mov	r5, r0
 8006f10:	b930      	cbnz	r0, 8006f20 <_calloc_r+0x24>
 8006f12:	4628      	mov	r0, r5
 8006f14:	b003      	add	sp, #12
 8006f16:	bd30      	pop	{r4, r5, pc}
 8006f18:	220c      	movs	r2, #12
 8006f1a:	6002      	str	r2, [r0, #0]
 8006f1c:	2500      	movs	r5, #0
 8006f1e:	e7f8      	b.n	8006f12 <_calloc_r+0x16>
 8006f20:	4621      	mov	r1, r4
 8006f22:	f7fe f839 	bl	8004f98 <memset>
 8006f26:	e7f4      	b.n	8006f12 <_calloc_r+0x16>

08006f28 <__ascii_mbtowc>:
 8006f28:	b082      	sub	sp, #8
 8006f2a:	b901      	cbnz	r1, 8006f2e <__ascii_mbtowc+0x6>
 8006f2c:	a901      	add	r1, sp, #4
 8006f2e:	b142      	cbz	r2, 8006f42 <__ascii_mbtowc+0x1a>
 8006f30:	b14b      	cbz	r3, 8006f46 <__ascii_mbtowc+0x1e>
 8006f32:	7813      	ldrb	r3, [r2, #0]
 8006f34:	600b      	str	r3, [r1, #0]
 8006f36:	7812      	ldrb	r2, [r2, #0]
 8006f38:	1e10      	subs	r0, r2, #0
 8006f3a:	bf18      	it	ne
 8006f3c:	2001      	movne	r0, #1
 8006f3e:	b002      	add	sp, #8
 8006f40:	4770      	bx	lr
 8006f42:	4610      	mov	r0, r2
 8006f44:	e7fb      	b.n	8006f3e <__ascii_mbtowc+0x16>
 8006f46:	f06f 0001 	mvn.w	r0, #1
 8006f4a:	e7f8      	b.n	8006f3e <__ascii_mbtowc+0x16>

08006f4c <_realloc_r>:
 8006f4c:	e92d 41f0 	stmdb	sp!, {r4, r5, r6, r7, r8, lr}
 8006f50:	4680      	mov	r8, r0
 8006f52:	4614      	mov	r4, r2
 8006f54:	460e      	mov	r6, r1
 8006f56:	b921      	cbnz	r1, 8006f62 <_realloc_r+0x16>
 8006f58:	e8bd 41f0 	ldmia.w	sp!, {r4, r5, r6, r7, r8, lr}
 8006f5c:	4611      	mov	r1, r2
 8006f5e:	f7fe bfa1 	b.w	8005ea4 <_malloc_r>
 8006f62:	b92a      	cbnz	r2, 8006f70 <_realloc_r+0x24>
 8006f64:	f7fe ff2a 	bl	8005dbc <_free_r>
 8006f68:	4625      	mov	r5, r4
 8006f6a:	4628      	mov	r0, r5
 8006f6c:	e8bd 81f0 	ldmia.w	sp!, {r4, r5, r6, r7, r8, pc}
 8006f70:	f000 f841 	bl	8006ff6 <_malloc_usable_size_r>
 8006f74:	4284      	cmp	r4, r0
 8006f76:	4607      	mov	r7, r0
 8006f78:	d802      	bhi.n	8006f80 <_realloc_r+0x34>
 8006f7a:	ebb4 0f50 	cmp.w	r4, r0, lsr #1
 8006f7e:	d812      	bhi.n	8006fa6 <_realloc_r+0x5a>
 8006f80:	4621      	mov	r1, r4
 8006f82:	4640      	mov	r0, r8
 8006f84:	f7fe ff8e 	bl	8005ea4 <_malloc_r>
 8006f88:	4605      	mov	r5, r0
 8006f8a:	2800      	cmp	r0, #0
 8006f8c:	d0ed      	beq.n	8006f6a <_realloc_r+0x1e>
 8006f8e:	42bc      	cmp	r4, r7
 8006f90:	4622      	mov	r2, r4
 8006f92:	4631      	mov	r1, r6
 8006f94:	bf28      	it	cs
 8006f96:	463a      	movcs	r2, r7
 8006f98:	f7ff ff84 	bl	8006ea4 <memcpy>
 8006f9c:	4631      	mov	r1, r6
 8006f9e:	4640      	mov	r0, r8
 8006fa0:	f7fe ff0c 	bl	8005dbc <_free_r>
 8006fa4:	e7e1      	b.n	8006f6a <_realloc_r+0x1e>
 8006fa6:	4635      	mov	r5, r6
 8006fa8:	e7df      	b.n	8006f6a <_realloc_r+0x1e>

08006faa <__ascii_wctomb>:
 8006faa:	b149      	cbz	r1, 8006fc0 <__ascii_wctomb+0x16>
 8006fac:	2aff      	cmp	r2, #255	; 0xff
 8006fae:	bf85      	ittet	hi
 8006fb0:	238a      	movhi	r3, #138	; 0x8a
 8006fb2:	6003      	strhi	r3, [r0, #0]
 8006fb4:	700a      	strbls	r2, [r1, #0]
 8006fb6:	f04f 30ff 	movhi.w	r0, #4294967295	; 0xffffffff
 8006fba:	bf98      	it	ls
 8006fbc:	2001      	movls	r0, #1
 8006fbe:	4770      	bx	lr
 8006fc0:	4608      	mov	r0, r1
 8006fc2:	4770      	bx	lr

08006fc4 <fiprintf>:
 8006fc4:	b40e      	push	{r1, r2, r3}
 8006fc6:	b503      	push	{r0, r1, lr}
 8006fc8:	4601      	mov	r1, r0
 8006fca:	ab03      	add	r3, sp, #12
 8006fcc:	4805      	ldr	r0, [pc, #20]	; (8006fe4 <fiprintf+0x20>)
 8006fce:	f853 2b04 	ldr.w	r2, [r3], #4
 8006fd2:	6800      	ldr	r0, [r0, #0]
 8006fd4:	9301      	str	r3, [sp, #4]
 8006fd6:	f7ff fcef 	bl	80069b8 <_vfiprintf_r>
 8006fda:	b002      	add	sp, #8
 8006fdc:	f85d eb04 	ldr.w	lr, [sp], #4
 8006fe0:	b003      	add	sp, #12
 8006fe2:	4770      	bx	lr
 8006fe4:	20000064 	.word	0x20000064

08006fe8 <abort>:
 8006fe8:	b508      	push	{r3, lr}
 8006fea:	2006      	movs	r0, #6
 8006fec:	f000 f834 	bl	8007058 <raise>
 8006ff0:	2001      	movs	r0, #1
 8006ff2:	f7fa fe4b 	bl	8001c8c <_exit>

08006ff6 <_malloc_usable_size_r>:
 8006ff6:	f851 3c04 	ldr.w	r3, [r1, #-4]
 8006ffa:	1f18      	subs	r0, r3, #4
 8006ffc:	2b00      	cmp	r3, #0
 8006ffe:	bfbc      	itt	lt
 8007000:	580b      	ldrlt	r3, [r1, r0]
 8007002:	18c0      	addlt	r0, r0, r3
 8007004:	4770      	bx	lr

08007006 <_raise_r>:
 8007006:	291f      	cmp	r1, #31
 8007008:	b538      	push	{r3, r4, r5, lr}
 800700a:	4604      	mov	r4, r0
 800700c:	460d      	mov	r5, r1
 800700e:	d904      	bls.n	800701a <_raise_r+0x14>
 8007010:	2316      	movs	r3, #22
 8007012:	6003      	str	r3, [r0, #0]
 8007014:	f04f 30ff 	mov.w	r0, #4294967295	; 0xffffffff
 8007018:	bd38      	pop	{r3, r4, r5, pc}
 800701a:	6bc2      	ldr	r2, [r0, #60]	; 0x3c
 800701c:	b112      	cbz	r2, 8007024 <_raise_r+0x1e>
 800701e:	f852 3021 	ldr.w	r3, [r2, r1, lsl #2]
 8007022:	b94b      	cbnz	r3, 8007038 <_raise_r+0x32>
 8007024:	4620      	mov	r0, r4
 8007026:	f000 f831 	bl	800708c <_getpid_r>
 800702a:	462a      	mov	r2, r5
 800702c:	4601      	mov	r1, r0
 800702e:	4620      	mov	r0, r4
 8007030:	e8bd 4038 	ldmia.w	sp!, {r3, r4, r5, lr}
 8007034:	f000 b818 	b.w	8007068 <_kill_r>
 8007038:	2b01      	cmp	r3, #1
 800703a:	d00a      	beq.n	8007052 <_raise_r+0x4c>
 800703c:	1c59      	adds	r1, r3, #1
 800703e:	d103      	bne.n	8007048 <_raise_r+0x42>
 8007040:	2316      	movs	r3, #22
 8007042:	6003      	str	r3, [r0, #0]
 8007044:	2001      	movs	r0, #1
 8007046:	e7e7      	b.n	8007018 <_raise_r+0x12>
 8007048:	2400      	movs	r4, #0
 800704a:	f842 4025 	str.w	r4, [r2, r5, lsl #2]
 800704e:	4628      	mov	r0, r5
 8007050:	4798      	blx	r3
 8007052:	2000      	movs	r0, #0
 8007054:	e7e0      	b.n	8007018 <_raise_r+0x12>
	...

08007058 <raise>:
 8007058:	4b02      	ldr	r3, [pc, #8]	; (8007064 <raise+0xc>)
 800705a:	4601      	mov	r1, r0
 800705c:	6818      	ldr	r0, [r3, #0]
 800705e:	f7ff bfd2 	b.w	8007006 <_raise_r>
 8007062:	bf00      	nop
 8007064:	20000064 	.word	0x20000064

08007068 <_kill_r>:
 8007068:	b538      	push	{r3, r4, r5, lr}
 800706a:	4d07      	ldr	r5, [pc, #28]	; (8007088 <_kill_r+0x20>)
 800706c:	2300      	movs	r3, #0
 800706e:	4604      	mov	r4, r0
 8007070:	4608      	mov	r0, r1
 8007072:	4611      	mov	r1, r2
 8007074:	602b      	str	r3, [r5, #0]
 8007076:	f7fa fe01 	bl	8001c7c <_kill>
 800707a:	1c43      	adds	r3, r0, #1
 800707c:	d102      	bne.n	8007084 <_kill_r+0x1c>
 800707e:	682b      	ldr	r3, [r5, #0]
 8007080:	b103      	cbz	r3, 8007084 <_kill_r+0x1c>
 8007082:	6023      	str	r3, [r4, #0]
 8007084:	bd38      	pop	{r3, r4, r5, pc}
 8007086:	bf00      	nop
 8007088:	2000053c 	.word	0x2000053c

0800708c <_getpid_r>:
 800708c:	f7fa bdf4 	b.w	8001c78 <_getpid>

08007090 <_init>:
 8007090:	b5f8      	push	{r3, r4, r5, r6, r7, lr}
 8007092:	bf00      	nop
 8007094:	bcf8      	pop	{r3, r4, r5, r6, r7}
 8007096:	bc08      	pop	{r3}
 8007098:	469e      	mov	lr, r3
 800709a:	4770      	bx	lr

0800709c <_fini>:
 800709c:	b5f8      	push	{r3, r4, r5, r6, r7, lr}
 800709e:	bf00      	nop
 80070a0:	bcf8      	pop	{r3, r4, r5, r6, r7}
 80070a2:	bc08      	pop	{r3}
 80070a4:	469e      	mov	lr, r3
 80070a6:	4770      	bx	lr
